   1               		.file	"HIDParser.c"
   2               	__SP_H__ = 0x3e
   3               	__SP_L__ = 0x3d
   4               	__SREG__ = 0x3f
   5               	__tmp_reg__ = 0
   6               	__zero_reg__ = 1
   7               		.text
   8               	.Ltext0:
   9               		.cfi_sections	.debug_frame
  10               		.section	.text.USB_ProcessHIDReport,"ax",@progbits
  11               	.global	USB_ProcessHIDReport
  13               	USB_ProcessHIDReport:
  14               	.LFB16:
  15               		.file 1 "LUFA-111009/LUFA/Drivers/USB/Class/Common/HIDParser.c"
   1:LUFA-111009/LUFA/Drivers/USB/Class/Common/HIDParser.c **** /*
   2:LUFA-111009/LUFA/Drivers/USB/Class/Common/HIDParser.c ****              LUFA Library
   3:LUFA-111009/LUFA/Drivers/USB/Class/Common/HIDParser.c ****      Copyright (C) Dean Camera, 2011.
   4:LUFA-111009/LUFA/Drivers/USB/Class/Common/HIDParser.c **** 
   5:LUFA-111009/LUFA/Drivers/USB/Class/Common/HIDParser.c ****   dean [at] fourwalledcubicle [dot] com
   6:LUFA-111009/LUFA/Drivers/USB/Class/Common/HIDParser.c ****            www.lufa-lib.org
   7:LUFA-111009/LUFA/Drivers/USB/Class/Common/HIDParser.c **** */
   8:LUFA-111009/LUFA/Drivers/USB/Class/Common/HIDParser.c **** 
   9:LUFA-111009/LUFA/Drivers/USB/Class/Common/HIDParser.c **** /*
  10:LUFA-111009/LUFA/Drivers/USB/Class/Common/HIDParser.c ****   Copyright 2011  Dean Camera (dean [at] fourwalledcubicle [dot] com)
  11:LUFA-111009/LUFA/Drivers/USB/Class/Common/HIDParser.c **** 
  12:LUFA-111009/LUFA/Drivers/USB/Class/Common/HIDParser.c ****   Permission to use, copy, modify, distribute, and sell this
  13:LUFA-111009/LUFA/Drivers/USB/Class/Common/HIDParser.c ****   software and its documentation for any purpose is hereby granted
  14:LUFA-111009/LUFA/Drivers/USB/Class/Common/HIDParser.c ****   without fee, provided that the above copyright notice appear in
  15:LUFA-111009/LUFA/Drivers/USB/Class/Common/HIDParser.c ****   all copies and that both that the copyright notice and this
  16:LUFA-111009/LUFA/Drivers/USB/Class/Common/HIDParser.c ****   permission notice and warranty disclaimer appear in supporting
  17:LUFA-111009/LUFA/Drivers/USB/Class/Common/HIDParser.c ****   documentation, and that the name of the author not be used in
  18:LUFA-111009/LUFA/Drivers/USB/Class/Common/HIDParser.c ****   advertising or publicity pertaining to distribution of the
  19:LUFA-111009/LUFA/Drivers/USB/Class/Common/HIDParser.c ****   software without specific, written prior permission.
  20:LUFA-111009/LUFA/Drivers/USB/Class/Common/HIDParser.c **** 
  21:LUFA-111009/LUFA/Drivers/USB/Class/Common/HIDParser.c ****   The author disclaim all warranties with regard to this
  22:LUFA-111009/LUFA/Drivers/USB/Class/Common/HIDParser.c ****   software, including all implied warranties of merchantability
  23:LUFA-111009/LUFA/Drivers/USB/Class/Common/HIDParser.c ****   and fitness.  In no event shall the author be liable for any
  24:LUFA-111009/LUFA/Drivers/USB/Class/Common/HIDParser.c ****   special, indirect or consequential damages or any damages
  25:LUFA-111009/LUFA/Drivers/USB/Class/Common/HIDParser.c ****   whatsoever resulting from loss of use, data or profits, whether
  26:LUFA-111009/LUFA/Drivers/USB/Class/Common/HIDParser.c ****   in an action of contract, negligence or other tortious action,
  27:LUFA-111009/LUFA/Drivers/USB/Class/Common/HIDParser.c ****   arising out of or in connection with the use or performance of
  28:LUFA-111009/LUFA/Drivers/USB/Class/Common/HIDParser.c ****   this software.
  29:LUFA-111009/LUFA/Drivers/USB/Class/Common/HIDParser.c **** */
  30:LUFA-111009/LUFA/Drivers/USB/Class/Common/HIDParser.c **** 
  31:LUFA-111009/LUFA/Drivers/USB/Class/Common/HIDParser.c **** #define  __INCLUDE_FROM_USB_DRIVER
  32:LUFA-111009/LUFA/Drivers/USB/Class/Common/HIDParser.c **** #define  __INCLUDE_FROM_HID_DRIVER
  33:LUFA-111009/LUFA/Drivers/USB/Class/Common/HIDParser.c **** #include "HIDParser.h"
  34:LUFA-111009/LUFA/Drivers/USB/Class/Common/HIDParser.c **** 
  35:LUFA-111009/LUFA/Drivers/USB/Class/Common/HIDParser.c **** uint8_t USB_ProcessHIDReport(const uint8_t* ReportData,
  36:LUFA-111009/LUFA/Drivers/USB/Class/Common/HIDParser.c ****                              uint16_t ReportSize,
  37:LUFA-111009/LUFA/Drivers/USB/Class/Common/HIDParser.c ****                              HID_ReportInfo_t* const ParserData)
  38:LUFA-111009/LUFA/Drivers/USB/Class/Common/HIDParser.c **** {
  16               		.loc 1 38 0
  17               		.cfi_startproc
  18               	.LVL0:
  19 0000 2F92      		push r2
  20               	.LCFI0:
  21               		.cfi_def_cfa_offset 3
  22               		.cfi_offset 2, -2
  23 0002 3F92      		push r3
  24               	.LCFI1:
  25               		.cfi_def_cfa_offset 4
  26               		.cfi_offset 3, -3
  27 0004 4F92      		push r4
  28               	.LCFI2:
  29               		.cfi_def_cfa_offset 5
  30               		.cfi_offset 4, -4
  31 0006 5F92      		push r5
  32               	.LCFI3:
  33               		.cfi_def_cfa_offset 6
  34               		.cfi_offset 5, -5
  35 0008 6F92      		push r6
  36               	.LCFI4:
  37               		.cfi_def_cfa_offset 7
  38               		.cfi_offset 6, -6
  39 000a 7F92      		push r7
  40               	.LCFI5:
  41               		.cfi_def_cfa_offset 8
  42               		.cfi_offset 7, -7
  43 000c 8F92      		push r8
  44               	.LCFI6:
  45               		.cfi_def_cfa_offset 9
  46               		.cfi_offset 8, -8
  47 000e 9F92      		push r9
  48               	.LCFI7:
  49               		.cfi_def_cfa_offset 10
  50               		.cfi_offset 9, -9
  51 0010 AF92      		push r10
  52               	.LCFI8:
  53               		.cfi_def_cfa_offset 11
  54               		.cfi_offset 10, -10
  55 0012 BF92      		push r11
  56               	.LCFI9:
  57               		.cfi_def_cfa_offset 12
  58               		.cfi_offset 11, -11
  59 0014 CF92      		push r12
  60               	.LCFI10:
  61               		.cfi_def_cfa_offset 13
  62               		.cfi_offset 12, -12
  63 0016 DF92      		push r13
  64               	.LCFI11:
  65               		.cfi_def_cfa_offset 14
  66               		.cfi_offset 13, -13
  67 0018 EF92      		push r14
  68               	.LCFI12:
  69               		.cfi_def_cfa_offset 15
  70               		.cfi_offset 14, -14
  71 001a FF92      		push r15
  72               	.LCFI13:
  73               		.cfi_def_cfa_offset 16
  74               		.cfi_offset 15, -15
  75 001c 0F93      		push r16
  76               	.LCFI14:
  77               		.cfi_def_cfa_offset 17
  78               		.cfi_offset 16, -16
  79 001e 1F93      		push r17
  80               	.LCFI15:
  81               		.cfi_def_cfa_offset 18
  82               		.cfi_offset 17, -17
  83 0020 CF93      		push r28
  84               	.LCFI16:
  85               		.cfi_def_cfa_offset 19
  86               		.cfi_offset 28, -18
  87 0022 DF93      		push r29
  88               	.LCFI17:
  89               		.cfi_def_cfa_offset 20
  90               		.cfi_offset 29, -19
  91 0024 CDB7      		in r28,__SP_L__
  92 0026 DEB7      		in r29,__SP_H__
  93               	.LCFI18:
  94               		.cfi_def_cfa_register 28
  95 0028 C958      		subi r28,-119
  96 002a D109      		sbc r29,__zero_reg__
  97               	.LCFI19:
  98               		.cfi_def_cfa_offset 157
  99 002c 0FB6      		in __tmp_reg__,__SREG__
 100 002e F894      		cli
 101 0030 DEBF      		out __SP_H__,r29
 102 0032 0FBE      		out __SREG__,__tmp_reg__
 103 0034 CDBF      		out __SP_L__,r28
 104               	/* prologue: function */
 105               	/* frame size = 137 */
 106               	/* stack size = 155 */
 107               	.L__stack_usage = 155
 108 0036 4C01      		movw r8,r24
 109 0038 2B01      		movw r4,r22
 110 003a 5A01      		movw r10,r20
 111               	.LVL1:
  39:LUFA-111009/LUFA/Drivers/USB/Class/Common/HIDParser.c **** 	HID_StateTable_t      StateTable[HID_STATETABLE_STACK_DEPTH];
  40:LUFA-111009/LUFA/Drivers/USB/Class/Common/HIDParser.c **** 	HID_StateTable_t*     CurrStateTable          = &StateTable[0];
  41:LUFA-111009/LUFA/Drivers/USB/Class/Common/HIDParser.c **** 	HID_CollectionPath_t* CurrCollectionPath      = NULL;
  42:LUFA-111009/LUFA/Drivers/USB/Class/Common/HIDParser.c **** 	HID_ReportSizeInfo_t* CurrReportIDInfo        = &ParserData->ReportIDSizes[0];
 112               		.loc 1 42 0
 113 003c 3A01      		movw r6,r20
 114 003e 20E7      		ldi r18,112
 115 0040 621A      		sub r6,r18
 116 0042 2CEF      		ldi r18,-4
 117 0044 720A      		sbc r7,r18
 118               	.LVL2:
  43:LUFA-111009/LUFA/Drivers/USB/Class/Common/HIDParser.c **** 	uint16_t              UsageList[HID_USAGE_STACK_DEPTH];
  44:LUFA-111009/LUFA/Drivers/USB/Class/Common/HIDParser.c **** 	uint8_t               UsageListSize           = 0;
  45:LUFA-111009/LUFA/Drivers/USB/Class/Common/HIDParser.c **** 	HID_MinMax_t          UsageMinMax             = {0, 0};
  46:LUFA-111009/LUFA/Drivers/USB/Class/Common/HIDParser.c **** 
  47:LUFA-111009/LUFA/Drivers/USB/Class/Common/HIDParser.c **** 	memset(ParserData,       0x00, sizeof(HID_ReportInfo_t));
 119               		.loc 1 47 0
 120 0046 89ED      		ldi r24,lo8(-39)
 121 0048 93E0      		ldi r25,lo8(3)
 122               	.LVL3:
 123 004a DA01      		movw r26,r20
 124 004c FC01      		movw r30,r24
 125               		0:
 126 004e 1D92      		st X+,__zero_reg__
 127 0050 3197      		sbiw r30,1
 128 0052 01F4      		brne 0b
  48:LUFA-111009/LUFA/Drivers/USB/Class/Common/HIDParser.c **** 	memset(CurrStateTable,   0x00, sizeof(HID_StateTable_t));
 129               		.loc 1 48 0
 130 0054 FE01      		movw r30,r28
 131 0056 3196      		adiw r30,1
 132 0058 8CE1      		ldi r24,lo8(28)
 133 005a DF01      		movw r26,r30
 134               		0:
 135 005c 1D92      		st X+,__zero_reg__
 136 005e 8A95      		dec r24
 137 0060 01F4      		brne 0b
  49:LUFA-111009/LUFA/Drivers/USB/Class/Common/HIDParser.c **** 	memset(CurrReportIDInfo, 0x00, sizeof(HID_ReportSizeInfo_t));
 138               		.loc 1 49 0
 139 0062 87E0      		ldi r24,lo8(7)
 140 0064 D301      		movw r26,r6
 141               		0:
 142 0066 1D92      		st X+,__zero_reg__
 143 0068 8A95      		dec r24
 144 006a 01F4      		brne 0b
  50:LUFA-111009/LUFA/Drivers/USB/Class/Common/HIDParser.c **** 
  51:LUFA-111009/LUFA/Drivers/USB/Class/Common/HIDParser.c **** 	ParserData->TotalDeviceReports = 1;
 145               		.loc 1 51 0
 146 006c DA01      		movw r26,r20
 147 006e A157      		subi r26,113
 148 0070 BC4F      		sbci r27,-4
 149 0072 81E0      		ldi r24,lo8(1)
 150 0074 8C93      		st X,r24
  45:LUFA-111009/LUFA/Drivers/USB/Class/Common/HIDParser.c **** 	HID_MinMax_t          UsageMinMax             = {0, 0};
 151               		.loc 1 45 0
 152 0076 E896      		adiw r28,116-60
 153 0078 1CAE      		std Y+60,__zero_reg__
 154 007a 1DAE      		std Y+61,__zero_reg__
 155 007c 1EAE      		std Y+62,__zero_reg__
 156 007e 1FAE      		std Y+63,__zero_reg__
 157 0080 E897      		sbiw r28,116-60
 158 0082 C12C      		mov r12,__zero_reg__
 159 0084 D12C      		mov r13,__zero_reg__
 160 0086 7601      		movw r14,r12
  44:LUFA-111009/LUFA/Drivers/USB/Class/Common/HIDParser.c **** 	uint8_t               UsageListSize           = 0;
 161               		.loc 1 44 0
 162 0088 E496      		adiw r28,115-63
 163 008a 1FAE      		std Y+63,__zero_reg__
 164 008c E497      		sbiw r28,115-63
  41:LUFA-111009/LUFA/Drivers/USB/Class/Common/HIDParser.c **** 	HID_CollectionPath_t* CurrCollectionPath      = NULL;
 165               		.loc 1 41 0
 166 008e 212C      		mov r2,__zero_reg__
 167 0090 312C      		mov r3,__zero_reg__
  40:LUFA-111009/LUFA/Drivers/USB/Class/Common/HIDParser.c **** 	HID_StateTable_t*     CurrStateTable          = &StateTable[0];
 168               		.loc 1 40 0
 169 0092 8F01      		movw r16,r30
 170               	.LBB2:
 171               	.LBB3:
 172               	.LBB4:
  52:LUFA-111009/LUFA/Drivers/USB/Class/Common/HIDParser.c **** 
  53:LUFA-111009/LUFA/Drivers/USB/Class/Common/HIDParser.c **** 	while (ReportSize)
  54:LUFA-111009/LUFA/Drivers/USB/Class/Common/HIDParser.c **** 	{
  55:LUFA-111009/LUFA/Drivers/USB/Class/Common/HIDParser.c **** 		uint8_t  HIDReportItem  = *ReportData;
  56:LUFA-111009/LUFA/Drivers/USB/Class/Common/HIDParser.c **** 		uint32_t ReportItemData = 0;
  57:LUFA-111009/LUFA/Drivers/USB/Class/Common/HIDParser.c **** 
  58:LUFA-111009/LUFA/Drivers/USB/Class/Common/HIDParser.c **** 		ReportData++;
  59:LUFA-111009/LUFA/Drivers/USB/Class/Common/HIDParser.c **** 		ReportSize--;
  60:LUFA-111009/LUFA/Drivers/USB/Class/Common/HIDParser.c **** 
  61:LUFA-111009/LUFA/Drivers/USB/Class/Common/HIDParser.c **** 		switch (HIDReportItem & HID_RI_DATA_SIZE_MASK)
  62:LUFA-111009/LUFA/Drivers/USB/Class/Common/HIDParser.c **** 		{
  63:LUFA-111009/LUFA/Drivers/USB/Class/Common/HIDParser.c **** 			case HID_RI_DATA_BITS_32:
  64:LUFA-111009/LUFA/Drivers/USB/Class/Common/HIDParser.c **** 				ReportItemData  = le32_to_cpu(*((uint32_t*)ReportData));
  65:LUFA-111009/LUFA/Drivers/USB/Class/Common/HIDParser.c **** 				ReportSize     -= 4;
  66:LUFA-111009/LUFA/Drivers/USB/Class/Common/HIDParser.c **** 				ReportData     += 4;
  67:LUFA-111009/LUFA/Drivers/USB/Class/Common/HIDParser.c **** 				break;
  68:LUFA-111009/LUFA/Drivers/USB/Class/Common/HIDParser.c **** 			case HID_RI_DATA_BITS_16:
  69:LUFA-111009/LUFA/Drivers/USB/Class/Common/HIDParser.c **** 				ReportItemData  = le16_to_cpu(*((uint16_t*)ReportData));
  70:LUFA-111009/LUFA/Drivers/USB/Class/Common/HIDParser.c **** 				ReportSize     -= 2;
  71:LUFA-111009/LUFA/Drivers/USB/Class/Common/HIDParser.c **** 				ReportData     += 2;
  72:LUFA-111009/LUFA/Drivers/USB/Class/Common/HIDParser.c **** 				break;
  73:LUFA-111009/LUFA/Drivers/USB/Class/Common/HIDParser.c **** 			case HID_RI_DATA_BITS_8:
  74:LUFA-111009/LUFA/Drivers/USB/Class/Common/HIDParser.c **** 				ReportItemData  = *((uint8_t*)ReportData);
  75:LUFA-111009/LUFA/Drivers/USB/Class/Common/HIDParser.c **** 				ReportSize     -= 1;
  76:LUFA-111009/LUFA/Drivers/USB/Class/Common/HIDParser.c **** 				ReportData     += 1;
  77:LUFA-111009/LUFA/Drivers/USB/Class/Common/HIDParser.c **** 				break;
  78:LUFA-111009/LUFA/Drivers/USB/Class/Common/HIDParser.c **** 		}
  79:LUFA-111009/LUFA/Drivers/USB/Class/Common/HIDParser.c **** 
  80:LUFA-111009/LUFA/Drivers/USB/Class/Common/HIDParser.c **** 		switch (HIDReportItem & (HID_RI_TYPE_MASK | HID_RI_TAG_MASK))
  81:LUFA-111009/LUFA/Drivers/USB/Class/Common/HIDParser.c **** 		{
  82:LUFA-111009/LUFA/Drivers/USB/Class/Common/HIDParser.c **** 			case HID_RI_PUSH(0):
  83:LUFA-111009/LUFA/Drivers/USB/Class/Common/HIDParser.c **** 				if (CurrStateTable == &StateTable[HID_STATETABLE_STACK_DEPTH - 1])
  84:LUFA-111009/LUFA/Drivers/USB/Class/Common/HIDParser.c **** 				  return HID_PARSE_HIDStackOverflow;
  85:LUFA-111009/LUFA/Drivers/USB/Class/Common/HIDParser.c **** 
  86:LUFA-111009/LUFA/Drivers/USB/Class/Common/HIDParser.c **** 				memcpy((CurrStateTable + 1),
  87:LUFA-111009/LUFA/Drivers/USB/Class/Common/HIDParser.c **** 				       CurrStateTable,
  88:LUFA-111009/LUFA/Drivers/USB/Class/Common/HIDParser.c **** 				       sizeof(HID_ReportItem_t));
  89:LUFA-111009/LUFA/Drivers/USB/Class/Common/HIDParser.c **** 
  90:LUFA-111009/LUFA/Drivers/USB/Class/Common/HIDParser.c **** 				CurrStateTable++;
  91:LUFA-111009/LUFA/Drivers/USB/Class/Common/HIDParser.c **** 				break;
  92:LUFA-111009/LUFA/Drivers/USB/Class/Common/HIDParser.c **** 			case HID_RI_POP(0):
  93:LUFA-111009/LUFA/Drivers/USB/Class/Common/HIDParser.c **** 				if (CurrStateTable == &StateTable[0])
  94:LUFA-111009/LUFA/Drivers/USB/Class/Common/HIDParser.c **** 				  return HID_PARSE_HIDStackUnderflow;
  95:LUFA-111009/LUFA/Drivers/USB/Class/Common/HIDParser.c **** 
  96:LUFA-111009/LUFA/Drivers/USB/Class/Common/HIDParser.c **** 				CurrStateTable--;
  97:LUFA-111009/LUFA/Drivers/USB/Class/Common/HIDParser.c **** 				break;
  98:LUFA-111009/LUFA/Drivers/USB/Class/Common/HIDParser.c **** 			case HID_RI_USAGE_PAGE(0):
  99:LUFA-111009/LUFA/Drivers/USB/Class/Common/HIDParser.c **** 				if ((HIDReportItem & HID_RI_DATA_SIZE_MASK) == HID_RI_DATA_BITS_32)
 100:LUFA-111009/LUFA/Drivers/USB/Class/Common/HIDParser.c **** 				  CurrStateTable->Attributes.Usage.Page = (ReportItemData >> 16);
 101:LUFA-111009/LUFA/Drivers/USB/Class/Common/HIDParser.c **** 				
 102:LUFA-111009/LUFA/Drivers/USB/Class/Common/HIDParser.c **** 				CurrStateTable->Attributes.Usage.Page       = ReportItemData;
 103:LUFA-111009/LUFA/Drivers/USB/Class/Common/HIDParser.c **** 				break;
 104:LUFA-111009/LUFA/Drivers/USB/Class/Common/HIDParser.c **** 			case HID_RI_LOGICAL_MINIMUM(0):
 105:LUFA-111009/LUFA/Drivers/USB/Class/Common/HIDParser.c **** 				CurrStateTable->Attributes.Logical.Minimum  = ReportItemData;
 106:LUFA-111009/LUFA/Drivers/USB/Class/Common/HIDParser.c **** 				break;
 107:LUFA-111009/LUFA/Drivers/USB/Class/Common/HIDParser.c **** 			case HID_RI_LOGICAL_MAXIMUM(0):
 108:LUFA-111009/LUFA/Drivers/USB/Class/Common/HIDParser.c **** 				CurrStateTable->Attributes.Logical.Maximum  = ReportItemData;
 109:LUFA-111009/LUFA/Drivers/USB/Class/Common/HIDParser.c **** 				break;
 110:LUFA-111009/LUFA/Drivers/USB/Class/Common/HIDParser.c **** 			case HID_RI_PHYSICAL_MINIMUM(0):
 111:LUFA-111009/LUFA/Drivers/USB/Class/Common/HIDParser.c **** 				CurrStateTable->Attributes.Physical.Minimum = ReportItemData;
 112:LUFA-111009/LUFA/Drivers/USB/Class/Common/HIDParser.c **** 				break;
 113:LUFA-111009/LUFA/Drivers/USB/Class/Common/HIDParser.c **** 			case HID_RI_PHYSICAL_MAXIMUM(0):
 114:LUFA-111009/LUFA/Drivers/USB/Class/Common/HIDParser.c **** 				CurrStateTable->Attributes.Physical.Maximum = ReportItemData;
 115:LUFA-111009/LUFA/Drivers/USB/Class/Common/HIDParser.c **** 				break;
 116:LUFA-111009/LUFA/Drivers/USB/Class/Common/HIDParser.c **** 			case HID_RI_UNIT_EXPONENT(0):
 117:LUFA-111009/LUFA/Drivers/USB/Class/Common/HIDParser.c **** 				CurrStateTable->Attributes.Unit.Exponent    = ReportItemData;
 118:LUFA-111009/LUFA/Drivers/USB/Class/Common/HIDParser.c **** 				break;
 119:LUFA-111009/LUFA/Drivers/USB/Class/Common/HIDParser.c **** 			case HID_RI_UNIT(0):
 120:LUFA-111009/LUFA/Drivers/USB/Class/Common/HIDParser.c **** 				CurrStateTable->Attributes.Unit.Type        = ReportItemData;
 121:LUFA-111009/LUFA/Drivers/USB/Class/Common/HIDParser.c **** 				break;
 122:LUFA-111009/LUFA/Drivers/USB/Class/Common/HIDParser.c **** 			case HID_RI_REPORT_SIZE(0):
 123:LUFA-111009/LUFA/Drivers/USB/Class/Common/HIDParser.c **** 				CurrStateTable->Attributes.BitSize          = ReportItemData;
 124:LUFA-111009/LUFA/Drivers/USB/Class/Common/HIDParser.c **** 				break;
 125:LUFA-111009/LUFA/Drivers/USB/Class/Common/HIDParser.c **** 			case HID_RI_REPORT_COUNT(0):
 126:LUFA-111009/LUFA/Drivers/USB/Class/Common/HIDParser.c **** 				CurrStateTable->ReportCount                 = ReportItemData;
 127:LUFA-111009/LUFA/Drivers/USB/Class/Common/HIDParser.c **** 				break;
 128:LUFA-111009/LUFA/Drivers/USB/Class/Common/HIDParser.c **** 			case HID_RI_REPORT_ID(0):
 129:LUFA-111009/LUFA/Drivers/USB/Class/Common/HIDParser.c **** 				CurrStateTable->ReportID                    = ReportItemData;
 130:LUFA-111009/LUFA/Drivers/USB/Class/Common/HIDParser.c **** 
 131:LUFA-111009/LUFA/Drivers/USB/Class/Common/HIDParser.c **** 				if (ParserData->UsingReportIDs)
 132:LUFA-111009/LUFA/Drivers/USB/Class/Common/HIDParser.c **** 				{
 133:LUFA-111009/LUFA/Drivers/USB/Class/Common/HIDParser.c **** 					CurrReportIDInfo = NULL;
 134:LUFA-111009/LUFA/Drivers/USB/Class/Common/HIDParser.c **** 
 135:LUFA-111009/LUFA/Drivers/USB/Class/Common/HIDParser.c **** 					for (uint8_t i = 0; i < ParserData->TotalDeviceReports; i++)
 136:LUFA-111009/LUFA/Drivers/USB/Class/Common/HIDParser.c **** 					{
 137:LUFA-111009/LUFA/Drivers/USB/Class/Common/HIDParser.c **** 						if (ParserData->ReportIDSizes[i].ReportID == CurrStateTable->ReportID)
 138:LUFA-111009/LUFA/Drivers/USB/Class/Common/HIDParser.c **** 						{
 139:LUFA-111009/LUFA/Drivers/USB/Class/Common/HIDParser.c **** 							CurrReportIDInfo = &ParserData->ReportIDSizes[i];
 140:LUFA-111009/LUFA/Drivers/USB/Class/Common/HIDParser.c **** 							break;
 141:LUFA-111009/LUFA/Drivers/USB/Class/Common/HIDParser.c **** 						}
 142:LUFA-111009/LUFA/Drivers/USB/Class/Common/HIDParser.c **** 					}
 143:LUFA-111009/LUFA/Drivers/USB/Class/Common/HIDParser.c **** 
 144:LUFA-111009/LUFA/Drivers/USB/Class/Common/HIDParser.c **** 					if (CurrReportIDInfo == NULL)
 145:LUFA-111009/LUFA/Drivers/USB/Class/Common/HIDParser.c **** 					{
 146:LUFA-111009/LUFA/Drivers/USB/Class/Common/HIDParser.c **** 						if (ParserData->TotalDeviceReports == HID_MAX_REPORT_IDS)
 147:LUFA-111009/LUFA/Drivers/USB/Class/Common/HIDParser.c **** 						  return HID_PARSE_InsufficientReportIDItems;
 148:LUFA-111009/LUFA/Drivers/USB/Class/Common/HIDParser.c **** 
 149:LUFA-111009/LUFA/Drivers/USB/Class/Common/HIDParser.c **** 						CurrReportIDInfo = &ParserData->ReportIDSizes[ParserData->TotalDeviceReports++];
 150:LUFA-111009/LUFA/Drivers/USB/Class/Common/HIDParser.c **** 						memset(CurrReportIDInfo, 0x00, sizeof(HID_ReportSizeInfo_t));
 151:LUFA-111009/LUFA/Drivers/USB/Class/Common/HIDParser.c **** 					}
 152:LUFA-111009/LUFA/Drivers/USB/Class/Common/HIDParser.c **** 				}
 153:LUFA-111009/LUFA/Drivers/USB/Class/Common/HIDParser.c **** 
 154:LUFA-111009/LUFA/Drivers/USB/Class/Common/HIDParser.c **** 				ParserData->UsingReportIDs = true;
 155:LUFA-111009/LUFA/Drivers/USB/Class/Common/HIDParser.c **** 
 156:LUFA-111009/LUFA/Drivers/USB/Class/Common/HIDParser.c **** 				CurrReportIDInfo->ReportID = CurrStateTable->ReportID;
 157:LUFA-111009/LUFA/Drivers/USB/Class/Common/HIDParser.c **** 				break;
 158:LUFA-111009/LUFA/Drivers/USB/Class/Common/HIDParser.c **** 			case HID_RI_USAGE(0):
 159:LUFA-111009/LUFA/Drivers/USB/Class/Common/HIDParser.c **** 				if (UsageListSize == HID_USAGE_STACK_DEPTH)
 160:LUFA-111009/LUFA/Drivers/USB/Class/Common/HIDParser.c **** 				  return HID_PARSE_UsageListOverflow;
 161:LUFA-111009/LUFA/Drivers/USB/Class/Common/HIDParser.c **** 
 162:LUFA-111009/LUFA/Drivers/USB/Class/Common/HIDParser.c **** 				UsageList[UsageListSize++] = ReportItemData;
 163:LUFA-111009/LUFA/Drivers/USB/Class/Common/HIDParser.c **** 				break;
 164:LUFA-111009/LUFA/Drivers/USB/Class/Common/HIDParser.c **** 			case HID_RI_USAGE_MINIMUM(0):
 165:LUFA-111009/LUFA/Drivers/USB/Class/Common/HIDParser.c **** 				UsageMinMax.Minimum = ReportItemData;
 166:LUFA-111009/LUFA/Drivers/USB/Class/Common/HIDParser.c **** 				break;
 167:LUFA-111009/LUFA/Drivers/USB/Class/Common/HIDParser.c **** 			case HID_RI_USAGE_MAXIMUM(0):
 168:LUFA-111009/LUFA/Drivers/USB/Class/Common/HIDParser.c **** 				UsageMinMax.Maximum = ReportItemData;
 169:LUFA-111009/LUFA/Drivers/USB/Class/Common/HIDParser.c **** 				break;
 170:LUFA-111009/LUFA/Drivers/USB/Class/Common/HIDParser.c **** 			case HID_RI_COLLECTION(0):
 171:LUFA-111009/LUFA/Drivers/USB/Class/Common/HIDParser.c **** 				if (CurrCollectionPath == NULL)
 172:LUFA-111009/LUFA/Drivers/USB/Class/Common/HIDParser.c **** 				{
 173:LUFA-111009/LUFA/Drivers/USB/Class/Common/HIDParser.c **** 					CurrCollectionPath = &ParserData->CollectionPaths[0];
 174:LUFA-111009/LUFA/Drivers/USB/Class/Common/HIDParser.c **** 				}
 175:LUFA-111009/LUFA/Drivers/USB/Class/Common/HIDParser.c **** 				else
 176:LUFA-111009/LUFA/Drivers/USB/Class/Common/HIDParser.c **** 				{
 177:LUFA-111009/LUFA/Drivers/USB/Class/Common/HIDParser.c **** 					HID_CollectionPath_t* ParentCollectionPath = CurrCollectionPath;
 178:LUFA-111009/LUFA/Drivers/USB/Class/Common/HIDParser.c **** 
 179:LUFA-111009/LUFA/Drivers/USB/Class/Common/HIDParser.c **** 					CurrCollectionPath = &ParserData->CollectionPaths[1];
 180:LUFA-111009/LUFA/Drivers/USB/Class/Common/HIDParser.c **** 
 181:LUFA-111009/LUFA/Drivers/USB/Class/Common/HIDParser.c **** 					while (CurrCollectionPath->Parent != NULL)
 182:LUFA-111009/LUFA/Drivers/USB/Class/Common/HIDParser.c **** 					{
 183:LUFA-111009/LUFA/Drivers/USB/Class/Common/HIDParser.c **** 						if (CurrCollectionPath == &ParserData->CollectionPaths[HID_MAX_COLLECTIONS - 1])
 184:LUFA-111009/LUFA/Drivers/USB/Class/Common/HIDParser.c **** 						  return HID_PARSE_InsufficientCollectionPaths;
 185:LUFA-111009/LUFA/Drivers/USB/Class/Common/HIDParser.c **** 
 186:LUFA-111009/LUFA/Drivers/USB/Class/Common/HIDParser.c **** 						CurrCollectionPath++;
 187:LUFA-111009/LUFA/Drivers/USB/Class/Common/HIDParser.c **** 					}
 188:LUFA-111009/LUFA/Drivers/USB/Class/Common/HIDParser.c **** 
 189:LUFA-111009/LUFA/Drivers/USB/Class/Common/HIDParser.c **** 					CurrCollectionPath->Parent = ParentCollectionPath;
 190:LUFA-111009/LUFA/Drivers/USB/Class/Common/HIDParser.c **** 				}
 191:LUFA-111009/LUFA/Drivers/USB/Class/Common/HIDParser.c **** 
 192:LUFA-111009/LUFA/Drivers/USB/Class/Common/HIDParser.c **** 				CurrCollectionPath->Type       = ReportItemData;
 193:LUFA-111009/LUFA/Drivers/USB/Class/Common/HIDParser.c **** 				CurrCollectionPath->Usage.Page = CurrStateTable->Attributes.Usage.Page;
 194:LUFA-111009/LUFA/Drivers/USB/Class/Common/HIDParser.c **** 
 195:LUFA-111009/LUFA/Drivers/USB/Class/Common/HIDParser.c **** 				if (UsageListSize)
 196:LUFA-111009/LUFA/Drivers/USB/Class/Common/HIDParser.c **** 				{
 197:LUFA-111009/LUFA/Drivers/USB/Class/Common/HIDParser.c **** 					CurrCollectionPath->Usage.Usage = UsageList[0];
 198:LUFA-111009/LUFA/Drivers/USB/Class/Common/HIDParser.c **** 
 199:LUFA-111009/LUFA/Drivers/USB/Class/Common/HIDParser.c **** 					for (uint8_t i = 0; i < UsageListSize; i++)
 200:LUFA-111009/LUFA/Drivers/USB/Class/Common/HIDParser.c **** 					  UsageList[i] = UsageList[i + 1];
 201:LUFA-111009/LUFA/Drivers/USB/Class/Common/HIDParser.c **** 
 202:LUFA-111009/LUFA/Drivers/USB/Class/Common/HIDParser.c **** 					UsageListSize--;
 203:LUFA-111009/LUFA/Drivers/USB/Class/Common/HIDParser.c **** 				}
 204:LUFA-111009/LUFA/Drivers/USB/Class/Common/HIDParser.c **** 				else if (UsageMinMax.Minimum <= UsageMinMax.Maximum)
 205:LUFA-111009/LUFA/Drivers/USB/Class/Common/HIDParser.c **** 				{
 206:LUFA-111009/LUFA/Drivers/USB/Class/Common/HIDParser.c **** 					CurrCollectionPath->Usage.Usage = UsageMinMax.Minimum++;
 207:LUFA-111009/LUFA/Drivers/USB/Class/Common/HIDParser.c **** 				}
 208:LUFA-111009/LUFA/Drivers/USB/Class/Common/HIDParser.c **** 
 209:LUFA-111009/LUFA/Drivers/USB/Class/Common/HIDParser.c **** 				break;
 210:LUFA-111009/LUFA/Drivers/USB/Class/Common/HIDParser.c **** 			case HID_RI_END_COLLECTION(0):
 211:LUFA-111009/LUFA/Drivers/USB/Class/Common/HIDParser.c **** 				if (CurrCollectionPath == NULL)
 212:LUFA-111009/LUFA/Drivers/USB/Class/Common/HIDParser.c **** 				  return HID_PARSE_UnexpectedEndCollection;
 213:LUFA-111009/LUFA/Drivers/USB/Class/Common/HIDParser.c **** 
 214:LUFA-111009/LUFA/Drivers/USB/Class/Common/HIDParser.c **** 				CurrCollectionPath = CurrCollectionPath->Parent;
 215:LUFA-111009/LUFA/Drivers/USB/Class/Common/HIDParser.c **** 				break;
 216:LUFA-111009/LUFA/Drivers/USB/Class/Common/HIDParser.c **** 			case HID_RI_INPUT(0):
 217:LUFA-111009/LUFA/Drivers/USB/Class/Common/HIDParser.c **** 			case HID_RI_OUTPUT(0):
 218:LUFA-111009/LUFA/Drivers/USB/Class/Common/HIDParser.c **** 			case HID_RI_FEATURE(0):
 219:LUFA-111009/LUFA/Drivers/USB/Class/Common/HIDParser.c **** 				for (uint8_t ReportItemNum = 0; ReportItemNum < CurrStateTable->ReportCount; ReportItemNum++)
 220:LUFA-111009/LUFA/Drivers/USB/Class/Common/HIDParser.c **** 				{
 221:LUFA-111009/LUFA/Drivers/USB/Class/Common/HIDParser.c **** 					HID_ReportItem_t NewReportItem;
 222:LUFA-111009/LUFA/Drivers/USB/Class/Common/HIDParser.c **** 
 223:LUFA-111009/LUFA/Drivers/USB/Class/Common/HIDParser.c **** 					memcpy(&NewReportItem.Attributes,
 224:LUFA-111009/LUFA/Drivers/USB/Class/Common/HIDParser.c **** 					       &CurrStateTable->Attributes,
 225:LUFA-111009/LUFA/Drivers/USB/Class/Common/HIDParser.c **** 					       sizeof(HID_ReportItem_Attributes_t));
 226:LUFA-111009/LUFA/Drivers/USB/Class/Common/HIDParser.c **** 
 227:LUFA-111009/LUFA/Drivers/USB/Class/Common/HIDParser.c **** 					NewReportItem.ItemFlags      = ReportItemData;
 228:LUFA-111009/LUFA/Drivers/USB/Class/Common/HIDParser.c **** 					NewReportItem.CollectionPath = CurrCollectionPath;
 229:LUFA-111009/LUFA/Drivers/USB/Class/Common/HIDParser.c **** 					NewReportItem.ReportID       = CurrStateTable->ReportID;
 230:LUFA-111009/LUFA/Drivers/USB/Class/Common/HIDParser.c **** 
 231:LUFA-111009/LUFA/Drivers/USB/Class/Common/HIDParser.c **** 					if (UsageListSize)
 232:LUFA-111009/LUFA/Drivers/USB/Class/Common/HIDParser.c **** 					{
 233:LUFA-111009/LUFA/Drivers/USB/Class/Common/HIDParser.c **** 						NewReportItem.Attributes.Usage.Usage = UsageList[0];
 234:LUFA-111009/LUFA/Drivers/USB/Class/Common/HIDParser.c **** 
 235:LUFA-111009/LUFA/Drivers/USB/Class/Common/HIDParser.c **** 						for (uint8_t i = 0; i < UsageListSize; i++)
 236:LUFA-111009/LUFA/Drivers/USB/Class/Common/HIDParser.c **** 						  UsageList[i] = UsageList[i + 1];
 237:LUFA-111009/LUFA/Drivers/USB/Class/Common/HIDParser.c **** 
 238:LUFA-111009/LUFA/Drivers/USB/Class/Common/HIDParser.c **** 						UsageListSize--;
 239:LUFA-111009/LUFA/Drivers/USB/Class/Common/HIDParser.c **** 					}
 240:LUFA-111009/LUFA/Drivers/USB/Class/Common/HIDParser.c **** 					else if (UsageMinMax.Minimum <= UsageMinMax.Maximum)
 241:LUFA-111009/LUFA/Drivers/USB/Class/Common/HIDParser.c **** 					{
 242:LUFA-111009/LUFA/Drivers/USB/Class/Common/HIDParser.c **** 						NewReportItem.Attributes.Usage.Usage = UsageMinMax.Minimum++;
 243:LUFA-111009/LUFA/Drivers/USB/Class/Common/HIDParser.c **** 					}
 244:LUFA-111009/LUFA/Drivers/USB/Class/Common/HIDParser.c **** 
 245:LUFA-111009/LUFA/Drivers/USB/Class/Common/HIDParser.c **** 					uint8_t ItemTypeTag = (HIDReportItem & (HID_RI_TYPE_MASK | HID_RI_TAG_MASK));
 246:LUFA-111009/LUFA/Drivers/USB/Class/Common/HIDParser.c **** 
 247:LUFA-111009/LUFA/Drivers/USB/Class/Common/HIDParser.c **** 					if (ItemTypeTag == HID_RI_INPUT(0))
 248:LUFA-111009/LUFA/Drivers/USB/Class/Common/HIDParser.c **** 					  NewReportItem.ItemType = HID_REPORT_ITEM_In;
 249:LUFA-111009/LUFA/Drivers/USB/Class/Common/HIDParser.c **** 					else if (ItemTypeTag == HID_RI_OUTPUT(0))
 250:LUFA-111009/LUFA/Drivers/USB/Class/Common/HIDParser.c **** 					  NewReportItem.ItemType = HID_REPORT_ITEM_Out;
 251:LUFA-111009/LUFA/Drivers/USB/Class/Common/HIDParser.c **** 					else
 252:LUFA-111009/LUFA/Drivers/USB/Class/Common/HIDParser.c **** 					  NewReportItem.ItemType = HID_REPORT_ITEM_Feature;
 253:LUFA-111009/LUFA/Drivers/USB/Class/Common/HIDParser.c **** 
 254:LUFA-111009/LUFA/Drivers/USB/Class/Common/HIDParser.c **** 					NewReportItem.BitOffset = CurrReportIDInfo->ReportSizeBits[NewReportItem.ItemType];
 255:LUFA-111009/LUFA/Drivers/USB/Class/Common/HIDParser.c **** 
 256:LUFA-111009/LUFA/Drivers/USB/Class/Common/HIDParser.c **** 					CurrReportIDInfo->ReportSizeBits[NewReportItem.ItemType] += CurrStateTable->Attributes.BitSize
 257:LUFA-111009/LUFA/Drivers/USB/Class/Common/HIDParser.c **** 
 258:LUFA-111009/LUFA/Drivers/USB/Class/Common/HIDParser.c **** 					ParserData->LargestReportSizeBits = MAX(ParserData->LargestReportSizeBits, CurrReportIDInfo->R
 173               		.loc 1 258 0
 174 0094 9A01      		movw r18,r20
 175 0096 2A52      		subi r18,42
 176 0098 3C4F      		sbci r19,-4
 177 009a EB96      		adiw r28,121-62
 178 009c 3FAF      		std Y+63,r19
 179 009e 2EAF      		std Y+62,r18
 180 00a0 EB97      		sbiw r28,121-62
 181               	.LBE4:
 182               	.LBE3:
 183               	.LBB8:
 179:LUFA-111009/LUFA/Drivers/USB/Class/Common/HIDParser.c **** 					CurrCollectionPath = &ParserData->CollectionPaths[1];
 184               		.loc 1 179 0
 185 00a2 9A01      		movw r18,r20
 186 00a4 205B      		subi r18,-80
 187 00a6 3C4F      		sbci r19,-4
 188 00a8 C158      		subi r28,lo8(-127)
 189 00aa DF4F      		sbci r29,hi8(-127)
 190 00ac 3983      		std Y+1,r19
 191 00ae 2883      		st Y,r18
 192 00b0 CF57      		subi r28,lo8(127)
 193 00b2 D040      		sbci r29,hi8(127)
 183:LUFA-111009/LUFA/Drivers/USB/Class/Common/HIDParser.c **** 						if (CurrCollectionPath == &ParserData->CollectionPaths[HID_MAX_COLLECTIONS - 1])
 194               		.loc 1 183 0
 195 00b4 9A01      		movw r18,r20
 196 00b6 2857      		subi r18,120
 197 00b8 3C4F      		sbci r19,-4
 198 00ba CF57      		subi r28,lo8(-129)
 199 00bc DF4F      		sbci r29,hi8(-129)
 200 00be 3983      		std Y+1,r19
 201 00c0 2883      		st Y,r18
 202 00c2 C158      		subi r28,lo8(129)
 203 00c4 D040      		sbci r29,hi8(129)
 204               	.LBE8:
 205               	.LBE2:
  53:LUFA-111009/LUFA/Drivers/USB/Class/Common/HIDParser.c **** 	while (ReportSize)
 206               		.loc 1 53 0
 207 00c6 00C0      		rjmp .L88
 208               	.LVL4:
 209               	.L58:
 210               	.LBB15:
  55:LUFA-111009/LUFA/Drivers/USB/Class/Common/HIDParser.c **** 		uint8_t  HIDReportItem  = *ReportData;
 211               		.loc 1 55 0
 212 00c8 D401      		movw r26,r8
 213 00ca BC91      		ld r27,X
 214 00cc E996      		adiw r28,120-63
 215 00ce BFAF      		std Y+63,r27
 216 00d0 E997      		sbiw r28,120-63
 217               	.LVL5:
  59:LUFA-111009/LUFA/Drivers/USB/Class/Common/HIDParser.c **** 		ReportSize--;
 218               		.loc 1 59 0
 219 00d2 E1E0      		ldi r30,1
 220 00d4 4E1A      		sub r4,r30
 221 00d6 5108      		sbc r5,__zero_reg__
 222               	.LVL6:
  61:LUFA-111009/LUFA/Drivers/USB/Class/Common/HIDParser.c **** 		switch (HIDReportItem & HID_RI_DATA_SIZE_MASK)
 223               		.loc 1 61 0
 224 00d8 8B2F      		mov r24,r27
 225 00da 8370      		andi r24,lo8(3)
 226 00dc 8230      		cpi r24,lo8(2)
 227 00de 01F0      		breq .L5
 228               	.LVL7:
 229 00e0 8330      		cpi r24,lo8(3)
 230 00e2 01F0      		breq .L6
 231 00e4 8130      		cpi r24,lo8(1)
 232 00e6 01F0      		breq .L4
  58:LUFA-111009/LUFA/Drivers/USB/Class/Common/HIDParser.c **** 		ReportData++;
 233               		.loc 1 58 0
 234 00e8 FFEF      		ldi r31,-1
 235 00ea 8F1A      		sub r8,r31
 236 00ec 9F0A      		sbc r9,r31
 237               	.LVL8:
  56:LUFA-111009/LUFA/Drivers/USB/Class/Common/HIDParser.c **** 		uint32_t ReportItemData = 0;
 238               		.loc 1 56 0
 239 00ee 40E0      		ldi r20,0
 240 00f0 50E0      		ldi r21,0
 241 00f2 BA01      		movw r22,r20
 242 00f4 00C0      		rjmp .L7
 243               	.LVL9:
 244               	.L6:
  64:LUFA-111009/LUFA/Drivers/USB/Class/Common/HIDParser.c **** 				ReportItemData  = le32_to_cpu(*((uint32_t*)ReportData));
 245               		.loc 1 64 0
 246 00f6 D401      		movw r26,r8
 247 00f8 1196      		adiw r26,1
 248 00fa 4D91      		ld r20,X+
 249 00fc 5D91      		ld r21,X+
 250 00fe 6D91      		ld r22,X+
 251 0100 7C91      		ld r23,X
 252 0102 1497      		sbiw r26,1+3
 253               	.LVL10:
  65:LUFA-111009/LUFA/Drivers/USB/Class/Common/HIDParser.c **** 				ReportSize     -= 4;
 254               		.loc 1 65 0
 255 0104 B4E0      		ldi r27,4
 256 0106 4B1A      		sub r4,r27
 257 0108 5108      		sbc r5,__zero_reg__
 258               	.LVL11:
  66:LUFA-111009/LUFA/Drivers/USB/Class/Common/HIDParser.c **** 				ReportData     += 4;
 259               		.loc 1 66 0
 260 010a E5E0      		ldi r30,5
 261 010c 8E0E      		add r8,r30
 262 010e 911C      		adc r9,__zero_reg__
 263               	.LVL12:
  67:LUFA-111009/LUFA/Drivers/USB/Class/Common/HIDParser.c **** 				break;
 264               		.loc 1 67 0
 265 0110 00C0      		rjmp .L7
 266               	.LVL13:
 267               	.L5:
  69:LUFA-111009/LUFA/Drivers/USB/Class/Common/HIDParser.c **** 				ReportItemData  = le16_to_cpu(*((uint16_t*)ReportData));
 268               		.loc 1 69 0
 269 0112 D401      		movw r26,r8
 270 0114 1196      		adiw r26,1
 271 0116 4D91      		ld r20,X+
 272 0118 5C91      		ld r21,X
 273 011a 1297      		sbiw r26,1+1
 274 011c 60E0      		ldi r22,0
 275 011e 70E0      		ldi r23,0
 276               	.LVL14:
  70:LUFA-111009/LUFA/Drivers/USB/Class/Common/HIDParser.c **** 				ReportSize     -= 2;
 277               		.loc 1 70 0
 278 0120 B2E0      		ldi r27,2
 279 0122 4B1A      		sub r4,r27
 280 0124 5108      		sbc r5,__zero_reg__
 281               	.LVL15:
  71:LUFA-111009/LUFA/Drivers/USB/Class/Common/HIDParser.c **** 				ReportData     += 2;
 282               		.loc 1 71 0
 283 0126 E3E0      		ldi r30,3
 284 0128 8E0E      		add r8,r30
 285 012a 911C      		adc r9,__zero_reg__
 286               	.LVL16:
  72:LUFA-111009/LUFA/Drivers/USB/Class/Common/HIDParser.c **** 				break;
 287               		.loc 1 72 0
 288 012c 00C0      		rjmp .L7
 289               	.LVL17:
 290               	.L4:
  74:LUFA-111009/LUFA/Drivers/USB/Class/Common/HIDParser.c **** 				ReportItemData  = *((uint8_t*)ReportData);
 291               		.loc 1 74 0
 292 012e D401      		movw r26,r8
 293 0130 1196      		adiw r26, 1
 294 0132 4C91      		ld r20,X
 295 0134 50E0      		ldi r21,0
 296 0136 60E0      		ldi r22,0
 297 0138 70E0      		ldi r23,0
 298               	.LVL18:
  75:LUFA-111009/LUFA/Drivers/USB/Class/Common/HIDParser.c **** 				ReportSize     -= 1;
 299               		.loc 1 75 0
 300 013a B1E0      		ldi r27,1
 301 013c 4B1A      		sub r4,r27
 302 013e 5108      		sbc r5,__zero_reg__
 303               	.LVL19:
  76:LUFA-111009/LUFA/Drivers/USB/Class/Common/HIDParser.c **** 				ReportData     += 1;
 304               		.loc 1 76 0
 305 0140 E2E0      		ldi r30,2
 306 0142 8E0E      		add r8,r30
 307 0144 911C      		adc r9,__zero_reg__
 308               	.LVL20:
 309               	.L7:
  80:LUFA-111009/LUFA/Drivers/USB/Class/Common/HIDParser.c **** 		switch (HIDReportItem & (HID_RI_TYPE_MASK | HID_RI_TAG_MASK))
 310               		.loc 1 80 0
 311 0146 E996      		adiw r28,120-63
 312 0148 2FAD      		ldd r18,Y+63
 313 014a E997      		sbiw r28,120-63
 314 014c 2C7F      		andi r18,lo8(-4)
 315 014e 2436      		cpi r18,lo8(100)
 316 0150 01F4      		brne .+2
 317 0152 00C0      		rjmp .L18
 318 0154 00F4      		brsh .L27
 319 0156 2432      		cpi r18,lo8(36)
 320 0158 01F4      		brne .+2
 321 015a 00C0      		rjmp .L13
 322 015c 00F4      		brsh .L28
 323 015e 2830      		cpi r18,lo8(8)
 324 0160 01F4      		brne .+2
 325 0162 00C0      		rjmp .L10
 326 0164 00F4      		brsh .L29
 327 0166 2430      		cpi r18,lo8(4)
 328 0168 01F0      		breq .+2
 329 016a 00C0      		rjmp .L12
 330 016c 00C0      		rjmp .L9
 331               	.L29:
 332 016e 2431      		cpi r18,lo8(20)
 333 0170 01F4      		brne .+2
 334 0172 00C0      		rjmp .L11
 335 0174 2831      		cpi r18,lo8(24)
 336 0176 01F0      		breq .+2
 337 0178 00C0      		rjmp .L12
 338 017a 00C0      		rjmp .L60
 339               	.L28:
 340 017c 2433      		cpi r18,lo8(52)
 341 017e 01F4      		brne .+2
 342 0180 00C0      		rjmp .L15
 343 0182 00F4      		brsh .L30
 344 0184 2832      		cpi r18,lo8(40)
 345 0186 01F0      		breq .+2
 346 0188 00C0      		rjmp .L12
 347 018a 00C0      		rjmp .L14
 348               	.L30:
 349 018c 2434      		cpi r18,lo8(68)
 350 018e 01F4      		brne .+2
 351 0190 00C0      		rjmp .L16
 352 0192 2435      		cpi r18,lo8(84)
 353 0194 01F0      		breq .+2
 354 0196 00C0      		rjmp .L12
 355 0198 00C0      		rjmp .L17
 356               	.L27:
 357 019a 2439      		cpi r18,lo8(-108)
 358 019c 01F4      		brne .+2
 359 019e 00C0      		rjmp .L22
 360 01a0 00F4      		brsh .L31
 361 01a2 2038      		cpi r18,lo8(-128)
 362 01a4 01F4      		brne .+2
 363 01a6 00C0      		rjmp .L61
 364 01a8 00F4      		brsh .L32
 365 01aa 2437      		cpi r18,lo8(116)
 366 01ac 01F0      		breq .+2
 367 01ae 00C0      		rjmp .L12
 368 01b0 00C0      		rjmp .L19
 369               	.L32:
 370 01b2 2438      		cpi r18,lo8(-124)
 371 01b4 01F4      		brne .+2
 372 01b6 00C0      		rjmp .L21
 373 01b8 2039      		cpi r18,lo8(-112)
 374 01ba 01F0      		breq .+2
 375 01bc 00C0      		rjmp .L12
 376 01be 00C0      		rjmp .L61
 377               	.L31:
 378 01c0 203B      		cpi r18,lo8(-80)
 379 01c2 01F4      		brne .+2
 380 01c4 00C0      		rjmp .L61
 381 01c6 00F4      		brsh .L33
 382 01c8 203A      		cpi r18,lo8(-96)
 383 01ca 01F4      		brne .+2
 384 01cc 00C0      		rjmp .L23
 385 01ce 243A      		cpi r18,lo8(-92)
 386 01d0 01F0      		breq .+2
 387 01d2 00C0      		rjmp .L12
 388 01d4 00C0      		rjmp .L24
 389               	.L33:
 390 01d6 243B      		cpi r18,lo8(-76)
 391 01d8 01F0      		breq .L25
 392 01da 203C      		cpi r18,lo8(-64)
 393 01dc 01F0      		breq .+2
 394 01de 00C0      		rjmp .L12
 395 01e0 00C0      		rjmp .L26
 396               	.L24:
  83:LUFA-111009/LUFA/Drivers/USB/Class/Common/HIDParser.c **** 				if (CurrStateTable == &StateTable[HID_STATETABLE_STACK_DEPTH - 1])
 397               		.loc 1 83 0
 398 01e2 CE01      		movw r24,r28
 399 01e4 4D96      		adiw r24,29
 400 01e6 0817      		cp r16,r24
 401 01e8 1907      		cpc r17,r25
 402 01ea 01F4      		brne .+2
 403 01ec 00C0      		rjmp .L62
  86:LUFA-111009/LUFA/Drivers/USB/Class/Common/HIDParser.c **** 				memcpy((CurrStateTable + 1),
 404               		.loc 1 86 0
 405 01ee C801      		movw r24,r16
 406 01f0 4C96      		adiw r24,28
 407 01f2 2AE2      		ldi r18,lo8(42)
 408 01f4 F801      		movw r30,r16
 409 01f6 DC01      		movw r26,r24
 410               	.LVL21:
 411               		0:
 412 01f8 0190      		ld r0,Z+
 413 01fa 0D92      		st X+,r0
 414 01fc 2A95      		dec r18
 415 01fe 01F4      		brne 0b
 416               	.LVL22:
  90:LUFA-111009/LUFA/Drivers/USB/Class/Common/HIDParser.c **** 				CurrStateTable++;
 417               		.loc 1 90 0
 418 0200 8C01      		movw r16,r24
  91:LUFA-111009/LUFA/Drivers/USB/Class/Common/HIDParser.c **** 				break;
 419               		.loc 1 91 0
 420 0202 00C0      		rjmp .L12
 421               	.LVL23:
 422               	.L25:
  93:LUFA-111009/LUFA/Drivers/USB/Class/Common/HIDParser.c **** 				if (CurrStateTable == &StateTable[0])
 423               		.loc 1 93 0
 424 0204 CE01      		movw r24,r28
 425 0206 0196      		adiw r24,1
 426 0208 0817      		cp r16,r24
 427 020a 1907      		cpc r17,r25
 428 020c 01F4      		brne .+2
 429 020e 00C0      		rjmp .L63
  96:LUFA-111009/LUFA/Drivers/USB/Class/Common/HIDParser.c **** 				CurrStateTable--;
 430               		.loc 1 96 0
 431 0210 0C51      		subi r16,28
 432 0212 1109      		sbc r17,__zero_reg__
 433               	.LVL24:
  97:LUFA-111009/LUFA/Drivers/USB/Class/Common/HIDParser.c **** 				break;
 434               		.loc 1 97 0
 435 0214 00C0      		rjmp .L12
 436               	.L9:
 102:LUFA-111009/LUFA/Drivers/USB/Class/Common/HIDParser.c **** 				CurrStateTable->Attributes.Usage.Page       = ReportItemData;
 437               		.loc 1 102 0
 438 0216 D801      		movw r26,r16
 439 0218 1296      		adiw r26,1+1
 440 021a 5C93      		st X,r21
 441 021c 4E93      		st -X,r20
 442 021e 1197      		sbiw r26,1
 103:LUFA-111009/LUFA/Drivers/USB/Class/Common/HIDParser.c **** 				break;
 443               		.loc 1 103 0
 444 0220 00C0      		rjmp .L12
 445               	.L11:
 105:LUFA-111009/LUFA/Drivers/USB/Class/Common/HIDParser.c **** 				CurrStateTable->Attributes.Logical.Minimum  = ReportItemData;
 446               		.loc 1 105 0
 447 0222 F801      		movw r30,r16
 448 0224 4287      		std Z+10,r20
 449 0226 5387      		std Z+11,r21
 450 0228 6487      		std Z+12,r22
 451 022a 7587      		std Z+13,r23
 106:LUFA-111009/LUFA/Drivers/USB/Class/Common/HIDParser.c **** 				break;
 452               		.loc 1 106 0
 453 022c 00C0      		rjmp .L12
 454               	.L13:
 108:LUFA-111009/LUFA/Drivers/USB/Class/Common/HIDParser.c **** 				CurrStateTable->Attributes.Logical.Maximum  = ReportItemData;
 455               		.loc 1 108 0
 456 022e D801      		movw r26,r16
 457 0230 1E96      		adiw r26,14
 458 0232 4D93      		st X+,r20
 459 0234 5D93      		st X+,r21
 460 0236 6D93      		st X+,r22
 461 0238 7C93      		st X,r23
 462 023a 5197      		sbiw r26,14+3
 109:LUFA-111009/LUFA/Drivers/USB/Class/Common/HIDParser.c **** 				break;
 463               		.loc 1 109 0
 464 023c 00C0      		rjmp .L12
 465               	.L15:
 111:LUFA-111009/LUFA/Drivers/USB/Class/Common/HIDParser.c **** 				CurrStateTable->Attributes.Physical.Minimum = ReportItemData;
 466               		.loc 1 111 0
 467 023e F801      		movw r30,r16
 468 0240 428B      		std Z+18,r20
 469 0242 538B      		std Z+19,r21
 470 0244 648B      		std Z+20,r22
 471 0246 758B      		std Z+21,r23
 112:LUFA-111009/LUFA/Drivers/USB/Class/Common/HIDParser.c **** 				break;
 472               		.loc 1 112 0
 473 0248 00C0      		rjmp .L12
 474               	.L16:
 114:LUFA-111009/LUFA/Drivers/USB/Class/Common/HIDParser.c **** 				CurrStateTable->Attributes.Physical.Maximum = ReportItemData;
 475               		.loc 1 114 0
 476 024a D801      		movw r26,r16
 477 024c 5696      		adiw r26,22
 478 024e 4D93      		st X+,r20
 479 0250 5D93      		st X+,r21
 480 0252 6D93      		st X+,r22
 481 0254 7C93      		st X,r23
 482 0256 5997      		sbiw r26,22+3
 115:LUFA-111009/LUFA/Drivers/USB/Class/Common/HIDParser.c **** 				break;
 483               		.loc 1 115 0
 484 0258 00C0      		rjmp .L12
 485               	.L17:
 117:LUFA-111009/LUFA/Drivers/USB/Class/Common/HIDParser.c **** 				CurrStateTable->Attributes.Unit.Exponent    = ReportItemData;
 486               		.loc 1 117 0
 487 025a F801      		movw r30,r16
 488 025c 4187      		std Z+9,r20
 118:LUFA-111009/LUFA/Drivers/USB/Class/Common/HIDParser.c **** 				break;
 489               		.loc 1 118 0
 490 025e 00C0      		rjmp .L12
 491               	.L18:
 120:LUFA-111009/LUFA/Drivers/USB/Class/Common/HIDParser.c **** 				CurrStateTable->Attributes.Unit.Type        = ReportItemData;
 492               		.loc 1 120 0
 493 0260 D801      		movw r26,r16
 494 0262 1596      		adiw r26,5
 495 0264 4D93      		st X+,r20
 496 0266 5D93      		st X+,r21
 497 0268 6D93      		st X+,r22
 498 026a 7C93      		st X,r23
 499 026c 1897      		sbiw r26,5+3
 121:LUFA-111009/LUFA/Drivers/USB/Class/Common/HIDParser.c **** 				break;
 500               		.loc 1 121 0
 501 026e 00C0      		rjmp .L12
 502               	.L19:
 123:LUFA-111009/LUFA/Drivers/USB/Class/Common/HIDParser.c **** 				CurrStateTable->Attributes.BitSize          = ReportItemData;
 503               		.loc 1 123 0
 504 0270 F801      		movw r30,r16
 505 0272 4083      		st Z,r20
 124:LUFA-111009/LUFA/Drivers/USB/Class/Common/HIDParser.c **** 				break;
 506               		.loc 1 124 0
 507 0274 00C0      		rjmp .L12
 508               	.L22:
 126:LUFA-111009/LUFA/Drivers/USB/Class/Common/HIDParser.c **** 				CurrStateTable->ReportCount                 = ReportItemData;
 509               		.loc 1 126 0
 510 0276 D801      		movw r26,r16
 511 0278 5A96      		adiw r26,26
 512 027a 4C93      		st X,r20
 127:LUFA-111009/LUFA/Drivers/USB/Class/Common/HIDParser.c **** 				break;
 513               		.loc 1 127 0
 514 027c 00C0      		rjmp .L12
 515               	.L21:
 129:LUFA-111009/LUFA/Drivers/USB/Class/Common/HIDParser.c **** 				CurrStateTable->ReportID                    = ReportItemData;
 516               		.loc 1 129 0
 517 027e A42F      		mov r26,r20
 518 0280 F801      		movw r30,r16
 519 0282 438F      		std Z+27,r20
 131:LUFA-111009/LUFA/Drivers/USB/Class/Common/HIDParser.c **** 				if (ParserData->UsingReportIDs)
 520               		.loc 1 131 0
 521 0284 F501      		movw r30,r10
 522 0286 E852      		subi r30,40
 523 0288 FC4F      		sbci r31,-4
 524 028a 8081      		ld r24,Z
 525 028c 8823      		tst r24
 526 028e 01F0      		breq .L35
 527               	.LBB9:
 135:LUFA-111009/LUFA/Drivers/USB/Class/Common/HIDParser.c **** 					for (uint8_t i = 0; i < ParserData->TotalDeviceReports; i++)
 528               		.loc 1 135 0
 529 0290 F501      		movw r30,r10
 530 0292 E157      		subi r30,113
 531 0294 FC4F      		sbci r31,-4
 532 0296 6081      		ld r22,Z
 533 0298 9501      		movw r18,r10
 534 029a 80E0      		ldi r24,0
 535 029c 90E0      		ldi r25,0
 536 029e 00C0      		rjmp .L36
 537               	.LVL25:
 538               	.L37:
 137:LUFA-111009/LUFA/Drivers/USB/Class/Common/HIDParser.c **** 						if (ParserData->ReportIDSizes[i].ReportID == CurrStateTable->ReportID)
 539               		.loc 1 137 0
 540 02a0 AC01      		movw r20,r24
  35:LUFA-111009/LUFA/Drivers/USB/Class/Common/HIDParser.c **** uint8_t USB_ProcessHIDReport(const uint8_t* ReportData,
 541               		.loc 1 35 0
 542 02a2 F901      		movw r30,r18
 543 02a4 E057      		subi r30,112
 544 02a6 FC4F      		sbci r31,-4
 137:LUFA-111009/LUFA/Drivers/USB/Class/Common/HIDParser.c **** 						if (ParserData->ReportIDSizes[i].ReportID == CurrStateTable->ReportID)
 545               		.loc 1 137 0
 546 02a8 7081      		ld r23,Z
 547 02aa 0196      		adiw r24,1
 548 02ac 295F      		subi r18,-7
 549 02ae 3F4F      		sbci r19,-1
 550 02b0 7A13      		cpse r23,r26
 551 02b2 00C0      		rjmp .L36
 139:LUFA-111009/LUFA/Drivers/USB/Class/Common/HIDParser.c **** 							CurrReportIDInfo = &ParserData->ReportIDSizes[i];
 552               		.loc 1 139 0
 553 02b4 87E0      		ldi r24,lo8(7)
 554 02b6 849F      		mul r24,r20
 555 02b8 3001      		movw r6,r0
 556 02ba 859F      		mul r24,r21
 557 02bc 700C      		add r7,r0
 558 02be 1124      		clr __zero_reg__
 559               	.LVL26:
 560 02c0 F0E7      		ldi r31,112
 561 02c2 6F1A      		sub r6,r31
 562 02c4 FCEF      		ldi r31,-4
 563 02c6 7F0A      		sbc r7,r31
 564 02c8 6A0C      		add r6,r10
 565 02ca 7B1C      		adc r7,r11
 566               	.LVL27:
 567 02cc 00C0      		rjmp .L35
 568               	.L36:
 135:LUFA-111009/LUFA/Drivers/USB/Class/Common/HIDParser.c **** 					for (uint8_t i = 0; i < ParserData->TotalDeviceReports; i++)
 569               		.loc 1 135 0 discriminator 1
 570 02ce 8617      		cp r24,r22
 571 02d0 00F0      		brlo .L37
 572 02d2 00C0      		rjmp .L89
 573               	.LVL28:
 574               	.L91:
 575               	.LBE9:
 149:LUFA-111009/LUFA/Drivers/USB/Class/Common/HIDParser.c **** 						CurrReportIDInfo = &ParserData->ReportIDSizes[ParserData->TotalDeviceReports++];
 576               		.loc 1 149 0
 577 02d4 87E0      		ldi r24,lo8(7)
 578 02d6 3501      		movw r6,r10
 579 02d8 869F      		mul r24,r22
 580 02da 600C      		add r6,r0
 581 02dc 711C      		adc r7,r1
 582 02de 1124      		clr __zero_reg__
 583 02e0 20E7      		ldi r18,112
 584 02e2 621A      		sub r6,r18
 585 02e4 2CEF      		ldi r18,-4
 586 02e6 720A      		sbc r7,r18
 587               	.LVL29:
 588 02e8 F501      		movw r30,r10
 589 02ea E157      		subi r30,113
 590 02ec FC4F      		sbci r31,-4
 591 02ee 6F5F      		subi r22,lo8(-(1))
 592 02f0 6083      		st Z,r22
 150:LUFA-111009/LUFA/Drivers/USB/Class/Common/HIDParser.c **** 						memset(CurrReportIDInfo, 0x00, sizeof(HID_ReportSizeInfo_t));
 593               		.loc 1 150 0
 594 02f2 D301      		movw r26,r6
 595               		0:
 596 02f4 1D92      		st X+,__zero_reg__
 597 02f6 8A95      		dec r24
 598 02f8 01F4      		brne 0b
 599               	.L35:
 154:LUFA-111009/LUFA/Drivers/USB/Class/Common/HIDParser.c **** 				ParserData->UsingReportIDs = true;
 600               		.loc 1 154 0
 601 02fa F501      		movw r30,r10
 602 02fc E852      		subi r30,40
 603 02fe FC4F      		sbci r31,-4
 604 0300 81E0      		ldi r24,lo8(1)
 605 0302 8083      		st Z,r24
 156:LUFA-111009/LUFA/Drivers/USB/Class/Common/HIDParser.c **** 				CurrReportIDInfo->ReportID = CurrStateTable->ReportID;
 606               		.loc 1 156 0
 607 0304 F801      		movw r30,r16
 608 0306 838D      		ldd r24,Z+27
 609 0308 D301      		movw r26,r6
 610 030a 8C93      		st X,r24
 157:LUFA-111009/LUFA/Drivers/USB/Class/Common/HIDParser.c **** 				break;
 611               		.loc 1 157 0
 612 030c 00C0      		rjmp .L12
 613               	.LVL30:
 614               	.L10:
 159:LUFA-111009/LUFA/Drivers/USB/Class/Common/HIDParser.c **** 				if (UsageListSize == HID_USAGE_STACK_DEPTH)
 615               		.loc 1 159 0
 616 030e E496      		adiw r28,115-63
 617 0310 2FAD      		ldd r18,Y+63
 618 0312 E497      		sbiw r28,115-63
 619 0314 2830      		cpi r18,lo8(8)
 620 0316 01F4      		brne .+2
 621 0318 00C0      		rjmp .L64
 162:LUFA-111009/LUFA/Drivers/USB/Class/Common/HIDParser.c **** 				UsageList[UsageListSize++] = ReportItemData;
 622               		.loc 1 162 0
 623 031a FE01      		movw r30,r28
 624 031c ED59      		subi r30,-99
 625 031e FF4F      		sbci r31,-1
 626 0320 E20F      		add r30,r18
 627 0322 F11D      		adc r31,__zero_reg__
 628 0324 E20F      		add r30,r18
 629 0326 F11D      		adc r31,__zero_reg__
 630 0328 5183      		std Z+1,r21
 631 032a 4083      		st Z,r20
 632 032c 2F5F      		subi r18,lo8(-(1))
 633 032e E496      		adiw r28,115-63
 634 0330 2FAF      		std Y+63,r18
 635 0332 E497      		sbiw r28,115-63
 636               	.LVL31:
 163:LUFA-111009/LUFA/Drivers/USB/Class/Common/HIDParser.c **** 				break;
 637               		.loc 1 163 0
 638 0334 00C0      		rjmp .L12
 639               	.LVL32:
 640               	.L14:
 169:LUFA-111009/LUFA/Drivers/USB/Class/Common/HIDParser.c **** 				break;
 641               		.loc 1 169 0
 642 0336 E896      		adiw r28,116-60
 643 0338 4CAF      		std Y+60,r20
 644 033a 5DAF      		std Y+61,r21
 645 033c 6EAF      		std Y+62,r22
 646 033e 7FAF      		std Y+63,r23
 647 0340 E897      		sbiw r28,116-60
 648 0342 00C0      		rjmp .L12
 649               	.LVL33:
 650               	.L23:
 171:LUFA-111009/LUFA/Drivers/USB/Class/Common/HIDParser.c **** 				if (CurrCollectionPath == NULL)
 651               		.loc 1 171 0
 652 0344 2114      		cp r2,__zero_reg__
 653 0346 3104      		cpc r3,__zero_reg__
 654 0348 01F4      		brne .L39
 173:LUFA-111009/LUFA/Drivers/USB/Class/Common/HIDParser.c **** 					CurrCollectionPath = &ParserData->CollectionPaths[0];
 655               		.loc 1 173 0
 656 034a 1501      		movw r2,r10
 657               	.LVL34:
 658 034c 37EB      		ldi r19,-73
 659 034e 231A      		sub r2,r19
 660 0350 3CEF      		ldi r19,-4
 661 0352 330A      		sbc r3,r19
 662               	.LVL35:
 663 0354 00C0      		rjmp .L40
 664               	.L39:
 665               	.LVL36:
 666               	.LBB10:
 179:LUFA-111009/LUFA/Drivers/USB/Class/Common/HIDParser.c **** 					CurrCollectionPath = &ParserData->CollectionPaths[1];
 667               		.loc 1 179 0
 668 0356 C158      		subi r28,lo8(-127)
 669 0358 DF4F      		sbci r29,hi8(-127)
 670 035a E881      		ld r30,Y
 671 035c F981      		ldd r31,Y+1
 672 035e CF57      		subi r28,lo8(127)
 673 0360 D040      		sbci r29,hi8(127)
 674               	.LVL37:
 181:LUFA-111009/LUFA/Drivers/USB/Class/Common/HIDParser.c **** 					while (CurrCollectionPath->Parent != NULL)
 675               		.loc 1 181 0
 676 0362 00C0      		rjmp .L41
 677               	.L42:
 183:LUFA-111009/LUFA/Drivers/USB/Class/Common/HIDParser.c **** 						if (CurrCollectionPath == &ParserData->CollectionPaths[HID_MAX_COLLECTIONS - 1])
 678               		.loc 1 183 0
 679 0364 CF57      		subi r28,lo8(-129)
 680 0366 DF4F      		sbci r29,hi8(-129)
 681 0368 2881      		ld r18,Y
 682 036a 3981      		ldd r19,Y+1
 683 036c C158      		subi r28,lo8(129)
 684 036e D040      		sbci r29,hi8(129)
 685 0370 E217      		cp r30,r18
 686 0372 F307      		cpc r31,r19
 687 0374 01F4      		brne .+2
 688 0376 00C0      		rjmp .L65
 186:LUFA-111009/LUFA/Drivers/USB/Class/Common/HIDParser.c **** 						CurrCollectionPath++;
 689               		.loc 1 186 0
 690 0378 3796      		adiw r30,7
 691               	.LVL38:
 692               	.L41:
 181:LUFA-111009/LUFA/Drivers/USB/Class/Common/HIDParser.c **** 					while (CurrCollectionPath->Parent != NULL)
 693               		.loc 1 181 0 discriminator 1
 694 037a 8581      		ldd r24,Z+5
 695 037c 9681      		ldd r25,Z+6
 696 037e 892B      		or r24,r25
 697 0380 01F4      		brne .L42
 189:LUFA-111009/LUFA/Drivers/USB/Class/Common/HIDParser.c **** 					CurrCollectionPath->Parent = ParentCollectionPath;
 698               		.loc 1 189 0
 699 0382 3682      		std Z+6,r3
 700 0384 2582      		std Z+5,r2
 701 0386 1F01      		movw r2,r30
 702               	.LVL39:
 703               	.L40:
 704               	.LBE10:
 192:LUFA-111009/LUFA/Drivers/USB/Class/Common/HIDParser.c **** 				CurrCollectionPath->Type       = ReportItemData;
 705               		.loc 1 192 0
 706 0388 D101      		movw r26,r2
 707 038a 4C93      		st X,r20
 193:LUFA-111009/LUFA/Drivers/USB/Class/Common/HIDParser.c **** 				CurrCollectionPath->Usage.Page = CurrStateTable->Attributes.Usage.Page;
 708               		.loc 1 193 0
 709 038c F801      		movw r30,r16
 710 038e 8181      		ldd r24,Z+1
 711 0390 9281      		ldd r25,Z+2
 712 0392 1296      		adiw r26,1+1
 713 0394 9C93      		st X,r25
 714 0396 8E93      		st -X,r24
 715 0398 1197      		sbiw r26,1
 195:LUFA-111009/LUFA/Drivers/USB/Class/Common/HIDParser.c **** 				if (UsageListSize)
 716               		.loc 1 195 0
 717 039a E496      		adiw r28,115-63
 718 039c 2FAD      		ldd r18,Y+63
 719 039e E497      		sbiw r28,115-63
 720 03a0 2223      		tst r18
 721 03a2 01F0      		breq .L43
 197:LUFA-111009/LUFA/Drivers/USB/Class/Common/HIDParser.c **** 					CurrCollectionPath->Usage.Usage = UsageList[0];
 722               		.loc 1 197 0
 723 03a4 A596      		adiw r28,99-62
 724 03a6 8EAD      		ldd r24,Y+62
 725 03a8 9FAD      		ldd r25,Y+63
 726 03aa A597      		sbiw r28,99-62
 727 03ac 1496      		adiw r26,3+1
 728 03ae 9C93      		st X,r25
 729 03b0 8E93      		st -X,r24
 730 03b2 1397      		sbiw r26,3
 731               	.LVL40:
 732 03b4 FE01      		movw r30,r28
 733 03b6 ED59      		subi r30,-99
 734 03b8 FF4F      		sbci r31,-1
 199:LUFA-111009/LUFA/Drivers/USB/Class/Common/HIDParser.c **** 					for (uint8_t i = 0; i < UsageListSize; i++)
 735               		.loc 1 199 0
 736 03ba 20E0      		ldi r18,0
 737               	.LVL41:
 738               	.L44:
 739               	.LBB11:
 200:LUFA-111009/LUFA/Drivers/USB/Class/Common/HIDParser.c **** 					  UsageList[i] = UsageList[i + 1];
 740               		.loc 1 200 0 discriminator 2
 741 03bc 8281      		ldd r24,Z+2
 742 03be 9381      		ldd r25,Z+3
 743 03c0 8193      		st Z+,r24
 744 03c2 9193      		st Z+,r25
 199:LUFA-111009/LUFA/Drivers/USB/Class/Common/HIDParser.c **** 					for (uint8_t i = 0; i < UsageListSize; i++)
 745               		.loc 1 199 0 discriminator 2
 746 03c4 2F5F      		subi r18,lo8(-(1))
 747               	.LVL42:
 748 03c6 E496      		adiw r28,115-63
 749 03c8 3FAD      		ldd r19,Y+63
 750 03ca E497      		sbiw r28,115-63
 751 03cc 2313      		cpse r18,r19
 752 03ce 00C0      		rjmp .L44
 753               	.LBE11:
 202:LUFA-111009/LUFA/Drivers/USB/Class/Common/HIDParser.c **** 					UsageListSize--;
 754               		.loc 1 202 0
 755 03d0 3150      		subi r19,lo8(-(-1))
 756 03d2 E496      		adiw r28,115-63
 757 03d4 3FAF      		std Y+63,r19
 758 03d6 E497      		sbiw r28,115-63
 759               	.LVL43:
 760 03d8 00C0      		rjmp .L12
 761               	.LVL44:
 762               	.L43:
 204:LUFA-111009/LUFA/Drivers/USB/Class/Common/HIDParser.c **** 				else if (UsageMinMax.Minimum <= UsageMinMax.Maximum)
 763               		.loc 1 204 0
 764 03da E896      		adiw r28,116-60
 765 03dc 8CAD      		ldd r24,Y+60
 766 03de 9DAD      		ldd r25,Y+61
 767 03e0 AEAD      		ldd r26,Y+62
 768 03e2 BFAD      		ldd r27,Y+63
 769 03e4 E897      		sbiw r28,116-60
 770 03e6 8C15      		cp r24,r12
 771 03e8 9D05      		cpc r25,r13
 772 03ea AE05      		cpc r26,r14
 773 03ec BF05      		cpc r27,r15
 774 03ee 00F4      		brsh .+2
 775 03f0 00C0      		rjmp .L12
 206:LUFA-111009/LUFA/Drivers/USB/Class/Common/HIDParser.c **** 					CurrCollectionPath->Usage.Usage = UsageMinMax.Minimum++;
 776               		.loc 1 206 0
 777 03f2 D101      		movw r26,r2
 778 03f4 1496      		adiw r26,3+1
 779 03f6 DC92      		st X,r13
 780 03f8 CE92      		st -X,r12
 781 03fa 1397      		sbiw r26,3
 782 03fc BFEF      		ldi r27,-1
 783 03fe CB1A      		sub r12,r27
 784 0400 DB0A      		sbc r13,r27
 785 0402 EB0A      		sbc r14,r27
 786 0404 FB0A      		sbc r15,r27
 787               	.LVL45:
 788 0406 00C0      		rjmp .L12
 789               	.L26:
 211:LUFA-111009/LUFA/Drivers/USB/Class/Common/HIDParser.c **** 				if (CurrCollectionPath == NULL)
 790               		.loc 1 211 0
 791 0408 2114      		cp r2,__zero_reg__
 792 040a 3104      		cpc r3,__zero_reg__
 793 040c 01F4      		brne .+2
 794 040e 00C0      		rjmp .L66
 214:LUFA-111009/LUFA/Drivers/USB/Class/Common/HIDParser.c **** 				CurrCollectionPath = CurrCollectionPath->Parent;
 795               		.loc 1 214 0
 796 0410 F101      		movw r30,r2
 797 0412 2580      		ldd r2,Z+5
 798 0414 3680      		ldd r3,Z+6
 799               	.LVL46:
 215:LUFA-111009/LUFA/Drivers/USB/Class/Common/HIDParser.c **** 				break;
 800               		.loc 1 215 0
 801 0416 00C0      		rjmp .L12
 802               	.LVL47:
 803               	.L56:
 804               	.LBB12:
 805               	.LBB6:
 223:LUFA-111009/LUFA/Drivers/USB/Class/Common/HIDParser.c **** 					memcpy(&NewReportItem.Attributes,
 806               		.loc 1 223 0
 807 0418 F801      		movw r30,r16
 808 041a DE01      		movw r26,r28
 809 041c AF5B      		subi r26,-65
 810 041e BF4F      		sbci r27,-1
 811 0420 8AE1      		ldi r24,lo8(26)
 812               		0:
 813 0422 0190      		ld r0,Z+
 814 0424 0D92      		st X+,r0
 815 0426 8A95      		dec r24
 816 0428 01F4      		brne 0b
 227:LUFA-111009/LUFA/Drivers/USB/Class/Common/HIDParser.c **** 					NewReportItem.ItemFlags      = ReportItemData;
 817               		.loc 1 227 0
 818 042a 5DAF      		std Y+61,r21
 819 042c 4CAF      		std Y+60,r20
 228:LUFA-111009/LUFA/Drivers/USB/Class/Common/HIDParser.c **** 					NewReportItem.CollectionPath = CurrCollectionPath;
 820               		.loc 1 228 0
 821 042e 2196      		adiw r28,63-62
 822 0430 3FAE      		std Y+63,r3
 823 0432 2EAE      		std Y+62,r2
 824 0434 2197      		sbiw r28,63-62
 229:LUFA-111009/LUFA/Drivers/USB/Class/Common/HIDParser.c **** 					NewReportItem.ReportID       = CurrStateTable->ReportID;
 825               		.loc 1 229 0
 826 0436 D801      		movw r26,r16
 827 0438 5B96      		adiw r26, 27
 828 043a 8C91      		ld r24,X
 829 043c 8EAF      		std Y+62,r24
 231:LUFA-111009/LUFA/Drivers/USB/Class/Common/HIDParser.c **** 					if (UsageListSize)
 830               		.loc 1 231 0
 831 043e E496      		adiw r28,115-63
 832 0440 BFAD      		ldd r27,Y+63
 833 0442 E497      		sbiw r28,115-63
 834 0444 BB23      		tst r27
 835 0446 01F0      		breq .L45
 233:LUFA-111009/LUFA/Drivers/USB/Class/Common/HIDParser.c **** 						NewReportItem.Attributes.Usage.Usage = UsageList[0];
 836               		.loc 1 233 0
 837 0448 A596      		adiw r28,99-62
 838 044a 8EAD      		ldd r24,Y+62
 839 044c 9FAD      		ldd r25,Y+63
 840 044e A597      		sbiw r28,99-62
 841 0450 2696      		adiw r28,68-62
 842 0452 9FAF      		std Y+63,r25
 843 0454 8EAF      		std Y+62,r24
 844 0456 2697      		sbiw r28,68-62
 845               	.LVL48:
 846 0458 FE01      		movw r30,r28
 847 045a ED59      		subi r30,-99
 848 045c FF4F      		sbci r31,-1
 235:LUFA-111009/LUFA/Drivers/USB/Class/Common/HIDParser.c **** 						for (uint8_t i = 0; i < UsageListSize; i++)
 849               		.loc 1 235 0
 850 045e A0E0      		ldi r26,0
 851               	.LVL49:
 852               	.L46:
 853               	.LBB5:
 236:LUFA-111009/LUFA/Drivers/USB/Class/Common/HIDParser.c **** 						  UsageList[i] = UsageList[i + 1];
 854               		.loc 1 236 0 discriminator 2
 855 0460 8281      		ldd r24,Z+2
 856 0462 9381      		ldd r25,Z+3
 857 0464 8193      		st Z+,r24
 858 0466 9193      		st Z+,r25
 235:LUFA-111009/LUFA/Drivers/USB/Class/Common/HIDParser.c **** 						for (uint8_t i = 0; i < UsageListSize; i++)
 859               		.loc 1 235 0 discriminator 2
 860 0468 AF5F      		subi r26,lo8(-(1))
 861               	.LVL50:
 862 046a E496      		adiw r28,115-63
 863 046c 8FAD      		ldd r24,Y+63
 864 046e E497      		sbiw r28,115-63
 865 0470 A813      		cpse r26,r24
 866 0472 00C0      		rjmp .L46
 867               	.LBE5:
 238:LUFA-111009/LUFA/Drivers/USB/Class/Common/HIDParser.c **** 						UsageListSize--;
 868               		.loc 1 238 0
 869 0474 8150      		subi r24,lo8(-(-1))
 870 0476 E496      		adiw r28,115-63
 871 0478 8FAF      		std Y+63,r24
 872 047a E497      		sbiw r28,115-63
 873               	.LVL51:
 874 047c 00C0      		rjmp .L47
 875               	.LVL52:
 876               	.L45:
 240:LUFA-111009/LUFA/Drivers/USB/Class/Common/HIDParser.c **** 					else if (UsageMinMax.Minimum <= UsageMinMax.Maximum)
 877               		.loc 1 240 0
 878 047e E896      		adiw r28,116-60
 879 0480 8CAD      		ldd r24,Y+60
 880 0482 9DAD      		ldd r25,Y+61
 881 0484 AEAD      		ldd r26,Y+62
 882 0486 BFAD      		ldd r27,Y+63
 883 0488 E897      		sbiw r28,116-60
 884 048a 8C15      		cp r24,r12
 885 048c 9D05      		cpc r25,r13
 886 048e AE05      		cpc r26,r14
 887 0490 BF05      		cpc r27,r15
 888 0492 00F0      		brlo .L47
 242:LUFA-111009/LUFA/Drivers/USB/Class/Common/HIDParser.c **** 						NewReportItem.Attributes.Usage.Usage = UsageMinMax.Minimum++;
 889               		.loc 1 242 0
 890 0494 2696      		adiw r28,68-62
 891 0496 DFAE      		std Y+63,r13
 892 0498 CEAE      		std Y+62,r12
 893 049a 2697      		sbiw r28,68-62
 894 049c 9FEF      		ldi r25,-1
 895 049e C91A      		sub r12,r25
 896 04a0 D90A      		sbc r13,r25
 897 04a2 E90A      		sbc r14,r25
 898 04a4 F90A      		sbc r15,r25
 899               	.LVL53:
 900               	.L47:
 247:LUFA-111009/LUFA/Drivers/USB/Class/Common/HIDParser.c **** 					if (ItemTypeTag == HID_RI_INPUT(0))
 901               		.loc 1 247 0
 902 04a6 2038      		cpi r18,lo8(-128)
 903 04a8 01F4      		brne .L48
 248:LUFA-111009/LUFA/Drivers/USB/Class/Common/HIDParser.c **** 					  NewReportItem.ItemType = HID_REPORT_ITEM_In;
 904               		.loc 1 248 0
 905 04aa 1BAE      		std Y+59,__zero_reg__
 906 04ac 00C0      		rjmp .L49
 907               	.L48:
 249:LUFA-111009/LUFA/Drivers/USB/Class/Common/HIDParser.c **** 					else if (ItemTypeTag == HID_RI_OUTPUT(0))
 908               		.loc 1 249 0
 909 04ae 2039      		cpi r18,lo8(-112)
 910 04b0 01F4      		brne .L50
 250:LUFA-111009/LUFA/Drivers/USB/Class/Common/HIDParser.c **** 					  NewReportItem.ItemType = HID_REPORT_ITEM_Out;
 911               		.loc 1 250 0
 912 04b2 A1E0      		ldi r26,lo8(1)
 913 04b4 ABAF      		std Y+59,r26
 914 04b6 00C0      		rjmp .L49
 915               	.L50:
 252:LUFA-111009/LUFA/Drivers/USB/Class/Common/HIDParser.c **** 					  NewReportItem.ItemType = HID_REPORT_ITEM_Feature;
 916               		.loc 1 252 0
 917 04b8 B2E0      		ldi r27,lo8(2)
 918 04ba BBAF      		std Y+59,r27
 919               	.L49:
 254:LUFA-111009/LUFA/Drivers/USB/Class/Common/HIDParser.c **** 					NewReportItem.BitOffset = CurrReportIDInfo->ReportSizeBits[NewReportItem.ItemType];
 920               		.loc 1 254 0
 921 04bc 8BAD      		ldd r24,Y+59
 922 04be F301      		movw r30,r6
 923 04c0 E80F      		add r30,r24
 924 04c2 F11D      		adc r31,__zero_reg__
 925 04c4 E80F      		add r30,r24
 926 04c6 F11D      		adc r31,__zero_reg__
 927 04c8 8181      		ldd r24,Z+1
 928 04ca 9281      		ldd r25,Z+2
 929 04cc 9AAF      		std Y+58,r25
 930 04ce 89AF      		std Y+57,r24
 256:LUFA-111009/LUFA/Drivers/USB/Class/Common/HIDParser.c **** 					CurrReportIDInfo->ReportSizeBits[NewReportItem.ItemType] += CurrStateTable->Attributes.BitSize
 931               		.loc 1 256 0
 932 04d0 D801      		movw r26,r16
 933 04d2 BC91      		ld r27,X
 934 04d4 8181      		ldd r24,Z+1
 935 04d6 9281      		ldd r25,Z+2
 936 04d8 8B0F      		add r24,r27
 937 04da 911D      		adc r25,__zero_reg__
 938 04dc 9283      		std Z+2,r25
 939 04de 8183      		std Z+1,r24
 940               		.loc 1 258 0
 941 04e0 8BAD      		ldd r24,Y+59
 942 04e2 F301      		movw r30,r6
 943 04e4 E80F      		add r30,r24
 944 04e6 F11D      		adc r31,__zero_reg__
 945 04e8 E80F      		add r30,r24
 946 04ea F11D      		adc r31,__zero_reg__
 947 04ec EB96      		adiw r28,121-62
 948 04ee AEAD      		ldd r26,Y+62
 949 04f0 BFAD      		ldd r27,Y+63
 950 04f2 EB97      		sbiw r28,121-62
 951 04f4 8D91      		ld r24,X+
 952 04f6 9C91      		ld r25,X
 953 04f8 0180      		ldd __tmp_reg__,Z+1
 954 04fa F281      		ldd r31,Z+2
 955 04fc E02D      		mov r30,__tmp_reg__
 956 04fe E817      		cp r30,r24
 957 0500 F907      		cpc r31,r25
 958 0502 00F4      		brsh .L51
 959 0504 FC01      		movw r30,r24
 960               	.L51:
 961 0506 EB96      		adiw r28,121-62
 962 0508 AEAD      		ldd r26,Y+62
 963 050a BFAD      		ldd r27,Y+63
 964 050c EB97      		sbiw r28,121-62
 965 050e ED93      		st X+,r30
 966 0510 FC93      		st X,r31
 259:LUFA-111009/LUFA/Drivers/USB/Class/Common/HIDParser.c **** 
 260:LUFA-111009/LUFA/Drivers/USB/Class/Common/HIDParser.c **** 					if (ParserData->TotalReportItems == HID_MAX_REPORTITEMS)
 967               		.loc 1 260 0
 968 0512 F501      		movw r30,r10
 969 0514 8081      		ld r24,Z
 970 0516 8431      		cpi r24,lo8(20)
 971 0518 01F4      		brne .L52
 261:LUFA-111009/LUFA/Drivers/USB/Class/Common/HIDParser.c **** 					  return HID_PARSE_InsufficientReportItems;
 972               		.loc 1 261 0
 973 051a 83E0      		ldi r24,lo8(3)
 974 051c 00C0      		rjmp .L90
 975               	.L52:
 262:LUFA-111009/LUFA/Drivers/USB/Class/Common/HIDParser.c **** 
 263:LUFA-111009/LUFA/Drivers/USB/Class/Common/HIDParser.c **** 					memcpy(&ParserData->ReportItems[ParserData->TotalReportItems],
 976               		.loc 1 263 0
 977 051e D501      		movw r26,r10
 978 0520 FAE2      		ldi r31,lo8(42)
 979 0522 F89F      		mul r31,r24
 980 0524 A00D      		add r26,r0
 981 0526 B11D      		adc r27,r1
 982 0528 1124      		clr __zero_reg__
 983 052a 1196      		adiw r26,1
 984 052c FE01      		movw r30,r28
 985 052e F996      		adiw r30,57
 986 0530 8AE2      		ldi r24,lo8(42)
 987               		0:
 988 0532 0190      		ld r0,Z+
 989 0534 0D92      		st X+,r0
 990 0536 8A95      		dec r24
 991 0538 01F4      		brne 0b
 264:LUFA-111009/LUFA/Drivers/USB/Class/Common/HIDParser.c **** 					       &NewReportItem, sizeof(HID_ReportItem_t));
 265:LUFA-111009/LUFA/Drivers/USB/Class/Common/HIDParser.c **** 
 266:LUFA-111009/LUFA/Drivers/USB/Class/Common/HIDParser.c **** 					if (!(ReportItemData & HID_IOF_CONSTANT) && CALLBACK_HIDParser_FilterHIDReportItem(&NewReportI
 992               		.loc 1 266 0
 993 053a EF96      		adiw r28,123-60
 994 053c 8CAD      		ldd r24,Y+60
 995 053e 9DAD      		ldd r25,Y+61
 996 0540 AEAD      		ldd r26,Y+62
 997 0542 BFAD      		ldd r27,Y+63
 998 0544 EF97      		sbiw r28,123-60
 999 0546 892B      		or r24,r25
 1000 0548 8A2B      		or r24,r26
 1001 054a 8B2B      		or r24,r27
 1002 054c 01F0      		breq .+2
 1003 054e 00C0      		rjmp .L54
 1004               		.loc 1 266 0 is_stmt 0 discriminator 1
 1005 0550 CE01      		movw r24,r28
 1006 0552 C996      		adiw r24,57
 1007 0554 C857      		subi r28,lo8(-136)
 1008 0556 DF4F      		sbci r29,hi8(-136)
 1009 0558 2883      		st Y,r18
 1010 055a C858      		subi r28,lo8(136)
 1011 055c D040      		sbci r29,hi8(136)
 1012 055e C957      		subi r28,lo8(-135)
 1013 0560 DF4F      		sbci r29,hi8(-135)
 1014 0562 3883      		st Y,r19
 1015 0564 C758      		subi r28,lo8(135)
 1016 0566 D040      		sbci r29,hi8(135)
 1017 0568 CD57      		subi r28,lo8(-131)
 1018 056a DF4F      		sbci r29,hi8(-131)
 1019 056c 4883      		st Y,r20
 1020 056e C358      		subi r28,lo8(131)
 1021 0570 D040      		sbci r29,hi8(131)
 1022 0572 CC57      		subi r28,lo8(-132)
 1023 0574 DF4F      		sbci r29,hi8(-132)
 1024 0576 5883      		st Y,r21
 1025 0578 C458      		subi r28,lo8(132)
 1026 057a D040      		sbci r29,hi8(132)
 1027 057c CB57      		subi r28,lo8(-133)
 1028 057e DF4F      		sbci r29,hi8(-133)
 1029 0580 6883      		st Y,r22
 1030 0582 C558      		subi r28,lo8(133)
 1031 0584 D040      		sbci r29,hi8(133)
 1032 0586 CA57      		subi r28,lo8(-134)
 1033 0588 DF4F      		sbci r29,hi8(-134)
 1034 058a 7883      		st Y,r23
 1035 058c C658      		subi r28,lo8(134)
 1036 058e D040      		sbci r29,hi8(134)
 1037 0590 0E94 0000 		call CALLBACK_HIDParser_FilterHIDReportItem
 1038               	.LVL54:
 1039 0594 C857      		subi r28,lo8(-136)
 1040 0596 DF4F      		sbci r29,hi8(-136)
 1041 0598 2881      		ld r18,Y
 1042 059a C858      		subi r28,lo8(136)
 1043 059c D040      		sbci r29,hi8(136)
 1044 059e C957      		subi r28,lo8(-135)
 1045 05a0 DF4F      		sbci r29,hi8(-135)
 1046 05a2 3881      		ld r19,Y
 1047 05a4 C758      		subi r28,lo8(135)
 1048 05a6 D040      		sbci r29,hi8(135)
 1049 05a8 CD57      		subi r28,lo8(-131)
 1050 05aa DF4F      		sbci r29,hi8(-131)
 1051 05ac 4881      		ld r20,Y
 1052 05ae C358      		subi r28,lo8(131)
 1053 05b0 D040      		sbci r29,hi8(131)
 1054 05b2 CC57      		subi r28,lo8(-132)
 1055 05b4 DF4F      		sbci r29,hi8(-132)
 1056 05b6 5881      		ld r21,Y
 1057 05b8 C458      		subi r28,lo8(132)
 1058 05ba D040      		sbci r29,hi8(132)
 1059 05bc CB57      		subi r28,lo8(-133)
 1060 05be DF4F      		sbci r29,hi8(-133)
 1061 05c0 6881      		ld r22,Y
 1062 05c2 C558      		subi r28,lo8(133)
 1063 05c4 D040      		sbci r29,hi8(133)
 1064 05c6 CA57      		subi r28,lo8(-134)
 1065 05c8 DF4F      		sbci r29,hi8(-134)
 1066 05ca 7881      		ld r23,Y
 1067 05cc C658      		subi r28,lo8(134)
 1068 05ce D040      		sbci r29,hi8(134)
 1069 05d0 8823      		tst r24
 1070 05d2 01F0      		breq .L54
 267:LUFA-111009/LUFA/Drivers/USB/Class/Common/HIDParser.c **** 					  ParserData->TotalReportItems++;
 1071               		.loc 1 267 0 is_stmt 1
 1072 05d4 D501      		movw r26,r10
 1073 05d6 8C91      		ld r24,X
 1074 05d8 8F5F      		subi r24,lo8(-(1))
 1075 05da 8C93      		st X,r24
 1076               	.L54:
 1077               	.LBE6:
 219:LUFA-111009/LUFA/Drivers/USB/Class/Common/HIDParser.c **** 				for (uint8_t ReportItemNum = 0; ReportItemNum < CurrStateTable->ReportCount; ReportItemNum++)
 1078               		.loc 1 219 0
 1079 05dc 3F5F      		subi r19,lo8(-(1))
 1080               	.LVL55:
 1081 05de 00C0      		rjmp .L20
 1082               	.LVL56:
 1083               	.L61:
 1084               	.LBE12:
  80:LUFA-111009/LUFA/Drivers/USB/Class/Common/HIDParser.c **** 		switch (HIDReportItem & (HID_RI_TYPE_MASK | HID_RI_TAG_MASK))
 1085               		.loc 1 80 0
 1086 05e0 30E0      		ldi r19,0
 1087               	.LBB13:
 1088               	.LBB7:
 266:LUFA-111009/LUFA/Drivers/USB/Class/Common/HIDParser.c **** 					if (!(ReportItemData & HID_IOF_CONSTANT) && CALLBACK_HIDParser_FilterHIDReportItem(&NewReportI
 1089               		.loc 1 266 0
 1090 05e2 DB01      		movw r26,r22
 1091 05e4 CA01      		movw r24,r20
 1092 05e6 8170      		andi r24,1
 1093 05e8 9927      		clr r25
 1094 05ea AA27      		clr r26
 1095 05ec BB27      		clr r27
 1096 05ee EF96      		adiw r28,123-60
 1097 05f0 8CAF      		std Y+60,r24
 1098 05f2 9DAF      		std Y+61,r25
 1099 05f4 AEAF      		std Y+62,r26
 1100 05f6 BFAF      		std Y+63,r27
 1101 05f8 EF97      		sbiw r28,123-60
 1102               	.LVL57:
 1103               	.L20:
 1104               	.LBE7:
 219:LUFA-111009/LUFA/Drivers/USB/Class/Common/HIDParser.c **** 				for (uint8_t ReportItemNum = 0; ReportItemNum < CurrStateTable->ReportCount; ReportItemNum++)
 1105               		.loc 1 219 0 discriminator 1
 1106 05fa D801      		movw r26,r16
 1107 05fc 5A96      		adiw r26, 26
 1108 05fe 8C91      		ld r24,X
 1109 0600 3817      		cp r19,r24
 1110 0602 00F4      		brsh .+2
 1111 0604 00C0      		rjmp .L56
 1112 0606 00C0      		rjmp .L12
 1113               	.LVL58:
 1114               	.L60:
 1115               	.LBE13:
  80:LUFA-111009/LUFA/Drivers/USB/Class/Common/HIDParser.c **** 		switch (HIDReportItem & (HID_RI_TYPE_MASK | HID_RI_TAG_MASK))
 1116               		.loc 1 80 0
 1117 0608 6A01      		movw r12,r20
 1118 060a 7B01      		movw r14,r22
 1119               	.LVL59:
 1120               	.L12:
 268:LUFA-111009/LUFA/Drivers/USB/Class/Common/HIDParser.c **** 				}
 269:LUFA-111009/LUFA/Drivers/USB/Class/Common/HIDParser.c **** 
 270:LUFA-111009/LUFA/Drivers/USB/Class/Common/HIDParser.c **** 				break;
 271:LUFA-111009/LUFA/Drivers/USB/Class/Common/HIDParser.c **** 		}
 272:LUFA-111009/LUFA/Drivers/USB/Class/Common/HIDParser.c **** 
 273:LUFA-111009/LUFA/Drivers/USB/Class/Common/HIDParser.c **** 		if ((HIDReportItem & HID_RI_TYPE_MASK) == HID_RI_TYPE_MAIN)
 1121               		.loc 1 273 0
 1122 060c E996      		adiw r28,120-63
 1123 060e 8FAD      		ldd r24,Y+63
 1124 0610 E997      		sbiw r28,120-63
 1125 0612 8C70      		andi r24,lo8(12)
 1126 0614 01F4      		brne .L88
 274:LUFA-111009/LUFA/Drivers/USB/Class/Common/HIDParser.c **** 		{
 275:LUFA-111009/LUFA/Drivers/USB/Class/Common/HIDParser.c **** 			UsageMinMax.Minimum = 0;
 276:LUFA-111009/LUFA/Drivers/USB/Class/Common/HIDParser.c **** 			UsageMinMax.Maximum = 0;
 1127               		.loc 1 276 0
 1128 0616 E896      		adiw r28,116-60
 1129 0618 1CAE      		std Y+60,__zero_reg__
 1130 061a 1DAE      		std Y+61,__zero_reg__
 1131 061c 1EAE      		std Y+62,__zero_reg__
 1132 061e 1FAE      		std Y+63,__zero_reg__
 1133 0620 E897      		sbiw r28,116-60
 275:LUFA-111009/LUFA/Drivers/USB/Class/Common/HIDParser.c **** 			UsageMinMax.Minimum = 0;
 1134               		.loc 1 275 0
 1135 0622 C12C      		mov r12,__zero_reg__
 1136 0624 D12C      		mov r13,__zero_reg__
 1137 0626 7601      		movw r14,r12
 1138               	.LVL60:
 277:LUFA-111009/LUFA/Drivers/USB/Class/Common/HIDParser.c **** 			UsageListSize       = 0;
 1139               		.loc 1 277 0
 1140 0628 E496      		adiw r28,115-63
 1141 062a 1FAE      		std Y+63,__zero_reg__
 1142 062c E497      		sbiw r28,115-63
 1143               	.LVL61:
 1144               	.L88:
 1145               	.LBE15:
  53:LUFA-111009/LUFA/Drivers/USB/Class/Common/HIDParser.c **** 	while (ReportSize)
 1146               		.loc 1 53 0 discriminator 1
 1147 062e 4114      		cp r4,__zero_reg__
 1148 0630 5104      		cpc r5,__zero_reg__
 1149 0632 01F0      		breq .+2
 1150 0634 00C0      		rjmp .L58
 278:LUFA-111009/LUFA/Drivers/USB/Class/Common/HIDParser.c **** 		}
 279:LUFA-111009/LUFA/Drivers/USB/Class/Common/HIDParser.c **** 	}
 280:LUFA-111009/LUFA/Drivers/USB/Class/Common/HIDParser.c **** 
 281:LUFA-111009/LUFA/Drivers/USB/Class/Common/HIDParser.c **** 	if (!(ParserData->TotalReportItems))
 1151               		.loc 1 281 0
 1152 0636 F501      		movw r30,r10
 1153 0638 8081      		ld r24,Z
 1154 063a 8111      		cpse r24,__zero_reg__
 1155 063c 00C0      		rjmp .L68
 282:LUFA-111009/LUFA/Drivers/USB/Class/Common/HIDParser.c **** 	  return HID_PARSE_NoUnfilteredReportItems;
 1156               		.loc 1 282 0
 1157 063e 88E0      		ldi r24,lo8(8)
 1158 0640 00C0      		rjmp .L90
 1159               	.LVL62:
 1160               	.L62:
 1161               	.LBB16:
  84:LUFA-111009/LUFA/Drivers/USB/Class/Common/HIDParser.c **** 				  return HID_PARSE_HIDStackOverflow;
 1162               		.loc 1 84 0
 1163 0642 81E0      		ldi r24,lo8(1)
 1164 0644 00C0      		rjmp .L90
 1165               	.L63:
  94:LUFA-111009/LUFA/Drivers/USB/Class/Common/HIDParser.c **** 				  return HID_PARSE_HIDStackUnderflow;
 1166               		.loc 1 94 0
 1167 0646 82E0      		ldi r24,lo8(2)
 1168 0648 00C0      		rjmp .L90
 1169               	.L64:
 160:LUFA-111009/LUFA/Drivers/USB/Class/Common/HIDParser.c **** 				  return HID_PARSE_UsageListOverflow;
 1170               		.loc 1 160 0
 1171 064a 86E0      		ldi r24,lo8(6)
 1172 064c 00C0      		rjmp .L90
 1173               	.LVL63:
 1174               	.L65:
 1175               	.LBB14:
 184:LUFA-111009/LUFA/Drivers/USB/Class/Common/HIDParser.c **** 						  return HID_PARSE_InsufficientCollectionPaths;
 1176               		.loc 1 184 0
 1177 064e 85E0      		ldi r24,lo8(5)
 1178 0650 00C0      		rjmp .L90
 1179               	.LVL64:
 1180               	.L66:
 1181               	.LBE14:
 212:LUFA-111009/LUFA/Drivers/USB/Class/Common/HIDParser.c **** 				  return HID_PARSE_UnexpectedEndCollection;
 1182               		.loc 1 212 0
 1183 0652 84E0      		ldi r24,lo8(4)
 1184 0654 00C0      		rjmp .L90
 1185               	.LVL65:
 1186               	.L68:
 1187               	.LBE16:
 283:LUFA-111009/LUFA/Drivers/USB/Class/Common/HIDParser.c **** 
 284:LUFA-111009/LUFA/Drivers/USB/Class/Common/HIDParser.c **** 	return HID_PARSE_Successful;
 1188               		.loc 1 284 0
 1189 0656 80E0      		ldi r24,0
 1190 0658 00C0      		rjmp .L90
 1191               	.LVL66:
 1192               	.L69:
 1193               	.LBB17:
 147:LUFA-111009/LUFA/Drivers/USB/Class/Common/HIDParser.c **** 						  return HID_PARSE_InsufficientReportIDItems;
 1194               		.loc 1 147 0
 1195 065a 87E0      		ldi r24,lo8(7)
 1196 065c 00C0      		rjmp .L90
 1197               	.LVL67:
 1198               	.L89:
 146:LUFA-111009/LUFA/Drivers/USB/Class/Common/HIDParser.c **** 						if (ParserData->TotalDeviceReports == HID_MAX_REPORT_IDS)
 1199               		.loc 1 146 0
 1200 065e 6A30      		cpi r22,lo8(10)
 1201 0660 01F0      		breq .+2
 1202 0662 00C0      		rjmp .L91
 1203 0664 00C0      		rjmp .L69
 1204               	.LVL68:
 1205               	.L90:
 1206               	/* epilogue start */
 1207               	.LBE17:
 285:LUFA-111009/LUFA/Drivers/USB/Class/Common/HIDParser.c **** }
 1208               		.loc 1 285 0
 1209 0666 C757      		subi r28,119
 1210 0668 DF4F      		sbci r29,-1
 1211 066a 0FB6      		in __tmp_reg__,__SREG__
 1212 066c F894      		cli
 1213 066e DEBF      		out __SP_H__,r29
 1214 0670 0FBE      		out __SREG__,__tmp_reg__
 1215 0672 CDBF      		out __SP_L__,r28
 1216 0674 DF91      		pop r29
 1217 0676 CF91      		pop r28
 1218 0678 1F91      		pop r17
 1219 067a 0F91      		pop r16
 1220               	.LVL69:
 1221 067c FF90      		pop r15
 1222 067e EF90      		pop r14
 1223 0680 DF90      		pop r13
 1224 0682 CF90      		pop r12
 1225               	.LVL70:
 1226 0684 BF90      		pop r11
 1227 0686 AF90      		pop r10
 1228               	.LVL71:
 1229 0688 9F90      		pop r9
 1230 068a 8F90      		pop r8
 1231               	.LVL72:
 1232 068c 7F90      		pop r7
 1233 068e 6F90      		pop r6
 1234 0690 5F90      		pop r5
 1235 0692 4F90      		pop r4
 1236               	.LVL73:
 1237 0694 3F90      		pop r3
 1238 0696 2F90      		pop r2
 1239 0698 0895      		ret
 1240               		.cfi_endproc
 1241               	.LFE16:
 1243               		.section	.text.USB_GetHIDReportItemInfo,"ax",@progbits
 1244               	.global	USB_GetHIDReportItemInfo
 1246               	USB_GetHIDReportItemInfo:
 1247               	.LFB17:
 286:LUFA-111009/LUFA/Drivers/USB/Class/Common/HIDParser.c **** 
 287:LUFA-111009/LUFA/Drivers/USB/Class/Common/HIDParser.c **** bool USB_GetHIDReportItemInfo(const uint8_t* ReportData,
 288:LUFA-111009/LUFA/Drivers/USB/Class/Common/HIDParser.c ****                               HID_ReportItem_t* const ReportItem)
 289:LUFA-111009/LUFA/Drivers/USB/Class/Common/HIDParser.c **** {
 1248               		.loc 1 289 0
 1249               		.cfi_startproc
 1250               	.LVL74:
 1251 0000 EF92      		push r14
 1252               	.LCFI20:
 1253               		.cfi_def_cfa_offset 3
 1254               		.cfi_offset 14, -2
 1255 0002 FF92      		push r15
 1256               	.LCFI21:
 1257               		.cfi_def_cfa_offset 4
 1258               		.cfi_offset 15, -3
 1259 0004 0F93      		push r16
 1260               	.LCFI22:
 1261               		.cfi_def_cfa_offset 5
 1262               		.cfi_offset 16, -4
 1263 0006 1F93      		push r17
 1264               	.LCFI23:
 1265               		.cfi_def_cfa_offset 6
 1266               		.cfi_offset 17, -5
 1267 0008 CF93      		push r28
 1268               	.LCFI24:
 1269               		.cfi_def_cfa_offset 7
 1270               		.cfi_offset 28, -6
 1271 000a DF93      		push r29
 1272               	.LCFI25:
 1273               		.cfi_def_cfa_offset 8
 1274               		.cfi_offset 29, -7
 1275               	/* prologue: function */
 1276               	/* frame size = 0 */
 1277               	/* stack size = 6 */
 1278               	.L__stack_usage = 6
 1279 000c FB01      		movw r30,r22
 290:LUFA-111009/LUFA/Drivers/USB/Class/Common/HIDParser.c **** 	if (ReportItem == NULL)
 1280               		.loc 1 290 0
 1281 000e 3097      		sbiw r30,0
 1282 0010 01F4      		brne .+2
 1283 0012 00C0      		rjmp .L99
 291:LUFA-111009/LUFA/Drivers/USB/Class/Common/HIDParser.c **** 	  return false;
 292:LUFA-111009/LUFA/Drivers/USB/Class/Common/HIDParser.c **** 
 293:LUFA-111009/LUFA/Drivers/USB/Class/Common/HIDParser.c **** 	uint16_t DataBitsRem  = ReportItem->Attributes.BitSize;
 1284               		.loc 1 293 0
 1285 0014 3085      		ldd r19,Z+8
 1286               	.LVL75:
 294:LUFA-111009/LUFA/Drivers/USB/Class/Common/HIDParser.c **** 	uint16_t CurrentBit   = ReportItem->BitOffset;
 1287               		.loc 1 294 0
 1288 0016 D081      		ld r29,Z
 1289 0018 C181      		ldd r28,Z+1
 1290               	.LVL76:
 295:LUFA-111009/LUFA/Drivers/USB/Class/Common/HIDParser.c **** 	uint32_t BitMask      = (1 << 0);
 296:LUFA-111009/LUFA/Drivers/USB/Class/Common/HIDParser.c **** 
 297:LUFA-111009/LUFA/Drivers/USB/Class/Common/HIDParser.c **** 	if (ReportItem->ReportID)
 1291               		.loc 1 297 0
 1292 001a 2581      		ldd r18,Z+5
 1293 001c 2223      		tst r18
 1294 001e 01F0      		breq .L94
 298:LUFA-111009/LUFA/Drivers/USB/Class/Common/HIDParser.c **** 	{
 299:LUFA-111009/LUFA/Drivers/USB/Class/Common/HIDParser.c **** 		if (ReportItem->ReportID != ReportData[0])
 1295               		.loc 1 299 0
 1296 0020 DC01      		movw r26,r24
 1297 0022 4C91      		ld r20,X
 1298 0024 2413      		cpse r18,r20
 1299 0026 00C0      		rjmp .L99
 300:LUFA-111009/LUFA/Drivers/USB/Class/Common/HIDParser.c **** 		  return false;
 301:LUFA-111009/LUFA/Drivers/USB/Class/Common/HIDParser.c **** 
 302:LUFA-111009/LUFA/Drivers/USB/Class/Common/HIDParser.c **** 		ReportData++;
 1300               		.loc 1 302 0
 1301 0028 0196      		adiw r24,1
 1302               	.LVL77:
 1303               	.L94:
 303:LUFA-111009/LUFA/Drivers/USB/Class/Common/HIDParser.c **** 	}
 304:LUFA-111009/LUFA/Drivers/USB/Class/Common/HIDParser.c **** 
 305:LUFA-111009/LUFA/Drivers/USB/Class/Common/HIDParser.c **** 	ReportItem->PreviousValue = ReportItem->Value;
 1304               		.loc 1 305 0
 1305 002a 42A1      		ldd r20,Z+34
 1306 002c 53A1      		ldd r21,Z+35
 1307 002e 64A1      		ldd r22,Z+36
 1308 0030 75A1      		ldd r23,Z+37
 1309 0032 46A3      		std Z+38,r20
 1310 0034 57A3      		std Z+39,r21
 1311 0036 60A7      		std Z+40,r22
 1312 0038 71A7      		std Z+41,r23
 306:LUFA-111009/LUFA/Drivers/USB/Class/Common/HIDParser.c **** 	ReportItem->Value = 0;
 1313               		.loc 1 306 0
 1314 003a 12A2      		std Z+34,__zero_reg__
 1315 003c 13A2      		std Z+35,__zero_reg__
 1316 003e 14A2      		std Z+36,__zero_reg__
 1317 0040 15A2      		std Z+37,__zero_reg__
 294:LUFA-111009/LUFA/Drivers/USB/Class/Common/HIDParser.c **** 	uint16_t CurrentBit   = ReportItem->BitOffset;
 1318               		.loc 1 294 0
 1319 0042 AD2F      		mov r26,r29
 1320 0044 BC2F      		mov r27,r28
 295:LUFA-111009/LUFA/Drivers/USB/Class/Common/HIDParser.c **** 	uint32_t BitMask      = (1 << 0);
 1321               		.loc 1 295 0
 1322 0046 41E0      		ldi r20,lo8(1)
 1323 0048 50E0      		ldi r21,0
 1324 004a 60E0      		ldi r22,0
 1325 004c 70E0      		ldi r23,0
 287:LUFA-111009/LUFA/Drivers/USB/Class/Common/HIDParser.c **** bool USB_GetHIDReportItemInfo(const uint8_t* ReportData,
 1326               		.loc 1 287 0
 1327 004e 7D01      		movw r14,r26
 1328 0050 E30E      		add r14,r19
 1329 0052 F11C      		adc r15,__zero_reg__
 307:LUFA-111009/LUFA/Drivers/USB/Class/Common/HIDParser.c **** 
 308:LUFA-111009/LUFA/Drivers/USB/Class/Common/HIDParser.c **** 	while (DataBitsRem--)
 1330               		.loc 1 308 0
 1331 0054 00C0      		rjmp .L95
 1332               	.LVL78:
 1333               	.L97:
 309:LUFA-111009/LUFA/Drivers/USB/Class/Common/HIDParser.c **** 	{
 310:LUFA-111009/LUFA/Drivers/USB/Class/Common/HIDParser.c **** 		if (ReportData[CurrentBit / 8] & (1 << (CurrentBit % 8)))
 1334               		.loc 1 310 0
 1335 0056 9D01      		movw r18,r26
 1336 0058 C3E0      		ldi r28,3
 1337               		1:
 1338 005a 3695      		lsr r19
 1339 005c 2795      		ror r18
 1340 005e CA95      		dec r28
 1341 0060 01F4      		brne 1b
 1342 0062 280F      		add r18,r24
 1343 0064 391F      		adc r19,r25
 1344 0066 E901      		movw r28,r18
 1345 0068 2881      		ld r18,Y
 1346 006a 30E0      		ldi r19,0
 1347 006c 8D01      		movw r16,r26
 1348 006e 0770      		andi r16,7
 1349 0070 1127      		clr r17
 1350 0072 00C0      		rjmp 2f
 1351               		1:
 1352 0074 3595      		asr r19
 1353 0076 2795      		ror r18
 1354               		2:
 1355 0078 0A95      		dec r16
 1356 007a 02F4      		brpl 1b
 1357 007c 20FF      		sbrs r18,0
 1358 007e 00C0      		rjmp .L96
 311:LUFA-111009/LUFA/Drivers/USB/Class/Common/HIDParser.c **** 		  ReportItem->Value |= BitMask;
 1359               		.loc 1 311 0
 1360 0080 02A1      		ldd r16,Z+34
 1361 0082 13A1      		ldd r17,Z+35
 1362 0084 24A1      		ldd r18,Z+36
 1363 0086 35A1      		ldd r19,Z+37
 1364 0088 042B      		or r16,r20
 1365 008a 152B      		or r17,r21
 1366 008c 262B      		or r18,r22
 1367 008e 372B      		or r19,r23
 1368 0090 02A3      		std Z+34,r16
 1369 0092 13A3      		std Z+35,r17
 1370 0094 24A3      		std Z+36,r18
 1371 0096 35A3      		std Z+37,r19
 1372               	.L96:
 312:LUFA-111009/LUFA/Drivers/USB/Class/Common/HIDParser.c **** 
 313:LUFA-111009/LUFA/Drivers/USB/Class/Common/HIDParser.c **** 		CurrentBit++;
 1373               		.loc 1 313 0
 1374 0098 1196      		adiw r26,1
 1375               	.LVL79:
 314:LUFA-111009/LUFA/Drivers/USB/Class/Common/HIDParser.c **** 		BitMask <<= 1;
 1376               		.loc 1 314 0
 1377 009a 440F      		lsl r20
 1378 009c 551F      		rol r21
 1379 009e 661F      		rol r22
 1380 00a0 771F      		rol r23
 1381               	.LVL80:
 1382               	.L95:
 308:LUFA-111009/LUFA/Drivers/USB/Class/Common/HIDParser.c **** 	while (DataBitsRem--)
 1383               		.loc 1 308 0 discriminator 1
 1384 00a2 EA16      		cp r14,r26
 1385 00a4 FB06      		cpc r15,r27
 1386 00a6 01F4      		brne .L97
 315:LUFA-111009/LUFA/Drivers/USB/Class/Common/HIDParser.c **** 	}
 316:LUFA-111009/LUFA/Drivers/USB/Class/Common/HIDParser.c **** 
 317:LUFA-111009/LUFA/Drivers/USB/Class/Common/HIDParser.c **** 	return true;
 1387               		.loc 1 317 0
 1388 00a8 81E0      		ldi r24,lo8(1)
 1389               	.LVL81:
 1390 00aa 00C0      		rjmp .L93
 1391               	.LVL82:
 1392               	.L99:
 291:LUFA-111009/LUFA/Drivers/USB/Class/Common/HIDParser.c **** 	  return false;
 1393               		.loc 1 291 0
 1394 00ac 80E0      		ldi r24,0
 1395               	.LVL83:
 1396               	.L93:
 1397               	/* epilogue start */
 318:LUFA-111009/LUFA/Drivers/USB/Class/Common/HIDParser.c **** }
 1398               		.loc 1 318 0
 1399 00ae DF91      		pop r29
 1400 00b0 CF91      		pop r28
 1401 00b2 1F91      		pop r17
 1402 00b4 0F91      		pop r16
 1403 00b6 FF90      		pop r15
 1404 00b8 EF90      		pop r14
 1405 00ba 0895      		ret
 1406               		.cfi_endproc
 1407               	.LFE17:
 1409               		.section	.text.USB_SetHIDReportItemInfo,"ax",@progbits
 1410               	.global	USB_SetHIDReportItemInfo
 1412               	USB_SetHIDReportItemInfo:
 1413               	.LFB18:
 319:LUFA-111009/LUFA/Drivers/USB/Class/Common/HIDParser.c **** 
 320:LUFA-111009/LUFA/Drivers/USB/Class/Common/HIDParser.c **** void USB_SetHIDReportItemInfo(uint8_t* ReportData,
 321:LUFA-111009/LUFA/Drivers/USB/Class/Common/HIDParser.c ****                               HID_ReportItem_t* const ReportItem)
 322:LUFA-111009/LUFA/Drivers/USB/Class/Common/HIDParser.c **** {
 1414               		.loc 1 322 0
 1415               		.cfi_startproc
 1416               	.LVL84:
 1417 0000 8F92      		push r8
 1418               	.LCFI26:
 1419               		.cfi_def_cfa_offset 3
 1420               		.cfi_offset 8, -2
 1421 0002 9F92      		push r9
 1422               	.LCFI27:
 1423               		.cfi_def_cfa_offset 4
 1424               		.cfi_offset 9, -3
 1425 0004 AF92      		push r10
 1426               	.LCFI28:
 1427               		.cfi_def_cfa_offset 5
 1428               		.cfi_offset 10, -4
 1429 0006 BF92      		push r11
 1430               	.LCFI29:
 1431               		.cfi_def_cfa_offset 6
 1432               		.cfi_offset 11, -5
 1433 0008 CF92      		push r12
 1434               	.LCFI30:
 1435               		.cfi_def_cfa_offset 7
 1436               		.cfi_offset 12, -6
 1437 000a DF92      		push r13
 1438               	.LCFI31:
 1439               		.cfi_def_cfa_offset 8
 1440               		.cfi_offset 13, -7
 1441 000c EF92      		push r14
 1442               	.LCFI32:
 1443               		.cfi_def_cfa_offset 9
 1444               		.cfi_offset 14, -8
 1445 000e FF92      		push r15
 1446               	.LCFI33:
 1447               		.cfi_def_cfa_offset 10
 1448               		.cfi_offset 15, -9
 1449 0010 0F93      		push r16
 1450               	.LCFI34:
 1451               		.cfi_def_cfa_offset 11
 1452               		.cfi_offset 16, -10
 1453 0012 1F93      		push r17
 1454               	.LCFI35:
 1455               		.cfi_def_cfa_offset 12
 1456               		.cfi_offset 17, -11
 1457 0014 CF93      		push r28
 1458               	.LCFI36:
 1459               		.cfi_def_cfa_offset 13
 1460               		.cfi_offset 28, -12
 1461 0016 DF93      		push r29
 1462               	.LCFI37:
 1463               		.cfi_def_cfa_offset 14
 1464               		.cfi_offset 29, -13
 1465               	/* prologue: function */
 1466               	/* frame size = 0 */
 1467               	/* stack size = 12 */
 1468               	.L__stack_usage = 12
 1469 0018 DB01      		movw r26,r22
 323:LUFA-111009/LUFA/Drivers/USB/Class/Common/HIDParser.c **** 	if (ReportItem == NULL)
 1470               		.loc 1 323 0
 1471 001a 1097      		sbiw r26,0
 1472 001c 01F4      		brne .+2
 1473 001e 00C0      		rjmp .L106
 324:LUFA-111009/LUFA/Drivers/USB/Class/Common/HIDParser.c **** 	  return;
 325:LUFA-111009/LUFA/Drivers/USB/Class/Common/HIDParser.c **** 
 326:LUFA-111009/LUFA/Drivers/USB/Class/Common/HIDParser.c **** 	uint16_t DataBitsRem  = ReportItem->Attributes.BitSize;
 1474               		.loc 1 326 0
 1475 0020 1896      		adiw r26, 8
 1476 0022 CC91      		ld r28,X
 1477 0024 1897      		sbiw r26, 8
 1478 0026 D0E0      		ldi r29,0
 1479               	.LVL85:
 327:LUFA-111009/LUFA/Drivers/USB/Class/Common/HIDParser.c **** 	uint16_t CurrentBit   = ReportItem->BitOffset;
 1480               		.loc 1 327 0
 1481 0028 1C91      		ld r17,X
 1482 002a 1196      		adiw r26, 1
 1483 002c 3C91      		ld r19,X
 1484 002e 1197      		sbiw r26, 1
 1485               	.LVL86:
 328:LUFA-111009/LUFA/Drivers/USB/Class/Common/HIDParser.c **** 	uint32_t BitMask      = (1 << 0);
 329:LUFA-111009/LUFA/Drivers/USB/Class/Common/HIDParser.c **** 
 330:LUFA-111009/LUFA/Drivers/USB/Class/Common/HIDParser.c **** 	if (ReportItem->ReportID)
 1486               		.loc 1 330 0
 1487 0030 1596      		adiw r26, 5
 1488 0032 2C91      		ld r18,X
 1489 0034 1597      		sbiw r26, 5
 1490 0036 2223      		tst r18
 1491 0038 01F0      		breq .L108
 331:LUFA-111009/LUFA/Drivers/USB/Class/Common/HIDParser.c **** 	{
 332:LUFA-111009/LUFA/Drivers/USB/Class/Common/HIDParser.c **** 		ReportData[0] = ReportItem->ReportID;
 1492               		.loc 1 332 0
 1493 003a FC01      		movw r30,r24
 1494 003c 2193      		st Z+,r18
 1495 003e CF01      		movw r24,r30
 1496               	.LVL87:
 1497               	.L108:
 333:LUFA-111009/LUFA/Drivers/USB/Class/Common/HIDParser.c **** 		ReportData++;
 334:LUFA-111009/LUFA/Drivers/USB/Class/Common/HIDParser.c **** 	}
 335:LUFA-111009/LUFA/Drivers/USB/Class/Common/HIDParser.c **** 
 336:LUFA-111009/LUFA/Drivers/USB/Class/Common/HIDParser.c **** 	ReportItem->PreviousValue = ReportItem->Value;
 1498               		.loc 1 336 0
 1499 0040 9296      		adiw r26,34
 1500 0042 4D91      		ld r20,X+
 1501 0044 5D91      		ld r21,X+
 1502 0046 6D91      		ld r22,X+
 1503 0048 7C91      		ld r23,X
 1504 004a 9597      		sbiw r26,34+3
 1505 004c 9696      		adiw r26,38
 1506 004e 4D93      		st X+,r20
 1507 0050 5D93      		st X+,r21
 1508 0052 6D93      		st X+,r22
 1509 0054 7C93      		st X,r23
 1510 0056 9997      		sbiw r26,38+3
 327:LUFA-111009/LUFA/Drivers/USB/Class/Common/HIDParser.c **** 	uint16_t CurrentBit   = ReportItem->BitOffset;
 1511               		.loc 1 327 0
 1512 0058 E12F      		mov r30,r17
 1513 005a F32F      		mov r31,r19
 328:LUFA-111009/LUFA/Drivers/USB/Class/Common/HIDParser.c **** 	uint32_t BitMask      = (1 << 0);
 1514               		.loc 1 328 0
 1515 005c 41E0      		ldi r20,lo8(1)
 1516 005e 50E0      		ldi r21,0
 1517 0060 60E0      		ldi r22,0
 1518 0062 70E0      		ldi r23,0
 320:LUFA-111009/LUFA/Drivers/USB/Class/Common/HIDParser.c **** void USB_SetHIDReportItemInfo(uint8_t* ReportData,
 1519               		.loc 1 320 0
 1520 0064 6E01      		movw r12,r28
 1521 0066 CE0E      		add r12,r30
 1522 0068 DF1E      		adc r13,r31
 337:LUFA-111009/LUFA/Drivers/USB/Class/Common/HIDParser.c **** 
 338:LUFA-111009/LUFA/Drivers/USB/Class/Common/HIDParser.c **** 	while (DataBitsRem--)
 339:LUFA-111009/LUFA/Drivers/USB/Class/Common/HIDParser.c **** 	{
 340:LUFA-111009/LUFA/Drivers/USB/Class/Common/HIDParser.c **** 		if (ReportItem->Value & (1 << (CurrentBit % 8)))
 1523               		.loc 1 340 0
 1524 006a EE24      		clr r14
 1525 006c E394      		inc r14
 1526 006e F12C      		mov r15,__zero_reg__
 338:LUFA-111009/LUFA/Drivers/USB/Class/Common/HIDParser.c **** 	while (DataBitsRem--)
 1527               		.loc 1 338 0
 1528 0070 00C0      		rjmp .L109
 1529               	.LVL88:
 1530               	.L111:
 1531               		.loc 1 340 0
 1532 0072 8F01      		movw r16,r30
 1533 0074 0770      		andi r16,7
 1534 0076 1127      		clr r17
 1535 0078 9701      		movw r18,r14
 1536 007a 00C0      		rjmp 2f
 1537               		1:
 1538 007c 220F      		lsl r18
 1539 007e 331F      		rol r19
 1540               		2:
 1541 0080 0A95      		dec r16
 1542 0082 02F4      		brpl 1b
 1543 0084 8901      		movw r16,r18
 1544 0086 2227      		clr r18
 1545 0088 17FD      		sbrc r17,7
 1546 008a 2095      		com r18
 1547 008c 322F      		mov r19,r18
 1548 008e 9296      		adiw r26,34
 1549 0090 8D90      		ld r8,X+
 1550 0092 9D90      		ld r9,X+
 1551 0094 AD90      		ld r10,X+
 1552 0096 BC90      		ld r11,X
 1553 0098 9597      		sbiw r26,34+3
 1554 009a 0821      		and r16,r8
 1555 009c 1921      		and r17,r9
 1556 009e 2A21      		and r18,r10
 1557 00a0 3B21      		and r19,r11
 1558 00a2 012B      		or r16,r17
 1559 00a4 022B      		or r16,r18
 1560 00a6 032B      		or r16,r19
 1561 00a8 01F0      		breq .L110
 341:LUFA-111009/LUFA/Drivers/USB/Class/Common/HIDParser.c **** 		  ReportData[CurrentBit / 8] |= BitMask;
 1562               		.loc 1 341 0
 1563 00aa 9F01      		movw r18,r30
 1564 00ac 13E0      		ldi r17,3
 1565               		1:
 1566 00ae 3695      		lsr r19
 1567 00b0 2795      		ror r18
 1568 00b2 1A95      		dec r17
 1569 00b4 01F4      		brne 1b
 1570 00b6 280F      		add r18,r24
 1571 00b8 391F      		adc r19,r25
 1572 00ba E901      		movw r28,r18
 1573 00bc 1881      		ld r17,Y
 1574 00be 142B      		or r17,r20
 1575 00c0 1883      		st Y,r17
 1576               	.L110:
 342:LUFA-111009/LUFA/Drivers/USB/Class/Common/HIDParser.c **** 
 343:LUFA-111009/LUFA/Drivers/USB/Class/Common/HIDParser.c **** 		CurrentBit++;
 1577               		.loc 1 343 0
 1578 00c2 3196      		adiw r30,1
 1579               	.LVL89:
 344:LUFA-111009/LUFA/Drivers/USB/Class/Common/HIDParser.c **** 		BitMask <<= 1;
 1580               		.loc 1 344 0
 1581 00c4 440F      		lsl r20
 1582 00c6 551F      		rol r21
 1583 00c8 661F      		rol r22
 1584 00ca 771F      		rol r23
 1585               	.LVL90:
 1586               	.L109:
 338:LUFA-111009/LUFA/Drivers/USB/Class/Common/HIDParser.c **** 	while (DataBitsRem--)
 1587               		.loc 1 338 0 discriminator 1
 1588 00cc CE16      		cp r12,r30
 1589 00ce DF06      		cpc r13,r31
 1590 00d0 01F4      		brne .L111
 1591               	.LVL91:
 1592               	.L106:
 1593               	/* epilogue start */
 345:LUFA-111009/LUFA/Drivers/USB/Class/Common/HIDParser.c **** 	}
 346:LUFA-111009/LUFA/Drivers/USB/Class/Common/HIDParser.c **** }
 1594               		.loc 1 346 0
 1595 00d2 DF91      		pop r29
 1596 00d4 CF91      		pop r28
 1597 00d6 1F91      		pop r17
 1598 00d8 0F91      		pop r16
 1599 00da FF90      		pop r15
 1600 00dc EF90      		pop r14
 1601 00de DF90      		pop r13
 1602 00e0 CF90      		pop r12
 1603 00e2 BF90      		pop r11
 1604 00e4 AF90      		pop r10
 1605 00e6 9F90      		pop r9
 1606 00e8 8F90      		pop r8
 1607 00ea 0895      		ret
 1608               		.cfi_endproc
 1609               	.LFE18:
 1611               		.section	.text.USB_GetHIDReportSize,"ax",@progbits
 1612               	.global	USB_GetHIDReportSize
 1614               	USB_GetHIDReportSize:
 1615               	.LFB19:
 347:LUFA-111009/LUFA/Drivers/USB/Class/Common/HIDParser.c **** 
 348:LUFA-111009/LUFA/Drivers/USB/Class/Common/HIDParser.c **** uint16_t USB_GetHIDReportSize(HID_ReportInfo_t* const ParserData,
 349:LUFA-111009/LUFA/Drivers/USB/Class/Common/HIDParser.c ****                               const uint8_t ReportID,
 350:LUFA-111009/LUFA/Drivers/USB/Class/Common/HIDParser.c ****                               const uint8_t ReportType)
 351:LUFA-111009/LUFA/Drivers/USB/Class/Common/HIDParser.c **** {
 1616               		.loc 1 351 0
 1617               		.cfi_startproc
 1618               	.LVL92:
 1619               	/* prologue: function */
 1620               	/* frame size = 0 */
 1621               	/* stack size = 0 */
 1622               	.L__stack_usage = 0
 1623               	.LBB18:
 348:LUFA-111009/LUFA/Drivers/USB/Class/Common/HIDParser.c **** uint16_t USB_GetHIDReportSize(HID_ReportInfo_t* const ParserData,
 1624               		.loc 1 348 0
 1625 0000 FC01      		movw r30,r24
 1626 0002 E40F      		add r30,r20
 1627 0004 F11D      		adc r31,__zero_reg__
 1628 0006 E40F      		add r30,r20
 1629 0008 F11D      		adc r31,__zero_reg__
 1630               	.LBE18:
 1631 000a 40E0      		ldi r20,0
 1632 000c 50E0      		ldi r21,0
 1633               	.LVL93:
 1634               	.L123:
 1635               	.LBB20:
 1636               	.LBB19:
 1637 000e DF01      		movw r26,r30
 1638 0010 A40F      		add r26,r20
 1639 0012 B51F      		adc r27,r21
 1640 0014 AF56      		subi r26,111
 1641 0016 BC4F      		sbci r27,-4
 352:LUFA-111009/LUFA/Drivers/USB/Class/Common/HIDParser.c **** 	for (uint8_t i = 0; i < HID_MAX_REPORT_IDS; i++)
 353:LUFA-111009/LUFA/Drivers/USB/Class/Common/HIDParser.c **** 	{
 354:LUFA-111009/LUFA/Drivers/USB/Class/Common/HIDParser.c **** 		uint16_t ReportSizeBits = ParserData->ReportIDSizes[i].ReportSizeBits[ReportType];
 1642               		.loc 1 354 0
 1643 0018 2D91      		ld r18,X+
 1644 001a 3C91      		ld r19,X
 1645               	.LVL94:
 348:LUFA-111009/LUFA/Drivers/USB/Class/Common/HIDParser.c **** uint16_t USB_GetHIDReportSize(HID_ReportInfo_t* const ParserData,
 1646               		.loc 1 348 0
 1647 001c DC01      		movw r26,r24
 1648 001e A40F      		add r26,r20
 1649 0020 B51F      		adc r27,r21
 1650 0022 A057      		subi r26,112
 1651 0024 BC4F      		sbci r27,-4
 355:LUFA-111009/LUFA/Drivers/USB/Class/Common/HIDParser.c **** 
 356:LUFA-111009/LUFA/Drivers/USB/Class/Common/HIDParser.c **** 		if (ParserData->ReportIDSizes[i].ReportID == ReportID)
 1652               		.loc 1 356 0
 1653 0026 7C91      		ld r23,X
 1654 0028 7613      		cpse r23,r22
 1655 002a 00C0      		rjmp .L120
 357:LUFA-111009/LUFA/Drivers/USB/Class/Common/HIDParser.c **** 		  return (ReportSizeBits / 8) + ((ReportSizeBits % 8) ? 1 : 0);
 1656               		.loc 1 357 0
 1657 002c A901      		movw r20,r18
 1658 002e 4770      		andi r20,7
 1659 0030 5527      		clr r21
 1660 0032 81E0      		ldi r24,lo8(1)
 1661 0034 90E0      		ldi r25,0
 1662               	.LVL95:
 1663 0036 452B      		or r20,r21
 1664 0038 01F4      		brne .L121
 1665 003a 80E0      		ldi r24,0
 1666 003c 90E0      		ldi r25,0
 1667               	.L121:
 1668 003e 43E0      		ldi r20,3
 1669               		1:
 1670 0040 3695      		lsr r19
 1671 0042 2795      		ror r18
 1672 0044 4A95      		dec r20
 1673 0046 01F4      		brne 1b
 1674               	.LVL96:
 1675 0048 280F      		add r18,r24
 1676 004a 391F      		adc r19,r25
 1677 004c 00C0      		rjmp .L122
 1678               	.LVL97:
 1679               	.L120:
 1680 004e 495F      		subi r20,-7
 1681 0050 5F4F      		sbci r21,-1
 1682               	.LBE19:
 352:LUFA-111009/LUFA/Drivers/USB/Class/Common/HIDParser.c **** 	for (uint8_t i = 0; i < HID_MAX_REPORT_IDS; i++)
 1683               		.loc 1 352 0
 1684 0052 4634      		cpi r20,70
 1685 0054 5105      		cpc r21,__zero_reg__
 1686 0056 01F4      		brne .L123
 358:LUFA-111009/LUFA/Drivers/USB/Class/Common/HIDParser.c **** 	}
 359:LUFA-111009/LUFA/Drivers/USB/Class/Common/HIDParser.c **** 
 360:LUFA-111009/LUFA/Drivers/USB/Class/Common/HIDParser.c **** 	return 0;
 1687               		.loc 1 360 0
 1688 0058 20E0      		ldi r18,0
 1689 005a 30E0      		ldi r19,0
 1690               	.LVL98:
 1691               	.L122:
 1692               	.LBE20:
 361:LUFA-111009/LUFA/Drivers/USB/Class/Common/HIDParser.c **** }
 1693               		.loc 1 361 0
 1694 005c C901      		movw r24,r18
 1695 005e 0895      		ret
 1696               		.cfi_endproc
 1697               	.LFE19:
 1699               		.text
 1700               	.Letext0:
 1701               		.file 2 "c:\\program files (x86)\\atmel\\avr tools\\avr toolchain\\bin\\../lib/gcc/avr/4.7.2/../..
 1702               		.file 3 "LUFA-111009/LUFA/Drivers/USB/Class/Common/../Common/HID.h"
 1703               		.file 4 "LUFA-111009/LUFA/Drivers/USB/Class/Common/HIDParser.h"