   1               		.file	"EndpointStream_AVR8.c"
   2               	__SP_H__ = 0x3e
   3               	__SP_L__ = 0x3d
   4               	__SREG__ = 0x3f
   5               	__tmp_reg__ = 0
   6               	__zero_reg__ = 1
   7               		.text
   8               	.Ltext0:
   9               		.cfi_sections	.debug_frame
  10               		.section	.text.Endpoint_Discard_Stream,"ax",@progbits
  11               	.global	Endpoint_Discard_Stream
  13               	Endpoint_Discard_Stream:
  14               	.LFB81:
  15               		.file 1 "LUFA-111009/LUFA/Drivers/USB/Core/AVR8/EndpointStream_AVR8.c"
   1:LUFA-111009/LUFA/Drivers/USB/Core/AVR8/EndpointStream_AVR8.c **** /*
   2:LUFA-111009/LUFA/Drivers/USB/Core/AVR8/EndpointStream_AVR8.c ****              LUFA Library
   3:LUFA-111009/LUFA/Drivers/USB/Core/AVR8/EndpointStream_AVR8.c ****      Copyright (C) Dean Camera, 2011.
   4:LUFA-111009/LUFA/Drivers/USB/Core/AVR8/EndpointStream_AVR8.c ****               
   5:LUFA-111009/LUFA/Drivers/USB/Core/AVR8/EndpointStream_AVR8.c ****   dean [at] fourwalledcubicle [dot] com
   6:LUFA-111009/LUFA/Drivers/USB/Core/AVR8/EndpointStream_AVR8.c ****            www.lufa-lib.org
   7:LUFA-111009/LUFA/Drivers/USB/Core/AVR8/EndpointStream_AVR8.c **** */
   8:LUFA-111009/LUFA/Drivers/USB/Core/AVR8/EndpointStream_AVR8.c **** 
   9:LUFA-111009/LUFA/Drivers/USB/Core/AVR8/EndpointStream_AVR8.c **** /*
  10:LUFA-111009/LUFA/Drivers/USB/Core/AVR8/EndpointStream_AVR8.c ****   Copyright 2011  Dean Camera (dean [at] fourwalledcubicle [dot] com)
  11:LUFA-111009/LUFA/Drivers/USB/Core/AVR8/EndpointStream_AVR8.c **** 
  12:LUFA-111009/LUFA/Drivers/USB/Core/AVR8/EndpointStream_AVR8.c ****   Permission to use, copy, modify, distribute, and sell this 
  13:LUFA-111009/LUFA/Drivers/USB/Core/AVR8/EndpointStream_AVR8.c ****   software and its documentation for any purpose is hereby granted
  14:LUFA-111009/LUFA/Drivers/USB/Core/AVR8/EndpointStream_AVR8.c ****   without fee, provided that the above copyright notice appear in 
  15:LUFA-111009/LUFA/Drivers/USB/Core/AVR8/EndpointStream_AVR8.c ****   all copies and that both that the copyright notice and this
  16:LUFA-111009/LUFA/Drivers/USB/Core/AVR8/EndpointStream_AVR8.c ****   permission notice and warranty disclaimer appear in supporting 
  17:LUFA-111009/LUFA/Drivers/USB/Core/AVR8/EndpointStream_AVR8.c ****   documentation, and that the name of the author not be used in 
  18:LUFA-111009/LUFA/Drivers/USB/Core/AVR8/EndpointStream_AVR8.c ****   advertising or publicity pertaining to distribution of the 
  19:LUFA-111009/LUFA/Drivers/USB/Core/AVR8/EndpointStream_AVR8.c ****   software without specific, written prior permission.
  20:LUFA-111009/LUFA/Drivers/USB/Core/AVR8/EndpointStream_AVR8.c **** 
  21:LUFA-111009/LUFA/Drivers/USB/Core/AVR8/EndpointStream_AVR8.c ****   The author disclaim all warranties with regard to this
  22:LUFA-111009/LUFA/Drivers/USB/Core/AVR8/EndpointStream_AVR8.c ****   software, including all implied warranties of merchantability
  23:LUFA-111009/LUFA/Drivers/USB/Core/AVR8/EndpointStream_AVR8.c ****   and fitness.  In no event shall the author be liable for any
  24:LUFA-111009/LUFA/Drivers/USB/Core/AVR8/EndpointStream_AVR8.c ****   special, indirect or consequential damages or any damages
  25:LUFA-111009/LUFA/Drivers/USB/Core/AVR8/EndpointStream_AVR8.c ****   whatsoever resulting from loss of use, data or profits, whether
  26:LUFA-111009/LUFA/Drivers/USB/Core/AVR8/EndpointStream_AVR8.c ****   in an action of contract, negligence or other tortious action,
  27:LUFA-111009/LUFA/Drivers/USB/Core/AVR8/EndpointStream_AVR8.c ****   arising out of or in connection with the use or performance of
  28:LUFA-111009/LUFA/Drivers/USB/Core/AVR8/EndpointStream_AVR8.c ****   this software.
  29:LUFA-111009/LUFA/Drivers/USB/Core/AVR8/EndpointStream_AVR8.c **** */
  30:LUFA-111009/LUFA/Drivers/USB/Core/AVR8/EndpointStream_AVR8.c **** 
  31:LUFA-111009/LUFA/Drivers/USB/Core/AVR8/EndpointStream_AVR8.c **** #define  __INCLUDE_FROM_USB_DRIVER
  32:LUFA-111009/LUFA/Drivers/USB/Core/AVR8/EndpointStream_AVR8.c **** #include "../USBMode.h"
  33:LUFA-111009/LUFA/Drivers/USB/Core/AVR8/EndpointStream_AVR8.c **** 
  34:LUFA-111009/LUFA/Drivers/USB/Core/AVR8/EndpointStream_AVR8.c **** #if defined(USB_CAN_BE_DEVICE)
  35:LUFA-111009/LUFA/Drivers/USB/Core/AVR8/EndpointStream_AVR8.c **** 
  36:LUFA-111009/LUFA/Drivers/USB/Core/AVR8/EndpointStream_AVR8.c **** #include "EndpointStream_AVR8.h"
  37:LUFA-111009/LUFA/Drivers/USB/Core/AVR8/EndpointStream_AVR8.c **** 
  38:LUFA-111009/LUFA/Drivers/USB/Core/AVR8/EndpointStream_AVR8.c **** #if !defined(CONTROL_ONLY_DEVICE)
  39:LUFA-111009/LUFA/Drivers/USB/Core/AVR8/EndpointStream_AVR8.c **** uint8_t Endpoint_Discard_Stream(uint16_t Length,
  40:LUFA-111009/LUFA/Drivers/USB/Core/AVR8/EndpointStream_AVR8.c ****                                 uint16_t* const BytesProcessed)
  41:LUFA-111009/LUFA/Drivers/USB/Core/AVR8/EndpointStream_AVR8.c **** {
  16               		.loc 1 41 0
  17               		.cfi_startproc
  18               	.LVL0:
  19 0000 DF92      		push r13
  20               	.LCFI0:
  21               		.cfi_def_cfa_offset 3
  22               		.cfi_offset 13, -2
  23 0002 EF92      		push r14
  24               	.LCFI1:
  25               		.cfi_def_cfa_offset 4
  26               		.cfi_offset 14, -3
  27 0004 FF92      		push r15
  28               	.LCFI2:
  29               		.cfi_def_cfa_offset 5
  30               		.cfi_offset 15, -4
  31 0006 0F93      		push r16
  32               	.LCFI3:
  33               		.cfi_def_cfa_offset 6
  34               		.cfi_offset 16, -5
  35 0008 1F93      		push r17
  36               	.LCFI4:
  37               		.cfi_def_cfa_offset 7
  38               		.cfi_offset 17, -6
  39 000a CF93      		push r28
  40               	.LCFI5:
  41               		.cfi_def_cfa_offset 8
  42               		.cfi_offset 28, -7
  43 000c DF93      		push r29
  44               	.LCFI6:
  45               		.cfi_def_cfa_offset 9
  46               		.cfi_offset 29, -8
  47               	/* prologue: function */
  48               	/* frame size = 0 */
  49               	/* stack size = 7 */
  50               	.L__stack_usage = 7
  51 000e 8C01      		movw r16,r24
  52 0010 EB01      		movw r28,r22
  53               	.LVL1:
  42:LUFA-111009/LUFA/Drivers/USB/Core/AVR8/EndpointStream_AVR8.c **** 	uint8_t  ErrorCode;
  43:LUFA-111009/LUFA/Drivers/USB/Core/AVR8/EndpointStream_AVR8.c **** 	uint16_t BytesInTransfer = 0;
  44:LUFA-111009/LUFA/Drivers/USB/Core/AVR8/EndpointStream_AVR8.c **** 	
  45:LUFA-111009/LUFA/Drivers/USB/Core/AVR8/EndpointStream_AVR8.c **** 	if ((ErrorCode = Endpoint_WaitUntilReady()))
  54               		.loc 1 45 0
  55 0012 0E94 0000 		call Endpoint_WaitUntilReady
  56               	.LVL2:
  57 0016 D82E      		mov r13,r24
  58               	.LVL3:
  59 0018 8111      		cpse r24,__zero_reg__
  60 001a 00C0      		rjmp .L2
  46:LUFA-111009/LUFA/Drivers/USB/Core/AVR8/EndpointStream_AVR8.c **** 	  return ErrorCode;
  47:LUFA-111009/LUFA/Drivers/USB/Core/AVR8/EndpointStream_AVR8.c **** 	  
  48:LUFA-111009/LUFA/Drivers/USB/Core/AVR8/EndpointStream_AVR8.c **** 	if (BytesProcessed != NULL)
  61               		.loc 1 48 0
  62 001c 2097      		sbiw r28,0
  63 001e 01F0      		breq .L3
  49:LUFA-111009/LUFA/Drivers/USB/Core/AVR8/EndpointStream_AVR8.c **** 	  Length -= *BytesProcessed;
  64               		.loc 1 49 0
  65 0020 2881      		ld r18,Y
  66 0022 3981      		ldd r19,Y+1
  67 0024 021B      		sub r16,r18
  68 0026 130B      		sbc r17,r19
  69               	.LVL4:
  70               	.L3:
  41:LUFA-111009/LUFA/Drivers/USB/Core/AVR8/EndpointStream_AVR8.c **** {
  71               		.loc 1 41 0 discriminator 1
  72 0028 E12C      		mov r14,__zero_reg__
  73 002a F12C      		mov r15,__zero_reg__
  74 002c 00C0      		rjmp .L13
  75               	.LVL5:
  76               	.L8:
  77               	.LBB256:
  78               	.LBB257:
  79               		.file 2 "LUFA-111009/LUFA/Drivers/USB/Core/AVR8/../AVR8/../AVR8/Endpoint_AVR8.h"
   1:LUFA-111009/LUFA/Drivers/USB/Core/AVR8/../AVR8/../AVR8/Endpoint_AVR8.h **** /*
   2:LUFA-111009/LUFA/Drivers/USB/Core/AVR8/../AVR8/../AVR8/Endpoint_AVR8.h ****              LUFA Library
   3:LUFA-111009/LUFA/Drivers/USB/Core/AVR8/../AVR8/../AVR8/Endpoint_AVR8.h ****      Copyright (C) Dean Camera, 2011.
   4:LUFA-111009/LUFA/Drivers/USB/Core/AVR8/../AVR8/../AVR8/Endpoint_AVR8.h **** 
   5:LUFA-111009/LUFA/Drivers/USB/Core/AVR8/../AVR8/../AVR8/Endpoint_AVR8.h ****   dean [at] fourwalledcubicle [dot] com
   6:LUFA-111009/LUFA/Drivers/USB/Core/AVR8/../AVR8/../AVR8/Endpoint_AVR8.h ****            www.lufa-lib.org
   7:LUFA-111009/LUFA/Drivers/USB/Core/AVR8/../AVR8/../AVR8/Endpoint_AVR8.h **** */
   8:LUFA-111009/LUFA/Drivers/USB/Core/AVR8/../AVR8/../AVR8/Endpoint_AVR8.h **** 
   9:LUFA-111009/LUFA/Drivers/USB/Core/AVR8/../AVR8/../AVR8/Endpoint_AVR8.h **** /*
  10:LUFA-111009/LUFA/Drivers/USB/Core/AVR8/../AVR8/../AVR8/Endpoint_AVR8.h ****   Copyright 2011  Dean Camera (dean [at] fourwalledcubicle [dot] com)
  11:LUFA-111009/LUFA/Drivers/USB/Core/AVR8/../AVR8/../AVR8/Endpoint_AVR8.h **** 
  12:LUFA-111009/LUFA/Drivers/USB/Core/AVR8/../AVR8/../AVR8/Endpoint_AVR8.h ****   Permission to use, copy, modify, distribute, and sell this
  13:LUFA-111009/LUFA/Drivers/USB/Core/AVR8/../AVR8/../AVR8/Endpoint_AVR8.h ****   software and its documentation for any purpose is hereby granted
  14:LUFA-111009/LUFA/Drivers/USB/Core/AVR8/../AVR8/../AVR8/Endpoint_AVR8.h ****   without fee, provided that the above copyright notice appear in
  15:LUFA-111009/LUFA/Drivers/USB/Core/AVR8/../AVR8/../AVR8/Endpoint_AVR8.h ****   all copies and that both that the copyright notice and this
  16:LUFA-111009/LUFA/Drivers/USB/Core/AVR8/../AVR8/../AVR8/Endpoint_AVR8.h ****   permission notice and warranty disclaimer appear in supporting
  17:LUFA-111009/LUFA/Drivers/USB/Core/AVR8/../AVR8/../AVR8/Endpoint_AVR8.h ****   documentation, and that the name of the author not be used in
  18:LUFA-111009/LUFA/Drivers/USB/Core/AVR8/../AVR8/../AVR8/Endpoint_AVR8.h ****   advertising or publicity pertaining to distribution of the
  19:LUFA-111009/LUFA/Drivers/USB/Core/AVR8/../AVR8/../AVR8/Endpoint_AVR8.h ****   software without specific, written prior permission.
  20:LUFA-111009/LUFA/Drivers/USB/Core/AVR8/../AVR8/../AVR8/Endpoint_AVR8.h **** 
  21:LUFA-111009/LUFA/Drivers/USB/Core/AVR8/../AVR8/../AVR8/Endpoint_AVR8.h ****   The author disclaim all warranties with regard to this
  22:LUFA-111009/LUFA/Drivers/USB/Core/AVR8/../AVR8/../AVR8/Endpoint_AVR8.h ****   software, including all implied warranties of merchantability
  23:LUFA-111009/LUFA/Drivers/USB/Core/AVR8/../AVR8/../AVR8/Endpoint_AVR8.h ****   and fitness.  In no event shall the author be liable for any
  24:LUFA-111009/LUFA/Drivers/USB/Core/AVR8/../AVR8/../AVR8/Endpoint_AVR8.h ****   special, indirect or consequential damages or any damages
  25:LUFA-111009/LUFA/Drivers/USB/Core/AVR8/../AVR8/../AVR8/Endpoint_AVR8.h ****   whatsoever resulting from loss of use, data or profits, whether
  26:LUFA-111009/LUFA/Drivers/USB/Core/AVR8/../AVR8/../AVR8/Endpoint_AVR8.h ****   in an action of contract, negligence or other tortious action,
  27:LUFA-111009/LUFA/Drivers/USB/Core/AVR8/../AVR8/../AVR8/Endpoint_AVR8.h ****   arising out of or in connection with the use or performance of
  28:LUFA-111009/LUFA/Drivers/USB/Core/AVR8/../AVR8/../AVR8/Endpoint_AVR8.h ****   this software.
  29:LUFA-111009/LUFA/Drivers/USB/Core/AVR8/../AVR8/../AVR8/Endpoint_AVR8.h **** */
  30:LUFA-111009/LUFA/Drivers/USB/Core/AVR8/../AVR8/../AVR8/Endpoint_AVR8.h **** 
  31:LUFA-111009/LUFA/Drivers/USB/Core/AVR8/../AVR8/../AVR8/Endpoint_AVR8.h **** /** \file
  32:LUFA-111009/LUFA/Drivers/USB/Core/AVR8/../AVR8/../AVR8/Endpoint_AVR8.h ****  *  \brief USB Endpoint definitions for the AVR8 microcontrollers.
  33:LUFA-111009/LUFA/Drivers/USB/Core/AVR8/../AVR8/../AVR8/Endpoint_AVR8.h ****  *  \copydetails Group_EndpointManagement_AVR8
  34:LUFA-111009/LUFA/Drivers/USB/Core/AVR8/../AVR8/../AVR8/Endpoint_AVR8.h ****  *
  35:LUFA-111009/LUFA/Drivers/USB/Core/AVR8/../AVR8/../AVR8/Endpoint_AVR8.h ****  *  \note This file should not be included directly. It is automatically included as needed by the 
  36:LUFA-111009/LUFA/Drivers/USB/Core/AVR8/../AVR8/../AVR8/Endpoint_AVR8.h ****  *        dispatch header located in LUFA/Drivers/USB/USB.h.
  37:LUFA-111009/LUFA/Drivers/USB/Core/AVR8/../AVR8/../AVR8/Endpoint_AVR8.h ****  */
  38:LUFA-111009/LUFA/Drivers/USB/Core/AVR8/../AVR8/../AVR8/Endpoint_AVR8.h **** 
  39:LUFA-111009/LUFA/Drivers/USB/Core/AVR8/../AVR8/../AVR8/Endpoint_AVR8.h **** /** \ingroup Group_EndpointRW
  40:LUFA-111009/LUFA/Drivers/USB/Core/AVR8/../AVR8/../AVR8/Endpoint_AVR8.h ****  *  \defgroup Group_EndpointRW_AVR8 Endpoint Data Reading and Writing (AVR8)
  41:LUFA-111009/LUFA/Drivers/USB/Core/AVR8/../AVR8/../AVR8/Endpoint_AVR8.h ****  *  \brief Endpoint data read/write definitions for the Atmel AVR8 architecture.
  42:LUFA-111009/LUFA/Drivers/USB/Core/AVR8/../AVR8/../AVR8/Endpoint_AVR8.h ****  *
  43:LUFA-111009/LUFA/Drivers/USB/Core/AVR8/../AVR8/../AVR8/Endpoint_AVR8.h ****  *  Functions, macros, variables, enums and types related to data reading and writing from and to e
  44:LUFA-111009/LUFA/Drivers/USB/Core/AVR8/../AVR8/../AVR8/Endpoint_AVR8.h ****  */
  45:LUFA-111009/LUFA/Drivers/USB/Core/AVR8/../AVR8/../AVR8/Endpoint_AVR8.h **** 
  46:LUFA-111009/LUFA/Drivers/USB/Core/AVR8/../AVR8/../AVR8/Endpoint_AVR8.h **** /** \ingroup Group_EndpointPrimitiveRW
  47:LUFA-111009/LUFA/Drivers/USB/Core/AVR8/../AVR8/../AVR8/Endpoint_AVR8.h ****  *  \defgroup Group_EndpointPrimitiveRW_AVR8 Read/Write of Primitive Data Types (AVR8)
  48:LUFA-111009/LUFA/Drivers/USB/Core/AVR8/../AVR8/../AVR8/Endpoint_AVR8.h ****  *  \brief Endpoint primitive read/write definitions for the Atmel AVR8 architecture.
  49:LUFA-111009/LUFA/Drivers/USB/Core/AVR8/../AVR8/../AVR8/Endpoint_AVR8.h ****  *
  50:LUFA-111009/LUFA/Drivers/USB/Core/AVR8/../AVR8/../AVR8/Endpoint_AVR8.h ****  *  Functions, macros, variables, enums and types related to data reading and writing of primitive 
  51:LUFA-111009/LUFA/Drivers/USB/Core/AVR8/../AVR8/../AVR8/Endpoint_AVR8.h ****  *  from and to endpoints.
  52:LUFA-111009/LUFA/Drivers/USB/Core/AVR8/../AVR8/../AVR8/Endpoint_AVR8.h ****  */
  53:LUFA-111009/LUFA/Drivers/USB/Core/AVR8/../AVR8/../AVR8/Endpoint_AVR8.h **** 
  54:LUFA-111009/LUFA/Drivers/USB/Core/AVR8/../AVR8/../AVR8/Endpoint_AVR8.h **** /** \ingroup Group_EndpointPacketManagement
  55:LUFA-111009/LUFA/Drivers/USB/Core/AVR8/../AVR8/../AVR8/Endpoint_AVR8.h ****  *  \defgroup Group_EndpointPacketManagement_AVR8 Endpoint Packet Management (AVR8)
  56:LUFA-111009/LUFA/Drivers/USB/Core/AVR8/../AVR8/../AVR8/Endpoint_AVR8.h ****  *  \brief Endpoint packet management definitions for the Atmel AVR8 architecture.
  57:LUFA-111009/LUFA/Drivers/USB/Core/AVR8/../AVR8/../AVR8/Endpoint_AVR8.h ****  *
  58:LUFA-111009/LUFA/Drivers/USB/Core/AVR8/../AVR8/../AVR8/Endpoint_AVR8.h ****  *  Functions, macros, variables, enums and types related to packet management of endpoints.
  59:LUFA-111009/LUFA/Drivers/USB/Core/AVR8/../AVR8/../AVR8/Endpoint_AVR8.h ****  */
  60:LUFA-111009/LUFA/Drivers/USB/Core/AVR8/../AVR8/../AVR8/Endpoint_AVR8.h **** 
  61:LUFA-111009/LUFA/Drivers/USB/Core/AVR8/../AVR8/../AVR8/Endpoint_AVR8.h **** /** \ingroup Group_EndpointManagement
  62:LUFA-111009/LUFA/Drivers/USB/Core/AVR8/../AVR8/../AVR8/Endpoint_AVR8.h ****  *  \defgroup Group_EndpointManagement_AVR8 Endpoint Management (AVR8)
  63:LUFA-111009/LUFA/Drivers/USB/Core/AVR8/../AVR8/../AVR8/Endpoint_AVR8.h ****  *  \brief Endpoint management definitions for the Atmel AVR8 architecture.
  64:LUFA-111009/LUFA/Drivers/USB/Core/AVR8/../AVR8/../AVR8/Endpoint_AVR8.h ****  *
  65:LUFA-111009/LUFA/Drivers/USB/Core/AVR8/../AVR8/../AVR8/Endpoint_AVR8.h ****  *  Functions, macros and enums related to endpoint management when in USB Device mode. This
  66:LUFA-111009/LUFA/Drivers/USB/Core/AVR8/../AVR8/../AVR8/Endpoint_AVR8.h ****  *  module contains the endpoint management macros, as well as endpoint interrupt and data
  67:LUFA-111009/LUFA/Drivers/USB/Core/AVR8/../AVR8/../AVR8/Endpoint_AVR8.h ****  *  send/receive functions for various data types.
  68:LUFA-111009/LUFA/Drivers/USB/Core/AVR8/../AVR8/../AVR8/Endpoint_AVR8.h ****  *
  69:LUFA-111009/LUFA/Drivers/USB/Core/AVR8/../AVR8/../AVR8/Endpoint_AVR8.h ****  *  @{
  70:LUFA-111009/LUFA/Drivers/USB/Core/AVR8/../AVR8/../AVR8/Endpoint_AVR8.h ****  */
  71:LUFA-111009/LUFA/Drivers/USB/Core/AVR8/../AVR8/../AVR8/Endpoint_AVR8.h **** 
  72:LUFA-111009/LUFA/Drivers/USB/Core/AVR8/../AVR8/../AVR8/Endpoint_AVR8.h **** #ifndef __ENDPOINT_AVR8_H__
  73:LUFA-111009/LUFA/Drivers/USB/Core/AVR8/../AVR8/../AVR8/Endpoint_AVR8.h **** #define __ENDPOINT_AVR8_H__
  74:LUFA-111009/LUFA/Drivers/USB/Core/AVR8/../AVR8/../AVR8/Endpoint_AVR8.h **** 
  75:LUFA-111009/LUFA/Drivers/USB/Core/AVR8/../AVR8/../AVR8/Endpoint_AVR8.h **** 	/* Includes: */
  76:LUFA-111009/LUFA/Drivers/USB/Core/AVR8/../AVR8/../AVR8/Endpoint_AVR8.h **** 		#include "../../../../Common/Common.h"
  77:LUFA-111009/LUFA/Drivers/USB/Core/AVR8/../AVR8/../AVR8/Endpoint_AVR8.h **** 		#include "../USBTask.h"
  78:LUFA-111009/LUFA/Drivers/USB/Core/AVR8/../AVR8/../AVR8/Endpoint_AVR8.h **** 		#include "../USBInterrupt.h"
  79:LUFA-111009/LUFA/Drivers/USB/Core/AVR8/../AVR8/../AVR8/Endpoint_AVR8.h **** 
  80:LUFA-111009/LUFA/Drivers/USB/Core/AVR8/../AVR8/../AVR8/Endpoint_AVR8.h **** 	/* Enable C linkage for C++ Compilers: */
  81:LUFA-111009/LUFA/Drivers/USB/Core/AVR8/../AVR8/../AVR8/Endpoint_AVR8.h **** 		#if defined(__cplusplus)
  82:LUFA-111009/LUFA/Drivers/USB/Core/AVR8/../AVR8/../AVR8/Endpoint_AVR8.h **** 			extern "C" {
  83:LUFA-111009/LUFA/Drivers/USB/Core/AVR8/../AVR8/../AVR8/Endpoint_AVR8.h **** 		#endif
  84:LUFA-111009/LUFA/Drivers/USB/Core/AVR8/../AVR8/../AVR8/Endpoint_AVR8.h **** 
  85:LUFA-111009/LUFA/Drivers/USB/Core/AVR8/../AVR8/../AVR8/Endpoint_AVR8.h **** 	/* Preprocessor Checks: */
  86:LUFA-111009/LUFA/Drivers/USB/Core/AVR8/../AVR8/../AVR8/Endpoint_AVR8.h **** 		#if !defined(__INCLUDE_FROM_USB_DRIVER)
  87:LUFA-111009/LUFA/Drivers/USB/Core/AVR8/../AVR8/../AVR8/Endpoint_AVR8.h **** 			#error Do not include this file directly. Include LUFA/Drivers/USB/USB.h instead.
  88:LUFA-111009/LUFA/Drivers/USB/Core/AVR8/../AVR8/../AVR8/Endpoint_AVR8.h **** 		#endif
  89:LUFA-111009/LUFA/Drivers/USB/Core/AVR8/../AVR8/../AVR8/Endpoint_AVR8.h **** 
  90:LUFA-111009/LUFA/Drivers/USB/Core/AVR8/../AVR8/../AVR8/Endpoint_AVR8.h **** 	/* Private Interface - For use in library only: */
  91:LUFA-111009/LUFA/Drivers/USB/Core/AVR8/../AVR8/../AVR8/Endpoint_AVR8.h **** 	#if !defined(__DOXYGEN__)
  92:LUFA-111009/LUFA/Drivers/USB/Core/AVR8/../AVR8/../AVR8/Endpoint_AVR8.h **** 		/* Macros: */
  93:LUFA-111009/LUFA/Drivers/USB/Core/AVR8/../AVR8/../AVR8/Endpoint_AVR8.h **** 			#define _ENDPOINT_GET_MAXSIZE(EPIndex)         _ENDPOINT_GET_MAXSIZE2(ENDPOINT_DETAILS_EP ## EPI
  94:LUFA-111009/LUFA/Drivers/USB/Core/AVR8/../AVR8/../AVR8/Endpoint_AVR8.h **** 			#define _ENDPOINT_GET_MAXSIZE2(EPDetails)      _ENDPOINT_GET_MAXSIZE3(EPDetails)
  95:LUFA-111009/LUFA/Drivers/USB/Core/AVR8/../AVR8/../AVR8/Endpoint_AVR8.h **** 			#define _ENDPOINT_GET_MAXSIZE3(MaxSize, Banks) (MaxSize)
  96:LUFA-111009/LUFA/Drivers/USB/Core/AVR8/../AVR8/../AVR8/Endpoint_AVR8.h **** 
  97:LUFA-111009/LUFA/Drivers/USB/Core/AVR8/../AVR8/../AVR8/Endpoint_AVR8.h **** 			#define _ENDPOINT_GET_BANKS(EPIndex)           _ENDPOINT_GET_BANKS2(ENDPOINT_DETAILS_EP ## EPInd
  98:LUFA-111009/LUFA/Drivers/USB/Core/AVR8/../AVR8/../AVR8/Endpoint_AVR8.h **** 			#define _ENDPOINT_GET_BANKS2(EPDetails)        _ENDPOINT_GET_BANKS3(EPDetails)
  99:LUFA-111009/LUFA/Drivers/USB/Core/AVR8/../AVR8/../AVR8/Endpoint_AVR8.h **** 			#define _ENDPOINT_GET_BANKS3(MaxSize, Banks)   (Banks)
 100:LUFA-111009/LUFA/Drivers/USB/Core/AVR8/../AVR8/../AVR8/Endpoint_AVR8.h **** 
 101:LUFA-111009/LUFA/Drivers/USB/Core/AVR8/../AVR8/../AVR8/Endpoint_AVR8.h **** 			#if defined(USB_SERIES_4_AVR) || defined(USB_SERIES_6_AVR) || defined(USB_SERIES_7_AVR)
 102:LUFA-111009/LUFA/Drivers/USB/Core/AVR8/../AVR8/../AVR8/Endpoint_AVR8.h **** 				#define ENDPOINT_DETAILS_MAXEP             7
 103:LUFA-111009/LUFA/Drivers/USB/Core/AVR8/../AVR8/../AVR8/Endpoint_AVR8.h **** 
 104:LUFA-111009/LUFA/Drivers/USB/Core/AVR8/../AVR8/../AVR8/Endpoint_AVR8.h **** 				#define ENDPOINT_DETAILS_EP0               64,  1
 105:LUFA-111009/LUFA/Drivers/USB/Core/AVR8/../AVR8/../AVR8/Endpoint_AVR8.h **** 				#define ENDPOINT_DETAILS_EP1               256, 2
 106:LUFA-111009/LUFA/Drivers/USB/Core/AVR8/../AVR8/../AVR8/Endpoint_AVR8.h **** 				#define ENDPOINT_DETAILS_EP2               64,  2
 107:LUFA-111009/LUFA/Drivers/USB/Core/AVR8/../AVR8/../AVR8/Endpoint_AVR8.h **** 				#define ENDPOINT_DETAILS_EP3               64,  2
 108:LUFA-111009/LUFA/Drivers/USB/Core/AVR8/../AVR8/../AVR8/Endpoint_AVR8.h **** 				#define ENDPOINT_DETAILS_EP4               64,  2
 109:LUFA-111009/LUFA/Drivers/USB/Core/AVR8/../AVR8/../AVR8/Endpoint_AVR8.h **** 				#define ENDPOINT_DETAILS_EP5               64,  2
 110:LUFA-111009/LUFA/Drivers/USB/Core/AVR8/../AVR8/../AVR8/Endpoint_AVR8.h **** 				#define ENDPOINT_DETAILS_EP6               64,  2
 111:LUFA-111009/LUFA/Drivers/USB/Core/AVR8/../AVR8/../AVR8/Endpoint_AVR8.h **** 			#else
 112:LUFA-111009/LUFA/Drivers/USB/Core/AVR8/../AVR8/../AVR8/Endpoint_AVR8.h **** 				#define ENDPOINT_DETAILS_MAXEP             5
 113:LUFA-111009/LUFA/Drivers/USB/Core/AVR8/../AVR8/../AVR8/Endpoint_AVR8.h **** 
 114:LUFA-111009/LUFA/Drivers/USB/Core/AVR8/../AVR8/../AVR8/Endpoint_AVR8.h **** 				#define ENDPOINT_DETAILS_EP0               64,  1
 115:LUFA-111009/LUFA/Drivers/USB/Core/AVR8/../AVR8/../AVR8/Endpoint_AVR8.h **** 				#define ENDPOINT_DETAILS_EP1               64,  1
 116:LUFA-111009/LUFA/Drivers/USB/Core/AVR8/../AVR8/../AVR8/Endpoint_AVR8.h **** 				#define ENDPOINT_DETAILS_EP2               64,  1
 117:LUFA-111009/LUFA/Drivers/USB/Core/AVR8/../AVR8/../AVR8/Endpoint_AVR8.h **** 				#define ENDPOINT_DETAILS_EP3               64,  2
 118:LUFA-111009/LUFA/Drivers/USB/Core/AVR8/../AVR8/../AVR8/Endpoint_AVR8.h **** 				#define ENDPOINT_DETAILS_EP4               64,  2
 119:LUFA-111009/LUFA/Drivers/USB/Core/AVR8/../AVR8/../AVR8/Endpoint_AVR8.h **** 			#endif
 120:LUFA-111009/LUFA/Drivers/USB/Core/AVR8/../AVR8/../AVR8/Endpoint_AVR8.h **** 
 121:LUFA-111009/LUFA/Drivers/USB/Core/AVR8/../AVR8/../AVR8/Endpoint_AVR8.h **** 		/* Inline Functions: */
 122:LUFA-111009/LUFA/Drivers/USB/Core/AVR8/../AVR8/../AVR8/Endpoint_AVR8.h **** 			static inline uint8_t Endpoint_BytesToEPSizeMask(const uint16_t Bytes) ATTR_WARN_UNUSED_RESULT A
 123:LUFA-111009/LUFA/Drivers/USB/Core/AVR8/../AVR8/../AVR8/Endpoint_AVR8.h **** 			                                                                       ATTR_ALWAYS_INLINE;
 124:LUFA-111009/LUFA/Drivers/USB/Core/AVR8/../AVR8/../AVR8/Endpoint_AVR8.h **** 			static inline uint8_t Endpoint_BytesToEPSizeMask(const uint16_t Bytes)
 125:LUFA-111009/LUFA/Drivers/USB/Core/AVR8/../AVR8/../AVR8/Endpoint_AVR8.h **** 			{
 126:LUFA-111009/LUFA/Drivers/USB/Core/AVR8/../AVR8/../AVR8/Endpoint_AVR8.h **** 				uint8_t  MaskVal    = 0;
 127:LUFA-111009/LUFA/Drivers/USB/Core/AVR8/../AVR8/../AVR8/Endpoint_AVR8.h **** 				uint16_t CheckBytes = 8;
 128:LUFA-111009/LUFA/Drivers/USB/Core/AVR8/../AVR8/../AVR8/Endpoint_AVR8.h **** 
 129:LUFA-111009/LUFA/Drivers/USB/Core/AVR8/../AVR8/../AVR8/Endpoint_AVR8.h **** 				while (CheckBytes < Bytes)
 130:LUFA-111009/LUFA/Drivers/USB/Core/AVR8/../AVR8/../AVR8/Endpoint_AVR8.h **** 				{
 131:LUFA-111009/LUFA/Drivers/USB/Core/AVR8/../AVR8/../AVR8/Endpoint_AVR8.h **** 					MaskVal++;
 132:LUFA-111009/LUFA/Drivers/USB/Core/AVR8/../AVR8/../AVR8/Endpoint_AVR8.h **** 					CheckBytes <<= 1;
 133:LUFA-111009/LUFA/Drivers/USB/Core/AVR8/../AVR8/../AVR8/Endpoint_AVR8.h **** 				}
 134:LUFA-111009/LUFA/Drivers/USB/Core/AVR8/../AVR8/../AVR8/Endpoint_AVR8.h **** 
 135:LUFA-111009/LUFA/Drivers/USB/Core/AVR8/../AVR8/../AVR8/Endpoint_AVR8.h **** 				return (MaskVal << EPSIZE0);
 136:LUFA-111009/LUFA/Drivers/USB/Core/AVR8/../AVR8/../AVR8/Endpoint_AVR8.h **** 			}
 137:LUFA-111009/LUFA/Drivers/USB/Core/AVR8/../AVR8/../AVR8/Endpoint_AVR8.h **** 
 138:LUFA-111009/LUFA/Drivers/USB/Core/AVR8/../AVR8/../AVR8/Endpoint_AVR8.h **** 		/* Function Prototypes: */
 139:LUFA-111009/LUFA/Drivers/USB/Core/AVR8/../AVR8/../AVR8/Endpoint_AVR8.h **** 			void Endpoint_ClearEndpoints(void);
 140:LUFA-111009/LUFA/Drivers/USB/Core/AVR8/../AVR8/../AVR8/Endpoint_AVR8.h **** 			bool Endpoint_ConfigureEndpoint_Prv(const uint8_t Number,
 141:LUFA-111009/LUFA/Drivers/USB/Core/AVR8/../AVR8/../AVR8/Endpoint_AVR8.h **** 			                                    const uint8_t UECFG0XData,
 142:LUFA-111009/LUFA/Drivers/USB/Core/AVR8/../AVR8/../AVR8/Endpoint_AVR8.h **** 			                                    const uint8_t UECFG1XData);
 143:LUFA-111009/LUFA/Drivers/USB/Core/AVR8/../AVR8/../AVR8/Endpoint_AVR8.h **** 
 144:LUFA-111009/LUFA/Drivers/USB/Core/AVR8/../AVR8/../AVR8/Endpoint_AVR8.h **** 	#endif
 145:LUFA-111009/LUFA/Drivers/USB/Core/AVR8/../AVR8/../AVR8/Endpoint_AVR8.h **** 
 146:LUFA-111009/LUFA/Drivers/USB/Core/AVR8/../AVR8/../AVR8/Endpoint_AVR8.h **** 	/* Public Interface - May be used in end-application: */
 147:LUFA-111009/LUFA/Drivers/USB/Core/AVR8/../AVR8/../AVR8/Endpoint_AVR8.h **** 		/* Macros: */			
 148:LUFA-111009/LUFA/Drivers/USB/Core/AVR8/../AVR8/../AVR8/Endpoint_AVR8.h **** 			/** \name Endpoint Bank Mode Masks */
 149:LUFA-111009/LUFA/Drivers/USB/Core/AVR8/../AVR8/../AVR8/Endpoint_AVR8.h **** 			//@{
 150:LUFA-111009/LUFA/Drivers/USB/Core/AVR8/../AVR8/../AVR8/Endpoint_AVR8.h **** 			/** Mask for the bank mode selection for the \ref Endpoint_ConfigureEndpoint() macro. This indic
 151:LUFA-111009/LUFA/Drivers/USB/Core/AVR8/../AVR8/../AVR8/Endpoint_AVR8.h **** 			 *  that the endpoint should have one single bank, which requires less USB FIFO memory but resul
 152:LUFA-111009/LUFA/Drivers/USB/Core/AVR8/../AVR8/../AVR8/Endpoint_AVR8.h **** 			 *  in slower transfers as only one USB device (the AVR or the host) can access the endpoint's
 153:LUFA-111009/LUFA/Drivers/USB/Core/AVR8/../AVR8/../AVR8/Endpoint_AVR8.h **** 			 *  bank at the one time.
 154:LUFA-111009/LUFA/Drivers/USB/Core/AVR8/../AVR8/../AVR8/Endpoint_AVR8.h **** 			 */
 155:LUFA-111009/LUFA/Drivers/USB/Core/AVR8/../AVR8/../AVR8/Endpoint_AVR8.h **** 			#define ENDPOINT_BANK_SINGLE                    (0 << EPBK0)
 156:LUFA-111009/LUFA/Drivers/USB/Core/AVR8/../AVR8/../AVR8/Endpoint_AVR8.h **** 
 157:LUFA-111009/LUFA/Drivers/USB/Core/AVR8/../AVR8/../AVR8/Endpoint_AVR8.h **** 			/** Mask for the bank mode selection for the \ref Endpoint_ConfigureEndpoint() macro. This indic
 158:LUFA-111009/LUFA/Drivers/USB/Core/AVR8/../AVR8/../AVR8/Endpoint_AVR8.h **** 			 *  that the endpoint should have two banks, which requires more USB FIFO memory but results
 159:LUFA-111009/LUFA/Drivers/USB/Core/AVR8/../AVR8/../AVR8/Endpoint_AVR8.h **** 			 *  in faster transfers as one USB device (the AVR or the host) can access one bank while the ot
 160:LUFA-111009/LUFA/Drivers/USB/Core/AVR8/../AVR8/../AVR8/Endpoint_AVR8.h **** 			 *  accesses the second bank.
 161:LUFA-111009/LUFA/Drivers/USB/Core/AVR8/../AVR8/../AVR8/Endpoint_AVR8.h **** 			 */
 162:LUFA-111009/LUFA/Drivers/USB/Core/AVR8/../AVR8/../AVR8/Endpoint_AVR8.h **** 			#define ENDPOINT_BANK_DOUBLE                    (1 << EPBK0)
 163:LUFA-111009/LUFA/Drivers/USB/Core/AVR8/../AVR8/../AVR8/Endpoint_AVR8.h **** 			//@}
 164:LUFA-111009/LUFA/Drivers/USB/Core/AVR8/../AVR8/../AVR8/Endpoint_AVR8.h **** 
 165:LUFA-111009/LUFA/Drivers/USB/Core/AVR8/../AVR8/../AVR8/Endpoint_AVR8.h **** 			#if (!defined(FIXED_CONTROL_ENDPOINT_SIZE) || defined(__DOXYGEN__))
 166:LUFA-111009/LUFA/Drivers/USB/Core/AVR8/../AVR8/../AVR8/Endpoint_AVR8.h **** 				/** Default size of the default control endpoint's bank, until altered by the control endpoint 
 167:LUFA-111009/LUFA/Drivers/USB/Core/AVR8/../AVR8/../AVR8/Endpoint_AVR8.h **** 				 *  value in the device descriptor. Not available if the \c FIXED_CONTROL_ENDPOINT_SIZE token i
 168:LUFA-111009/LUFA/Drivers/USB/Core/AVR8/../AVR8/../AVR8/Endpoint_AVR8.h **** 				 */
 169:LUFA-111009/LUFA/Drivers/USB/Core/AVR8/../AVR8/../AVR8/Endpoint_AVR8.h **** 				#define ENDPOINT_CONTROLEP_DEFAULT_SIZE     8
 170:LUFA-111009/LUFA/Drivers/USB/Core/AVR8/../AVR8/../AVR8/Endpoint_AVR8.h **** 			#endif
 171:LUFA-111009/LUFA/Drivers/USB/Core/AVR8/../AVR8/../AVR8/Endpoint_AVR8.h **** 
 172:LUFA-111009/LUFA/Drivers/USB/Core/AVR8/../AVR8/../AVR8/Endpoint_AVR8.h **** 			/** Retrieves the maximum bank size in bytes of a given endpoint.
 173:LUFA-111009/LUFA/Drivers/USB/Core/AVR8/../AVR8/../AVR8/Endpoint_AVR8.h **** 			 *
 174:LUFA-111009/LUFA/Drivers/USB/Core/AVR8/../AVR8/../AVR8/Endpoint_AVR8.h **** 			 *  \note This macro will only work correctly on endpoint indexes that are compile-time constant
 175:LUFA-111009/LUFA/Drivers/USB/Core/AVR8/../AVR8/../AVR8/Endpoint_AVR8.h **** 			 *        defined by the preprocessor.
 176:LUFA-111009/LUFA/Drivers/USB/Core/AVR8/../AVR8/../AVR8/Endpoint_AVR8.h **** 			 *
 177:LUFA-111009/LUFA/Drivers/USB/Core/AVR8/../AVR8/../AVR8/Endpoint_AVR8.h **** 			 *  \param[in] EPIndex  Endpoint number, a value between 0 and (\ref ENDPOINT_TOTAL_ENDPOINTS - 
 178:LUFA-111009/LUFA/Drivers/USB/Core/AVR8/../AVR8/../AVR8/Endpoint_AVR8.h **** 			 */
 179:LUFA-111009/LUFA/Drivers/USB/Core/AVR8/../AVR8/../AVR8/Endpoint_AVR8.h **** 			#define ENDPOINT_MAX_SIZE(EPIndex)              _ENDPOINT_GET_MAXSIZE(EPIndex)
 180:LUFA-111009/LUFA/Drivers/USB/Core/AVR8/../AVR8/../AVR8/Endpoint_AVR8.h **** 
 181:LUFA-111009/LUFA/Drivers/USB/Core/AVR8/../AVR8/../AVR8/Endpoint_AVR8.h **** 			/** Retrieves the total number of banks supported by the given endpoint.
 182:LUFA-111009/LUFA/Drivers/USB/Core/AVR8/../AVR8/../AVR8/Endpoint_AVR8.h **** 			 *
 183:LUFA-111009/LUFA/Drivers/USB/Core/AVR8/../AVR8/../AVR8/Endpoint_AVR8.h **** 			 *  \note This macro will only work correctly on endpoint indexes that are compile-time constant
 184:LUFA-111009/LUFA/Drivers/USB/Core/AVR8/../AVR8/../AVR8/Endpoint_AVR8.h **** 			 *        defined by the preprocessor.
 185:LUFA-111009/LUFA/Drivers/USB/Core/AVR8/../AVR8/../AVR8/Endpoint_AVR8.h **** 			 *
 186:LUFA-111009/LUFA/Drivers/USB/Core/AVR8/../AVR8/../AVR8/Endpoint_AVR8.h **** 			 *  \param[in] EPIndex  Endpoint number, a value between 0 and (\ref ENDPOINT_TOTAL_ENDPOINTS - 
 187:LUFA-111009/LUFA/Drivers/USB/Core/AVR8/../AVR8/../AVR8/Endpoint_AVR8.h **** 			 */
 188:LUFA-111009/LUFA/Drivers/USB/Core/AVR8/../AVR8/../AVR8/Endpoint_AVR8.h **** 			#define ENDPOINT_BANKS_SUPPORTED(EPIndex)       _ENDPOINT_GET_BANKS(EPIndex)
 189:LUFA-111009/LUFA/Drivers/USB/Core/AVR8/../AVR8/../AVR8/Endpoint_AVR8.h **** 
 190:LUFA-111009/LUFA/Drivers/USB/Core/AVR8/../AVR8/../AVR8/Endpoint_AVR8.h **** 			#if !defined(CONTROL_ONLY_DEVICE) || defined(__DOXYGEN__)
 191:LUFA-111009/LUFA/Drivers/USB/Core/AVR8/../AVR8/../AVR8/Endpoint_AVR8.h **** 				/** Total number of endpoints (including the default control endpoint at address 0) which may
 192:LUFA-111009/LUFA/Drivers/USB/Core/AVR8/../AVR8/../AVR8/Endpoint_AVR8.h **** 				 *  be used in the device. Different USB AVR models support different amounts of endpoints,
 193:LUFA-111009/LUFA/Drivers/USB/Core/AVR8/../AVR8/../AVR8/Endpoint_AVR8.h **** 				 *  this value reflects the maximum number of endpoints for the currently selected AVR model.
 194:LUFA-111009/LUFA/Drivers/USB/Core/AVR8/../AVR8/../AVR8/Endpoint_AVR8.h **** 				 */
 195:LUFA-111009/LUFA/Drivers/USB/Core/AVR8/../AVR8/../AVR8/Endpoint_AVR8.h **** 				#define ENDPOINT_TOTAL_ENDPOINTS            ENDPOINT_DETAILS_MAXEP
 196:LUFA-111009/LUFA/Drivers/USB/Core/AVR8/../AVR8/../AVR8/Endpoint_AVR8.h **** 			#else
 197:LUFA-111009/LUFA/Drivers/USB/Core/AVR8/../AVR8/../AVR8/Endpoint_AVR8.h **** 				#define ENDPOINT_TOTAL_ENDPOINTS            1
 198:LUFA-111009/LUFA/Drivers/USB/Core/AVR8/../AVR8/../AVR8/Endpoint_AVR8.h **** 			#endif
 199:LUFA-111009/LUFA/Drivers/USB/Core/AVR8/../AVR8/../AVR8/Endpoint_AVR8.h **** 
 200:LUFA-111009/LUFA/Drivers/USB/Core/AVR8/../AVR8/../AVR8/Endpoint_AVR8.h **** 		/* Enums: */
 201:LUFA-111009/LUFA/Drivers/USB/Core/AVR8/../AVR8/../AVR8/Endpoint_AVR8.h **** 			/** Enum for the possible error return codes of the \ref Endpoint_WaitUntilReady() function.
 202:LUFA-111009/LUFA/Drivers/USB/Core/AVR8/../AVR8/../AVR8/Endpoint_AVR8.h **** 			 *
 203:LUFA-111009/LUFA/Drivers/USB/Core/AVR8/../AVR8/../AVR8/Endpoint_AVR8.h **** 			 *  \ingroup Group_EndpointRW_AVR8
 204:LUFA-111009/LUFA/Drivers/USB/Core/AVR8/../AVR8/../AVR8/Endpoint_AVR8.h **** 			 */
 205:LUFA-111009/LUFA/Drivers/USB/Core/AVR8/../AVR8/../AVR8/Endpoint_AVR8.h **** 			enum Endpoint_WaitUntilReady_ErrorCodes_t
 206:LUFA-111009/LUFA/Drivers/USB/Core/AVR8/../AVR8/../AVR8/Endpoint_AVR8.h **** 			{
 207:LUFA-111009/LUFA/Drivers/USB/Core/AVR8/../AVR8/../AVR8/Endpoint_AVR8.h **** 				ENDPOINT_READYWAIT_NoError                 = 0, /**< Endpoint is ready for next packet, no erro
 208:LUFA-111009/LUFA/Drivers/USB/Core/AVR8/../AVR8/../AVR8/Endpoint_AVR8.h **** 				ENDPOINT_READYWAIT_EndpointStalled         = 1, /**< The endpoint was stalled during the stream
 209:LUFA-111009/LUFA/Drivers/USB/Core/AVR8/../AVR8/../AVR8/Endpoint_AVR8.h **** 				                                                 *   transfer by the host or device.
 210:LUFA-111009/LUFA/Drivers/USB/Core/AVR8/../AVR8/../AVR8/Endpoint_AVR8.h **** 				                                                 */
 211:LUFA-111009/LUFA/Drivers/USB/Core/AVR8/../AVR8/../AVR8/Endpoint_AVR8.h **** 				ENDPOINT_READYWAIT_DeviceDisconnected      = 2,	/**< Device was disconnected from the host whil
 212:LUFA-111009/LUFA/Drivers/USB/Core/AVR8/../AVR8/../AVR8/Endpoint_AVR8.h **** 				                                                 *   waiting for the endpoint to become ready.
 213:LUFA-111009/LUFA/Drivers/USB/Core/AVR8/../AVR8/../AVR8/Endpoint_AVR8.h **** 				                                                 */
 214:LUFA-111009/LUFA/Drivers/USB/Core/AVR8/../AVR8/../AVR8/Endpoint_AVR8.h **** 				ENDPOINT_READYWAIT_BusSuspended            = 3, /**< The USB bus has been suspended by the host
 215:LUFA-111009/LUFA/Drivers/USB/Core/AVR8/../AVR8/../AVR8/Endpoint_AVR8.h **** 				                                                 *   no USB endpoint traffic can occur until th
 216:LUFA-111009/LUFA/Drivers/USB/Core/AVR8/../AVR8/../AVR8/Endpoint_AVR8.h **** 				                                                 *   has resumed.
 217:LUFA-111009/LUFA/Drivers/USB/Core/AVR8/../AVR8/../AVR8/Endpoint_AVR8.h **** 				                                                 */
 218:LUFA-111009/LUFA/Drivers/USB/Core/AVR8/../AVR8/../AVR8/Endpoint_AVR8.h **** 				ENDPOINT_READYWAIT_Timeout                 = 4, /**< The host failed to accept or send the next
 219:LUFA-111009/LUFA/Drivers/USB/Core/AVR8/../AVR8/../AVR8/Endpoint_AVR8.h **** 				                                                 *   within the software timeout period set by 
 220:LUFA-111009/LUFA/Drivers/USB/Core/AVR8/../AVR8/../AVR8/Endpoint_AVR8.h **** 				                                                 *   \ref USB_STREAM_TIMEOUT_MS macro.
 221:LUFA-111009/LUFA/Drivers/USB/Core/AVR8/../AVR8/../AVR8/Endpoint_AVR8.h **** 				                                                 */
 222:LUFA-111009/LUFA/Drivers/USB/Core/AVR8/../AVR8/../AVR8/Endpoint_AVR8.h **** 			};
 223:LUFA-111009/LUFA/Drivers/USB/Core/AVR8/../AVR8/../AVR8/Endpoint_AVR8.h **** 
 224:LUFA-111009/LUFA/Drivers/USB/Core/AVR8/../AVR8/../AVR8/Endpoint_AVR8.h **** 		/* Inline Functions: */
 225:LUFA-111009/LUFA/Drivers/USB/Core/AVR8/../AVR8/../AVR8/Endpoint_AVR8.h **** 			/** Configures the specified endpoint number with the given endpoint type, direction, bank size
 226:LUFA-111009/LUFA/Drivers/USB/Core/AVR8/../AVR8/../AVR8/Endpoint_AVR8.h **** 			 *  and banking mode. Once configured, the endpoint may be read from or written to, depending
 227:LUFA-111009/LUFA/Drivers/USB/Core/AVR8/../AVR8/../AVR8/Endpoint_AVR8.h **** 			 *  on its direction.
 228:LUFA-111009/LUFA/Drivers/USB/Core/AVR8/../AVR8/../AVR8/Endpoint_AVR8.h **** 			 *
 229:LUFA-111009/LUFA/Drivers/USB/Core/AVR8/../AVR8/../AVR8/Endpoint_AVR8.h **** 			 *  \param[in] Number     Endpoint number to configure. This must be more than 0 and less than
 230:LUFA-111009/LUFA/Drivers/USB/Core/AVR8/../AVR8/../AVR8/Endpoint_AVR8.h **** 			 *                        \ref ENDPOINT_TOTAL_ENDPOINTS.
 231:LUFA-111009/LUFA/Drivers/USB/Core/AVR8/../AVR8/../AVR8/Endpoint_AVR8.h **** 			 *
 232:LUFA-111009/LUFA/Drivers/USB/Core/AVR8/../AVR8/../AVR8/Endpoint_AVR8.h **** 			 *  \param[in] Type       Type of endpoint to configure, a \c EP_TYPE_* mask. Not all endpoint t
 233:LUFA-111009/LUFA/Drivers/USB/Core/AVR8/../AVR8/../AVR8/Endpoint_AVR8.h **** 			 *                        are available on Low Speed USB devices - refer to the USB 2.0 specific
 234:LUFA-111009/LUFA/Drivers/USB/Core/AVR8/../AVR8/../AVR8/Endpoint_AVR8.h **** 			 *
 235:LUFA-111009/LUFA/Drivers/USB/Core/AVR8/../AVR8/../AVR8/Endpoint_AVR8.h **** 			 *  \param[in] Direction  Endpoint data direction, either \ref ENDPOINT_DIR_OUT or \ref ENDPOINT
 236:LUFA-111009/LUFA/Drivers/USB/Core/AVR8/../AVR8/../AVR8/Endpoint_AVR8.h **** 			 *                        All endpoints (except Control type) are unidirectional - data may only
 237:LUFA-111009/LUFA/Drivers/USB/Core/AVR8/../AVR8/../AVR8/Endpoint_AVR8.h **** 			 *                        from or written to the endpoint bank based on its direction, not both.
 238:LUFA-111009/LUFA/Drivers/USB/Core/AVR8/../AVR8/../AVR8/Endpoint_AVR8.h **** 			 *
 239:LUFA-111009/LUFA/Drivers/USB/Core/AVR8/../AVR8/../AVR8/Endpoint_AVR8.h **** 			 *  \param[in] Size       Size of the endpoint's bank, where packets are stored before they are 
 240:LUFA-111009/LUFA/Drivers/USB/Core/AVR8/../AVR8/../AVR8/Endpoint_AVR8.h **** 			 *                        to the USB host, or after they have been received from the USB host (d
 241:LUFA-111009/LUFA/Drivers/USB/Core/AVR8/../AVR8/../AVR8/Endpoint_AVR8.h **** 			 *                        the endpoint's data direction). The bank size must indicate the maximu
 242:LUFA-111009/LUFA/Drivers/USB/Core/AVR8/../AVR8/../AVR8/Endpoint_AVR8.h **** 			 *                        that the endpoint can handle.
 243:LUFA-111009/LUFA/Drivers/USB/Core/AVR8/../AVR8/../AVR8/Endpoint_AVR8.h **** 			 *
 244:LUFA-111009/LUFA/Drivers/USB/Core/AVR8/../AVR8/../AVR8/Endpoint_AVR8.h **** 			 *  \param[in] Banks      Number of banks to use for the endpoint being configured, an \c ENDPOI
 245:LUFA-111009/LUFA/Drivers/USB/Core/AVR8/../AVR8/../AVR8/Endpoint_AVR8.h **** 			 *                        More banks uses more USB DPRAM, but offers better performance. Isochro
 246:LUFA-111009/LUFA/Drivers/USB/Core/AVR8/../AVR8/../AVR8/Endpoint_AVR8.h **** 			 *                        endpoints <b>must</b> have at least two banks.
 247:LUFA-111009/LUFA/Drivers/USB/Core/AVR8/../AVR8/../AVR8/Endpoint_AVR8.h **** 			 *
 248:LUFA-111009/LUFA/Drivers/USB/Core/AVR8/../AVR8/../AVR8/Endpoint_AVR8.h **** 			 *  \note When the \c ORDERED_EP_CONFIG compile time option is used, Endpoints <b>must</b> be co
 249:LUFA-111009/LUFA/Drivers/USB/Core/AVR8/../AVR8/../AVR8/Endpoint_AVR8.h **** 			 *        ascending order, or bank corruption will occur.
 250:LUFA-111009/LUFA/Drivers/USB/Core/AVR8/../AVR8/../AVR8/Endpoint_AVR8.h **** 			 *        \n\n
 251:LUFA-111009/LUFA/Drivers/USB/Core/AVR8/../AVR8/../AVR8/Endpoint_AVR8.h **** 			 *
 252:LUFA-111009/LUFA/Drivers/USB/Core/AVR8/../AVR8/../AVR8/Endpoint_AVR8.h **** 			 *  \note Different endpoints may have different maximum packet sizes based on the endpoint's in
 253:LUFA-111009/LUFA/Drivers/USB/Core/AVR8/../AVR8/../AVR8/Endpoint_AVR8.h **** 			 *        the chosen microcontroller model's datasheet to determine the maximum bank size for ea
 254:LUFA-111009/LUFA/Drivers/USB/Core/AVR8/../AVR8/../AVR8/Endpoint_AVR8.h **** 			 *        \n\n
 255:LUFA-111009/LUFA/Drivers/USB/Core/AVR8/../AVR8/../AVR8/Endpoint_AVR8.h **** 			 *
 256:LUFA-111009/LUFA/Drivers/USB/Core/AVR8/../AVR8/../AVR8/Endpoint_AVR8.h **** 			 *  \note The default control endpoint should not be manually configured by the user application
 257:LUFA-111009/LUFA/Drivers/USB/Core/AVR8/../AVR8/../AVR8/Endpoint_AVR8.h **** 			 *        it is automatically configured by the library internally.
 258:LUFA-111009/LUFA/Drivers/USB/Core/AVR8/../AVR8/../AVR8/Endpoint_AVR8.h **** 			 *        \n\n
 259:LUFA-111009/LUFA/Drivers/USB/Core/AVR8/../AVR8/../AVR8/Endpoint_AVR8.h **** 			 *
 260:LUFA-111009/LUFA/Drivers/USB/Core/AVR8/../AVR8/../AVR8/Endpoint_AVR8.h **** 			 *  \note This routine will automatically select the specified endpoint upon success. Upon failu
 261:LUFA-111009/LUFA/Drivers/USB/Core/AVR8/../AVR8/../AVR8/Endpoint_AVR8.h **** 			 *        which failed to reconfigure correctly will be selected.
 262:LUFA-111009/LUFA/Drivers/USB/Core/AVR8/../AVR8/../AVR8/Endpoint_AVR8.h **** 			 *
 263:LUFA-111009/LUFA/Drivers/USB/Core/AVR8/../AVR8/../AVR8/Endpoint_AVR8.h **** 			 *  \return Boolean \c true if the configuration succeeded, \c false otherwise.
 264:LUFA-111009/LUFA/Drivers/USB/Core/AVR8/../AVR8/../AVR8/Endpoint_AVR8.h **** 			 */
 265:LUFA-111009/LUFA/Drivers/USB/Core/AVR8/../AVR8/../AVR8/Endpoint_AVR8.h **** 			static inline bool Endpoint_ConfigureEndpoint(const uint8_t Number,
 266:LUFA-111009/LUFA/Drivers/USB/Core/AVR8/../AVR8/../AVR8/Endpoint_AVR8.h **** 			                                              const uint8_t Type,
 267:LUFA-111009/LUFA/Drivers/USB/Core/AVR8/../AVR8/../AVR8/Endpoint_AVR8.h **** 			                                              const uint8_t Direction,
 268:LUFA-111009/LUFA/Drivers/USB/Core/AVR8/../AVR8/../AVR8/Endpoint_AVR8.h **** 			                                              const uint16_t Size,
 269:LUFA-111009/LUFA/Drivers/USB/Core/AVR8/../AVR8/../AVR8/Endpoint_AVR8.h **** 			                                              const uint8_t Banks) ATTR_ALWAYS_INLINE;
 270:LUFA-111009/LUFA/Drivers/USB/Core/AVR8/../AVR8/../AVR8/Endpoint_AVR8.h **** 			static inline bool Endpoint_ConfigureEndpoint(const uint8_t Number,
 271:LUFA-111009/LUFA/Drivers/USB/Core/AVR8/../AVR8/../AVR8/Endpoint_AVR8.h **** 			                                              const uint8_t Type,
 272:LUFA-111009/LUFA/Drivers/USB/Core/AVR8/../AVR8/../AVR8/Endpoint_AVR8.h **** 			                                              const uint8_t Direction,
 273:LUFA-111009/LUFA/Drivers/USB/Core/AVR8/../AVR8/../AVR8/Endpoint_AVR8.h **** 			                                              const uint16_t Size,
 274:LUFA-111009/LUFA/Drivers/USB/Core/AVR8/../AVR8/../AVR8/Endpoint_AVR8.h **** 			                                              const uint8_t Banks)
 275:LUFA-111009/LUFA/Drivers/USB/Core/AVR8/../AVR8/../AVR8/Endpoint_AVR8.h **** 			{
 276:LUFA-111009/LUFA/Drivers/USB/Core/AVR8/../AVR8/../AVR8/Endpoint_AVR8.h **** 				return Endpoint_ConfigureEndpoint_Prv(Number, ((Type << EPTYPE0) | (Direction ? (1 << EPDIR) : 
 277:LUFA-111009/LUFA/Drivers/USB/Core/AVR8/../AVR8/../AVR8/Endpoint_AVR8.h **** 				                                      ((1 << ALLOC) | Banks | Endpoint_BytesToEPSizeMask(Size))
 278:LUFA-111009/LUFA/Drivers/USB/Core/AVR8/../AVR8/../AVR8/Endpoint_AVR8.h **** 			}
 279:LUFA-111009/LUFA/Drivers/USB/Core/AVR8/../AVR8/../AVR8/Endpoint_AVR8.h **** 
 280:LUFA-111009/LUFA/Drivers/USB/Core/AVR8/../AVR8/../AVR8/Endpoint_AVR8.h **** 			/** Indicates the number of bytes currently stored in the current endpoint's selected bank.
 281:LUFA-111009/LUFA/Drivers/USB/Core/AVR8/../AVR8/../AVR8/Endpoint_AVR8.h **** 			 *
 282:LUFA-111009/LUFA/Drivers/USB/Core/AVR8/../AVR8/../AVR8/Endpoint_AVR8.h **** 			 *  \note The return width of this function may differ, depending on the maximum endpoint bank s
 283:LUFA-111009/LUFA/Drivers/USB/Core/AVR8/../AVR8/../AVR8/Endpoint_AVR8.h **** 			 *        of the selected AVR model.
 284:LUFA-111009/LUFA/Drivers/USB/Core/AVR8/../AVR8/../AVR8/Endpoint_AVR8.h **** 			 *
 285:LUFA-111009/LUFA/Drivers/USB/Core/AVR8/../AVR8/../AVR8/Endpoint_AVR8.h **** 			 *  \ingroup Group_EndpointRW_AVR8
 286:LUFA-111009/LUFA/Drivers/USB/Core/AVR8/../AVR8/../AVR8/Endpoint_AVR8.h **** 			 *
 287:LUFA-111009/LUFA/Drivers/USB/Core/AVR8/../AVR8/../AVR8/Endpoint_AVR8.h **** 			 *  \return Total number of bytes in the currently selected Endpoint's FIFO buffer.
 288:LUFA-111009/LUFA/Drivers/USB/Core/AVR8/../AVR8/../AVR8/Endpoint_AVR8.h **** 			 */
 289:LUFA-111009/LUFA/Drivers/USB/Core/AVR8/../AVR8/../AVR8/Endpoint_AVR8.h **** 			static inline uint16_t Endpoint_BytesInEndpoint(void) ATTR_WARN_UNUSED_RESULT ATTR_ALWAYS_INLINE
 290:LUFA-111009/LUFA/Drivers/USB/Core/AVR8/../AVR8/../AVR8/Endpoint_AVR8.h **** 			static inline uint16_t Endpoint_BytesInEndpoint(void)
 291:LUFA-111009/LUFA/Drivers/USB/Core/AVR8/../AVR8/../AVR8/Endpoint_AVR8.h **** 			{
 292:LUFA-111009/LUFA/Drivers/USB/Core/AVR8/../AVR8/../AVR8/Endpoint_AVR8.h **** 				#if defined(USB_SERIES_6_AVR) || defined(USB_SERIES_7_AVR)
 293:LUFA-111009/LUFA/Drivers/USB/Core/AVR8/../AVR8/../AVR8/Endpoint_AVR8.h **** 					return UEBCX;
 294:LUFA-111009/LUFA/Drivers/USB/Core/AVR8/../AVR8/../AVR8/Endpoint_AVR8.h **** 				#elif defined(USB_SERIES_4_AVR)
 295:LUFA-111009/LUFA/Drivers/USB/Core/AVR8/../AVR8/../AVR8/Endpoint_AVR8.h **** 					return (((uint16_t)UEBCHX << 8) | UEBCLX);
 296:LUFA-111009/LUFA/Drivers/USB/Core/AVR8/../AVR8/../AVR8/Endpoint_AVR8.h **** 				#elif defined(USB_SERIES_2_AVR)
 297:LUFA-111009/LUFA/Drivers/USB/Core/AVR8/../AVR8/../AVR8/Endpoint_AVR8.h **** 					return UEBCLX;
 298:LUFA-111009/LUFA/Drivers/USB/Core/AVR8/../AVR8/../AVR8/Endpoint_AVR8.h **** 				#endif
 299:LUFA-111009/LUFA/Drivers/USB/Core/AVR8/../AVR8/../AVR8/Endpoint_AVR8.h **** 			}
 300:LUFA-111009/LUFA/Drivers/USB/Core/AVR8/../AVR8/../AVR8/Endpoint_AVR8.h **** 
 301:LUFA-111009/LUFA/Drivers/USB/Core/AVR8/../AVR8/../AVR8/Endpoint_AVR8.h **** 			/** Get the endpoint address of the currently selected endpoint. This is typically used to save
 302:LUFA-111009/LUFA/Drivers/USB/Core/AVR8/../AVR8/../AVR8/Endpoint_AVR8.h **** 			 *  the currently selected endpoint number so that it can be restored after another endpoint has
 303:LUFA-111009/LUFA/Drivers/USB/Core/AVR8/../AVR8/../AVR8/Endpoint_AVR8.h **** 			 *  been manipulated.
 304:LUFA-111009/LUFA/Drivers/USB/Core/AVR8/../AVR8/../AVR8/Endpoint_AVR8.h **** 			 *
 305:LUFA-111009/LUFA/Drivers/USB/Core/AVR8/../AVR8/../AVR8/Endpoint_AVR8.h **** 			 *  \return Index of the currently selected endpoint.
 306:LUFA-111009/LUFA/Drivers/USB/Core/AVR8/../AVR8/../AVR8/Endpoint_AVR8.h **** 			 */
 307:LUFA-111009/LUFA/Drivers/USB/Core/AVR8/../AVR8/../AVR8/Endpoint_AVR8.h **** 			static inline uint8_t Endpoint_GetCurrentEndpoint(void) ATTR_WARN_UNUSED_RESULT ATTR_ALWAYS_INLI
 308:LUFA-111009/LUFA/Drivers/USB/Core/AVR8/../AVR8/../AVR8/Endpoint_AVR8.h **** 			static inline uint8_t Endpoint_GetCurrentEndpoint(void)
 309:LUFA-111009/LUFA/Drivers/USB/Core/AVR8/../AVR8/../AVR8/Endpoint_AVR8.h **** 			{
 310:LUFA-111009/LUFA/Drivers/USB/Core/AVR8/../AVR8/../AVR8/Endpoint_AVR8.h **** 				#if !defined(CONTROL_ONLY_DEVICE)
 311:LUFA-111009/LUFA/Drivers/USB/Core/AVR8/../AVR8/../AVR8/Endpoint_AVR8.h **** 					return (UENUM & ENDPOINT_EPNUM_MASK);
 312:LUFA-111009/LUFA/Drivers/USB/Core/AVR8/../AVR8/../AVR8/Endpoint_AVR8.h **** 				#else
 313:LUFA-111009/LUFA/Drivers/USB/Core/AVR8/../AVR8/../AVR8/Endpoint_AVR8.h **** 					return ENDPOINT_CONTROLEP;
 314:LUFA-111009/LUFA/Drivers/USB/Core/AVR8/../AVR8/../AVR8/Endpoint_AVR8.h **** 				#endif
 315:LUFA-111009/LUFA/Drivers/USB/Core/AVR8/../AVR8/../AVR8/Endpoint_AVR8.h **** 			}
 316:LUFA-111009/LUFA/Drivers/USB/Core/AVR8/../AVR8/../AVR8/Endpoint_AVR8.h **** 
 317:LUFA-111009/LUFA/Drivers/USB/Core/AVR8/../AVR8/../AVR8/Endpoint_AVR8.h **** 			/** Selects the given endpoint number. If the address from the device descriptors is used, the
 318:LUFA-111009/LUFA/Drivers/USB/Core/AVR8/../AVR8/../AVR8/Endpoint_AVR8.h **** 			 *  value should be masked with the \ref ENDPOINT_EPNUM_MASK constant to extract only the endpoi
 319:LUFA-111009/LUFA/Drivers/USB/Core/AVR8/../AVR8/../AVR8/Endpoint_AVR8.h **** 			 *  number (and discarding the endpoint direction bit).
 320:LUFA-111009/LUFA/Drivers/USB/Core/AVR8/../AVR8/../AVR8/Endpoint_AVR8.h **** 			 *
 321:LUFA-111009/LUFA/Drivers/USB/Core/AVR8/../AVR8/../AVR8/Endpoint_AVR8.h **** 			 *  Any endpoint operations which do not require the endpoint number to be indicated will operat
 322:LUFA-111009/LUFA/Drivers/USB/Core/AVR8/../AVR8/../AVR8/Endpoint_AVR8.h **** 			 *  the currently selected endpoint.
 323:LUFA-111009/LUFA/Drivers/USB/Core/AVR8/../AVR8/../AVR8/Endpoint_AVR8.h **** 			 *
 324:LUFA-111009/LUFA/Drivers/USB/Core/AVR8/../AVR8/../AVR8/Endpoint_AVR8.h **** 			 *  \param[in] EndpointNumber Endpoint number to select.
 325:LUFA-111009/LUFA/Drivers/USB/Core/AVR8/../AVR8/../AVR8/Endpoint_AVR8.h **** 			 */
 326:LUFA-111009/LUFA/Drivers/USB/Core/AVR8/../AVR8/../AVR8/Endpoint_AVR8.h **** 			static inline void Endpoint_SelectEndpoint(const uint8_t EndpointNumber) ATTR_ALWAYS_INLINE;
 327:LUFA-111009/LUFA/Drivers/USB/Core/AVR8/../AVR8/../AVR8/Endpoint_AVR8.h **** 			static inline void Endpoint_SelectEndpoint(const uint8_t EndpointNumber)
 328:LUFA-111009/LUFA/Drivers/USB/Core/AVR8/../AVR8/../AVR8/Endpoint_AVR8.h **** 			{
 329:LUFA-111009/LUFA/Drivers/USB/Core/AVR8/../AVR8/../AVR8/Endpoint_AVR8.h **** 				#if !defined(CONTROL_ONLY_DEVICE)
 330:LUFA-111009/LUFA/Drivers/USB/Core/AVR8/../AVR8/../AVR8/Endpoint_AVR8.h **** 					UENUM = EndpointNumber;
 331:LUFA-111009/LUFA/Drivers/USB/Core/AVR8/../AVR8/../AVR8/Endpoint_AVR8.h **** 				#endif
 332:LUFA-111009/LUFA/Drivers/USB/Core/AVR8/../AVR8/../AVR8/Endpoint_AVR8.h **** 			}
 333:LUFA-111009/LUFA/Drivers/USB/Core/AVR8/../AVR8/../AVR8/Endpoint_AVR8.h **** 
 334:LUFA-111009/LUFA/Drivers/USB/Core/AVR8/../AVR8/../AVR8/Endpoint_AVR8.h **** 			/** Resets the endpoint bank FIFO. This clears all the endpoint banks and resets the USB control
 335:LUFA-111009/LUFA/Drivers/USB/Core/AVR8/../AVR8/../AVR8/Endpoint_AVR8.h **** 			 *  data In and Out pointers to the bank's contents.
 336:LUFA-111009/LUFA/Drivers/USB/Core/AVR8/../AVR8/../AVR8/Endpoint_AVR8.h **** 			 *
 337:LUFA-111009/LUFA/Drivers/USB/Core/AVR8/../AVR8/../AVR8/Endpoint_AVR8.h **** 			 *  \param[in] EndpointNumber Endpoint number whose FIFO buffers are to be reset.
 338:LUFA-111009/LUFA/Drivers/USB/Core/AVR8/../AVR8/../AVR8/Endpoint_AVR8.h **** 			 */
 339:LUFA-111009/LUFA/Drivers/USB/Core/AVR8/../AVR8/../AVR8/Endpoint_AVR8.h **** 			static inline void Endpoint_ResetEndpoint(const uint8_t EndpointNumber) ATTR_ALWAYS_INLINE;
 340:LUFA-111009/LUFA/Drivers/USB/Core/AVR8/../AVR8/../AVR8/Endpoint_AVR8.h **** 			static inline void Endpoint_ResetEndpoint(const uint8_t EndpointNumber)
 341:LUFA-111009/LUFA/Drivers/USB/Core/AVR8/../AVR8/../AVR8/Endpoint_AVR8.h **** 			{
 342:LUFA-111009/LUFA/Drivers/USB/Core/AVR8/../AVR8/../AVR8/Endpoint_AVR8.h **** 				UERST = (1 << EndpointNumber);
 343:LUFA-111009/LUFA/Drivers/USB/Core/AVR8/../AVR8/../AVR8/Endpoint_AVR8.h **** 				UERST = 0;
 344:LUFA-111009/LUFA/Drivers/USB/Core/AVR8/../AVR8/../AVR8/Endpoint_AVR8.h **** 			}
 345:LUFA-111009/LUFA/Drivers/USB/Core/AVR8/../AVR8/../AVR8/Endpoint_AVR8.h **** 
 346:LUFA-111009/LUFA/Drivers/USB/Core/AVR8/../AVR8/../AVR8/Endpoint_AVR8.h **** 			/** Enables the currently selected endpoint so that data can be sent and received through it to
 347:LUFA-111009/LUFA/Drivers/USB/Core/AVR8/../AVR8/../AVR8/Endpoint_AVR8.h **** 			 *  and from a host.
 348:LUFA-111009/LUFA/Drivers/USB/Core/AVR8/../AVR8/../AVR8/Endpoint_AVR8.h **** 			 *
 349:LUFA-111009/LUFA/Drivers/USB/Core/AVR8/../AVR8/../AVR8/Endpoint_AVR8.h **** 			 *  \note Endpoints must first be configured properly via \ref Endpoint_ConfigureEndpoint().
 350:LUFA-111009/LUFA/Drivers/USB/Core/AVR8/../AVR8/../AVR8/Endpoint_AVR8.h **** 			 */
 351:LUFA-111009/LUFA/Drivers/USB/Core/AVR8/../AVR8/../AVR8/Endpoint_AVR8.h **** 			static inline void Endpoint_EnableEndpoint(void) ATTR_ALWAYS_INLINE;
 352:LUFA-111009/LUFA/Drivers/USB/Core/AVR8/../AVR8/../AVR8/Endpoint_AVR8.h **** 			static inline void Endpoint_EnableEndpoint(void)
 353:LUFA-111009/LUFA/Drivers/USB/Core/AVR8/../AVR8/../AVR8/Endpoint_AVR8.h **** 			{
 354:LUFA-111009/LUFA/Drivers/USB/Core/AVR8/../AVR8/../AVR8/Endpoint_AVR8.h **** 				UECONX |= (1 << EPEN);
 355:LUFA-111009/LUFA/Drivers/USB/Core/AVR8/../AVR8/../AVR8/Endpoint_AVR8.h **** 			}
 356:LUFA-111009/LUFA/Drivers/USB/Core/AVR8/../AVR8/../AVR8/Endpoint_AVR8.h **** 
 357:LUFA-111009/LUFA/Drivers/USB/Core/AVR8/../AVR8/../AVR8/Endpoint_AVR8.h **** 			/** Disables the currently selected endpoint so that data cannot be sent and received through it
 358:LUFA-111009/LUFA/Drivers/USB/Core/AVR8/../AVR8/../AVR8/Endpoint_AVR8.h **** 			 *  to and from a host.
 359:LUFA-111009/LUFA/Drivers/USB/Core/AVR8/../AVR8/../AVR8/Endpoint_AVR8.h **** 			 */
 360:LUFA-111009/LUFA/Drivers/USB/Core/AVR8/../AVR8/../AVR8/Endpoint_AVR8.h **** 			static inline void Endpoint_DisableEndpoint(void) ATTR_ALWAYS_INLINE;
 361:LUFA-111009/LUFA/Drivers/USB/Core/AVR8/../AVR8/../AVR8/Endpoint_AVR8.h **** 			static inline void Endpoint_DisableEndpoint(void)
 362:LUFA-111009/LUFA/Drivers/USB/Core/AVR8/../AVR8/../AVR8/Endpoint_AVR8.h **** 			{
 363:LUFA-111009/LUFA/Drivers/USB/Core/AVR8/../AVR8/../AVR8/Endpoint_AVR8.h **** 				UECONX &= ~(1 << EPEN);
 364:LUFA-111009/LUFA/Drivers/USB/Core/AVR8/../AVR8/../AVR8/Endpoint_AVR8.h **** 			}
 365:LUFA-111009/LUFA/Drivers/USB/Core/AVR8/../AVR8/../AVR8/Endpoint_AVR8.h **** 
 366:LUFA-111009/LUFA/Drivers/USB/Core/AVR8/../AVR8/../AVR8/Endpoint_AVR8.h **** 			/** Determines if the currently selected endpoint is enabled, but not necessarily configured.
 367:LUFA-111009/LUFA/Drivers/USB/Core/AVR8/../AVR8/../AVR8/Endpoint_AVR8.h **** 			 *
 368:LUFA-111009/LUFA/Drivers/USB/Core/AVR8/../AVR8/../AVR8/Endpoint_AVR8.h **** 			 * \return Boolean \c true if the currently selected endpoint is enabled, \c false otherwise.
 369:LUFA-111009/LUFA/Drivers/USB/Core/AVR8/../AVR8/../AVR8/Endpoint_AVR8.h **** 			 */
 370:LUFA-111009/LUFA/Drivers/USB/Core/AVR8/../AVR8/../AVR8/Endpoint_AVR8.h **** 			static inline bool Endpoint_IsEnabled(void) ATTR_WARN_UNUSED_RESULT ATTR_ALWAYS_INLINE;
 371:LUFA-111009/LUFA/Drivers/USB/Core/AVR8/../AVR8/../AVR8/Endpoint_AVR8.h **** 			static inline bool Endpoint_IsEnabled(void)
 372:LUFA-111009/LUFA/Drivers/USB/Core/AVR8/../AVR8/../AVR8/Endpoint_AVR8.h **** 			{
 373:LUFA-111009/LUFA/Drivers/USB/Core/AVR8/../AVR8/../AVR8/Endpoint_AVR8.h **** 				return ((UECONX & (1 << EPEN)) ? true : false);
 374:LUFA-111009/LUFA/Drivers/USB/Core/AVR8/../AVR8/../AVR8/Endpoint_AVR8.h **** 			}
 375:LUFA-111009/LUFA/Drivers/USB/Core/AVR8/../AVR8/../AVR8/Endpoint_AVR8.h **** 
 376:LUFA-111009/LUFA/Drivers/USB/Core/AVR8/../AVR8/../AVR8/Endpoint_AVR8.h **** 			/** Retrieves the number of busy banks in the currently selected endpoint, which have been queue
 377:LUFA-111009/LUFA/Drivers/USB/Core/AVR8/../AVR8/../AVR8/Endpoint_AVR8.h **** 			 *  transmission via the \ref Endpoint_ClearIN() command, or are awaiting acknowledgement via th
 378:LUFA-111009/LUFA/Drivers/USB/Core/AVR8/../AVR8/../AVR8/Endpoint_AVR8.h **** 			 *  \ref Endpoint_ClearOUT() command.
 379:LUFA-111009/LUFA/Drivers/USB/Core/AVR8/../AVR8/../AVR8/Endpoint_AVR8.h **** 			 *
 380:LUFA-111009/LUFA/Drivers/USB/Core/AVR8/../AVR8/../AVR8/Endpoint_AVR8.h **** 			 *  \ingroup Group_EndpointPacketManagement_AVR8
 381:LUFA-111009/LUFA/Drivers/USB/Core/AVR8/../AVR8/../AVR8/Endpoint_AVR8.h **** 			 *
 382:LUFA-111009/LUFA/Drivers/USB/Core/AVR8/../AVR8/../AVR8/Endpoint_AVR8.h **** 			 *  \return Total number of busy banks in the selected endpoint.
 383:LUFA-111009/LUFA/Drivers/USB/Core/AVR8/../AVR8/../AVR8/Endpoint_AVR8.h **** 			 */
 384:LUFA-111009/LUFA/Drivers/USB/Core/AVR8/../AVR8/../AVR8/Endpoint_AVR8.h **** 			static inline uint8_t Endpoint_GetBusyBanks(void) ATTR_ALWAYS_INLINE ATTR_WARN_UNUSED_RESULT;
 385:LUFA-111009/LUFA/Drivers/USB/Core/AVR8/../AVR8/../AVR8/Endpoint_AVR8.h **** 			static inline uint8_t Endpoint_GetBusyBanks(void)
 386:LUFA-111009/LUFA/Drivers/USB/Core/AVR8/../AVR8/../AVR8/Endpoint_AVR8.h **** 			{
 387:LUFA-111009/LUFA/Drivers/USB/Core/AVR8/../AVR8/../AVR8/Endpoint_AVR8.h **** 				return (UESTA0X & (0x03 << NBUSYBK0));
 388:LUFA-111009/LUFA/Drivers/USB/Core/AVR8/../AVR8/../AVR8/Endpoint_AVR8.h **** 			}
 389:LUFA-111009/LUFA/Drivers/USB/Core/AVR8/../AVR8/../AVR8/Endpoint_AVR8.h **** 
 390:LUFA-111009/LUFA/Drivers/USB/Core/AVR8/../AVR8/../AVR8/Endpoint_AVR8.h **** 			/** Aborts all pending IN transactions on the currently selected endpoint, once the bank
 391:LUFA-111009/LUFA/Drivers/USB/Core/AVR8/../AVR8/../AVR8/Endpoint_AVR8.h **** 			 *  has been queued for transmission to the host via \ref Endpoint_ClearIN(). This function
 392:LUFA-111009/LUFA/Drivers/USB/Core/AVR8/../AVR8/../AVR8/Endpoint_AVR8.h **** 			 *  will terminate all queued transactions, resetting the endpoint banks ready for a new
 393:LUFA-111009/LUFA/Drivers/USB/Core/AVR8/../AVR8/../AVR8/Endpoint_AVR8.h **** 			 *  packet.
 394:LUFA-111009/LUFA/Drivers/USB/Core/AVR8/../AVR8/../AVR8/Endpoint_AVR8.h **** 			 *
 395:LUFA-111009/LUFA/Drivers/USB/Core/AVR8/../AVR8/../AVR8/Endpoint_AVR8.h **** 			 *  \ingroup Group_EndpointPacketManagement_AVR8
 396:LUFA-111009/LUFA/Drivers/USB/Core/AVR8/../AVR8/../AVR8/Endpoint_AVR8.h **** 			 */
 397:LUFA-111009/LUFA/Drivers/USB/Core/AVR8/../AVR8/../AVR8/Endpoint_AVR8.h **** 			static inline void Endpoint_AbortPendingIN(void)
 398:LUFA-111009/LUFA/Drivers/USB/Core/AVR8/../AVR8/../AVR8/Endpoint_AVR8.h **** 			{
 399:LUFA-111009/LUFA/Drivers/USB/Core/AVR8/../AVR8/../AVR8/Endpoint_AVR8.h **** 				while (Endpoint_GetBusyBanks() != 0)
 400:LUFA-111009/LUFA/Drivers/USB/Core/AVR8/../AVR8/../AVR8/Endpoint_AVR8.h **** 				{
 401:LUFA-111009/LUFA/Drivers/USB/Core/AVR8/../AVR8/../AVR8/Endpoint_AVR8.h **** 					UEINTX |= (1 << RXOUTI);
 402:LUFA-111009/LUFA/Drivers/USB/Core/AVR8/../AVR8/../AVR8/Endpoint_AVR8.h **** 					while (UEINTX & (1 << RXOUTI));
 403:LUFA-111009/LUFA/Drivers/USB/Core/AVR8/../AVR8/../AVR8/Endpoint_AVR8.h **** 				}
 404:LUFA-111009/LUFA/Drivers/USB/Core/AVR8/../AVR8/../AVR8/Endpoint_AVR8.h **** 			}
 405:LUFA-111009/LUFA/Drivers/USB/Core/AVR8/../AVR8/../AVR8/Endpoint_AVR8.h **** 
 406:LUFA-111009/LUFA/Drivers/USB/Core/AVR8/../AVR8/../AVR8/Endpoint_AVR8.h **** 			/** Determines if the currently selected endpoint may be read from (if data is waiting in the en
 407:LUFA-111009/LUFA/Drivers/USB/Core/AVR8/../AVR8/../AVR8/Endpoint_AVR8.h **** 			 *  bank and the endpoint is an OUT direction, or if the bank is not yet full if the endpoint is
 408:LUFA-111009/LUFA/Drivers/USB/Core/AVR8/../AVR8/../AVR8/Endpoint_AVR8.h **** 			 *  direction). This function will return false if an error has occurred in the endpoint, if the
 409:LUFA-111009/LUFA/Drivers/USB/Core/AVR8/../AVR8/../AVR8/Endpoint_AVR8.h **** 			 *  is an OUT direction and no packet (or an empty packet) has been received, or if the endpoint
 410:LUFA-111009/LUFA/Drivers/USB/Core/AVR8/../AVR8/../AVR8/Endpoint_AVR8.h **** 			 *  direction and the endpoint bank is full.
 411:LUFA-111009/LUFA/Drivers/USB/Core/AVR8/../AVR8/../AVR8/Endpoint_AVR8.h **** 			 *
 412:LUFA-111009/LUFA/Drivers/USB/Core/AVR8/../AVR8/../AVR8/Endpoint_AVR8.h **** 			 *  \ingroup Group_EndpointPacketManagement_AVR8
 413:LUFA-111009/LUFA/Drivers/USB/Core/AVR8/../AVR8/../AVR8/Endpoint_AVR8.h **** 			 *
 414:LUFA-111009/LUFA/Drivers/USB/Core/AVR8/../AVR8/../AVR8/Endpoint_AVR8.h **** 			 *  \return Boolean \c true if the currently selected endpoint may be read from or written to, d
 415:LUFA-111009/LUFA/Drivers/USB/Core/AVR8/../AVR8/../AVR8/Endpoint_AVR8.h **** 			 *          on its direction.
 416:LUFA-111009/LUFA/Drivers/USB/Core/AVR8/../AVR8/../AVR8/Endpoint_AVR8.h **** 			 */
 417:LUFA-111009/LUFA/Drivers/USB/Core/AVR8/../AVR8/../AVR8/Endpoint_AVR8.h **** 			static inline bool Endpoint_IsReadWriteAllowed(void) ATTR_WARN_UNUSED_RESULT ATTR_ALWAYS_INLINE;
 418:LUFA-111009/LUFA/Drivers/USB/Core/AVR8/../AVR8/../AVR8/Endpoint_AVR8.h **** 			static inline bool Endpoint_IsReadWriteAllowed(void)
 419:LUFA-111009/LUFA/Drivers/USB/Core/AVR8/../AVR8/../AVR8/Endpoint_AVR8.h **** 			{
 420:LUFA-111009/LUFA/Drivers/USB/Core/AVR8/../AVR8/../AVR8/Endpoint_AVR8.h **** 				return ((UEINTX & (1 << RWAL)) ? true : false);
  80               		.loc 2 420 0
  81 002e 8091 E800 		lds r24,232
  82               	.LBE257:
  83               	.LBE256:
  50:LUFA-111009/LUFA/Drivers/USB/Core/AVR8/EndpointStream_AVR8.c **** 
  51:LUFA-111009/LUFA/Drivers/USB/Core/AVR8/EndpointStream_AVR8.c **** 	while (Length)
  52:LUFA-111009/LUFA/Drivers/USB/Core/AVR8/EndpointStream_AVR8.c **** 	{
  53:LUFA-111009/LUFA/Drivers/USB/Core/AVR8/EndpointStream_AVR8.c **** 		if (!(Endpoint_IsReadWriteAllowed()))
  84               		.loc 1 53 0
  85 0032 85FD      		sbrc r24,5
  86 0034 00C0      		rjmp .L5
  87               	.LBB258:
  88               	.LBB259:
 421:LUFA-111009/LUFA/Drivers/USB/Core/AVR8/../AVR8/../AVR8/Endpoint_AVR8.h **** 			}
 422:LUFA-111009/LUFA/Drivers/USB/Core/AVR8/../AVR8/../AVR8/Endpoint_AVR8.h **** 
 423:LUFA-111009/LUFA/Drivers/USB/Core/AVR8/../AVR8/../AVR8/Endpoint_AVR8.h **** 			/** Determines if the currently selected endpoint is configured.
 424:LUFA-111009/LUFA/Drivers/USB/Core/AVR8/../AVR8/../AVR8/Endpoint_AVR8.h **** 			 *
 425:LUFA-111009/LUFA/Drivers/USB/Core/AVR8/../AVR8/../AVR8/Endpoint_AVR8.h **** 			 *  \return Boolean \c true if the currently selected endpoint has been configured, \c false oth
 426:LUFA-111009/LUFA/Drivers/USB/Core/AVR8/../AVR8/../AVR8/Endpoint_AVR8.h **** 			 */
 427:LUFA-111009/LUFA/Drivers/USB/Core/AVR8/../AVR8/../AVR8/Endpoint_AVR8.h **** 			static inline bool Endpoint_IsConfigured(void) ATTR_WARN_UNUSED_RESULT ATTR_ALWAYS_INLINE;
 428:LUFA-111009/LUFA/Drivers/USB/Core/AVR8/../AVR8/../AVR8/Endpoint_AVR8.h **** 			static inline bool Endpoint_IsConfigured(void)
 429:LUFA-111009/LUFA/Drivers/USB/Core/AVR8/../AVR8/../AVR8/Endpoint_AVR8.h **** 			{
 430:LUFA-111009/LUFA/Drivers/USB/Core/AVR8/../AVR8/../AVR8/Endpoint_AVR8.h **** 				return ((UESTA0X & (1 << CFGOK)) ? true : false);
 431:LUFA-111009/LUFA/Drivers/USB/Core/AVR8/../AVR8/../AVR8/Endpoint_AVR8.h **** 			}
 432:LUFA-111009/LUFA/Drivers/USB/Core/AVR8/../AVR8/../AVR8/Endpoint_AVR8.h **** 
 433:LUFA-111009/LUFA/Drivers/USB/Core/AVR8/../AVR8/../AVR8/Endpoint_AVR8.h **** 			/** Returns a mask indicating which INTERRUPT type endpoints have interrupted - i.e. their
 434:LUFA-111009/LUFA/Drivers/USB/Core/AVR8/../AVR8/../AVR8/Endpoint_AVR8.h **** 			 *  interrupt duration has elapsed. Which endpoints have interrupted can be determined by
 435:LUFA-111009/LUFA/Drivers/USB/Core/AVR8/../AVR8/../AVR8/Endpoint_AVR8.h **** 			 *  masking the return value against <tt>(1 << <i>{Endpoint Number}</i>)</tt>.
 436:LUFA-111009/LUFA/Drivers/USB/Core/AVR8/../AVR8/../AVR8/Endpoint_AVR8.h **** 			 *
 437:LUFA-111009/LUFA/Drivers/USB/Core/AVR8/../AVR8/../AVR8/Endpoint_AVR8.h **** 			 *  \return Mask whose bits indicate which endpoints have interrupted.
 438:LUFA-111009/LUFA/Drivers/USB/Core/AVR8/../AVR8/../AVR8/Endpoint_AVR8.h **** 			 */
 439:LUFA-111009/LUFA/Drivers/USB/Core/AVR8/../AVR8/../AVR8/Endpoint_AVR8.h **** 			static inline uint8_t Endpoint_GetEndpointInterrupts(void) ATTR_WARN_UNUSED_RESULT ATTR_ALWAYS_I
 440:LUFA-111009/LUFA/Drivers/USB/Core/AVR8/../AVR8/../AVR8/Endpoint_AVR8.h **** 			static inline uint8_t Endpoint_GetEndpointInterrupts(void)
 441:LUFA-111009/LUFA/Drivers/USB/Core/AVR8/../AVR8/../AVR8/Endpoint_AVR8.h **** 			{
 442:LUFA-111009/LUFA/Drivers/USB/Core/AVR8/../AVR8/../AVR8/Endpoint_AVR8.h **** 				return UEINT;
 443:LUFA-111009/LUFA/Drivers/USB/Core/AVR8/../AVR8/../AVR8/Endpoint_AVR8.h **** 			}
 444:LUFA-111009/LUFA/Drivers/USB/Core/AVR8/../AVR8/../AVR8/Endpoint_AVR8.h **** 
 445:LUFA-111009/LUFA/Drivers/USB/Core/AVR8/../AVR8/../AVR8/Endpoint_AVR8.h **** 			/** Determines if the specified endpoint number has interrupted (valid only for INTERRUPT type
 446:LUFA-111009/LUFA/Drivers/USB/Core/AVR8/../AVR8/../AVR8/Endpoint_AVR8.h **** 			 *  endpoints).
 447:LUFA-111009/LUFA/Drivers/USB/Core/AVR8/../AVR8/../AVR8/Endpoint_AVR8.h **** 			 *
 448:LUFA-111009/LUFA/Drivers/USB/Core/AVR8/../AVR8/../AVR8/Endpoint_AVR8.h **** 			 *  \param[in] EndpointNumber  Index of the endpoint whose interrupt flag should be tested.
 449:LUFA-111009/LUFA/Drivers/USB/Core/AVR8/../AVR8/../AVR8/Endpoint_AVR8.h **** 			 *
 450:LUFA-111009/LUFA/Drivers/USB/Core/AVR8/../AVR8/../AVR8/Endpoint_AVR8.h **** 			 *  \return Boolean \c true if the specified endpoint has interrupted, \c false otherwise.
 451:LUFA-111009/LUFA/Drivers/USB/Core/AVR8/../AVR8/../AVR8/Endpoint_AVR8.h **** 			 */
 452:LUFA-111009/LUFA/Drivers/USB/Core/AVR8/../AVR8/../AVR8/Endpoint_AVR8.h **** 			static inline bool Endpoint_HasEndpointInterrupted(const uint8_t EndpointNumber) ATTR_WARN_UNUSE
 453:LUFA-111009/LUFA/Drivers/USB/Core/AVR8/../AVR8/../AVR8/Endpoint_AVR8.h **** 			static inline bool Endpoint_HasEndpointInterrupted(const uint8_t EndpointNumber)
 454:LUFA-111009/LUFA/Drivers/USB/Core/AVR8/../AVR8/../AVR8/Endpoint_AVR8.h **** 			{
 455:LUFA-111009/LUFA/Drivers/USB/Core/AVR8/../AVR8/../AVR8/Endpoint_AVR8.h **** 				return ((Endpoint_GetEndpointInterrupts() & (1 << EndpointNumber)) ? true : false);
 456:LUFA-111009/LUFA/Drivers/USB/Core/AVR8/../AVR8/../AVR8/Endpoint_AVR8.h **** 			}
 457:LUFA-111009/LUFA/Drivers/USB/Core/AVR8/../AVR8/../AVR8/Endpoint_AVR8.h **** 
 458:LUFA-111009/LUFA/Drivers/USB/Core/AVR8/../AVR8/../AVR8/Endpoint_AVR8.h **** 			/** Determines if the selected IN endpoint is ready for a new packet to be sent to the host.
 459:LUFA-111009/LUFA/Drivers/USB/Core/AVR8/../AVR8/../AVR8/Endpoint_AVR8.h **** 			 *
 460:LUFA-111009/LUFA/Drivers/USB/Core/AVR8/../AVR8/../AVR8/Endpoint_AVR8.h **** 			 *  \ingroup Group_EndpointPacketManagement_AVR8
 461:LUFA-111009/LUFA/Drivers/USB/Core/AVR8/../AVR8/../AVR8/Endpoint_AVR8.h **** 			 *
 462:LUFA-111009/LUFA/Drivers/USB/Core/AVR8/../AVR8/../AVR8/Endpoint_AVR8.h **** 			 *  \return Boolean \c true if the current endpoint is ready for an IN packet, \c false otherwis
 463:LUFA-111009/LUFA/Drivers/USB/Core/AVR8/../AVR8/../AVR8/Endpoint_AVR8.h **** 			 */
 464:LUFA-111009/LUFA/Drivers/USB/Core/AVR8/../AVR8/../AVR8/Endpoint_AVR8.h **** 			static inline bool Endpoint_IsINReady(void) ATTR_WARN_UNUSED_RESULT ATTR_ALWAYS_INLINE;
 465:LUFA-111009/LUFA/Drivers/USB/Core/AVR8/../AVR8/../AVR8/Endpoint_AVR8.h **** 			static inline bool Endpoint_IsINReady(void)
 466:LUFA-111009/LUFA/Drivers/USB/Core/AVR8/../AVR8/../AVR8/Endpoint_AVR8.h **** 			{
 467:LUFA-111009/LUFA/Drivers/USB/Core/AVR8/../AVR8/../AVR8/Endpoint_AVR8.h **** 				return ((UEINTX & (1 << TXINI)) ? true : false);
 468:LUFA-111009/LUFA/Drivers/USB/Core/AVR8/../AVR8/../AVR8/Endpoint_AVR8.h **** 			}
 469:LUFA-111009/LUFA/Drivers/USB/Core/AVR8/../AVR8/../AVR8/Endpoint_AVR8.h **** 
 470:LUFA-111009/LUFA/Drivers/USB/Core/AVR8/../AVR8/../AVR8/Endpoint_AVR8.h **** 			/** Determines if the selected OUT endpoint has received new packet from the host.
 471:LUFA-111009/LUFA/Drivers/USB/Core/AVR8/../AVR8/../AVR8/Endpoint_AVR8.h **** 			 *
 472:LUFA-111009/LUFA/Drivers/USB/Core/AVR8/../AVR8/../AVR8/Endpoint_AVR8.h **** 			 *  \ingroup Group_EndpointPacketManagement_AVR8
 473:LUFA-111009/LUFA/Drivers/USB/Core/AVR8/../AVR8/../AVR8/Endpoint_AVR8.h **** 			 *
 474:LUFA-111009/LUFA/Drivers/USB/Core/AVR8/../AVR8/../AVR8/Endpoint_AVR8.h **** 			 *  \return Boolean \c true if current endpoint is has received an OUT packet, \c false otherwis
 475:LUFA-111009/LUFA/Drivers/USB/Core/AVR8/../AVR8/../AVR8/Endpoint_AVR8.h **** 			 */
 476:LUFA-111009/LUFA/Drivers/USB/Core/AVR8/../AVR8/../AVR8/Endpoint_AVR8.h **** 			static inline bool Endpoint_IsOUTReceived(void) ATTR_WARN_UNUSED_RESULT ATTR_ALWAYS_INLINE;
 477:LUFA-111009/LUFA/Drivers/USB/Core/AVR8/../AVR8/../AVR8/Endpoint_AVR8.h **** 			static inline bool Endpoint_IsOUTReceived(void)
 478:LUFA-111009/LUFA/Drivers/USB/Core/AVR8/../AVR8/../AVR8/Endpoint_AVR8.h **** 			{
 479:LUFA-111009/LUFA/Drivers/USB/Core/AVR8/../AVR8/../AVR8/Endpoint_AVR8.h **** 				return ((UEINTX & (1 << RXOUTI)) ? true : false);
 480:LUFA-111009/LUFA/Drivers/USB/Core/AVR8/../AVR8/../AVR8/Endpoint_AVR8.h **** 			}
 481:LUFA-111009/LUFA/Drivers/USB/Core/AVR8/../AVR8/../AVR8/Endpoint_AVR8.h **** 
 482:LUFA-111009/LUFA/Drivers/USB/Core/AVR8/../AVR8/../AVR8/Endpoint_AVR8.h **** 			/** Determines if the current CONTROL type endpoint has received a SETUP packet.
 483:LUFA-111009/LUFA/Drivers/USB/Core/AVR8/../AVR8/../AVR8/Endpoint_AVR8.h **** 			 *
 484:LUFA-111009/LUFA/Drivers/USB/Core/AVR8/../AVR8/../AVR8/Endpoint_AVR8.h **** 			 *  \ingroup Group_EndpointPacketManagement_AVR8
 485:LUFA-111009/LUFA/Drivers/USB/Core/AVR8/../AVR8/../AVR8/Endpoint_AVR8.h **** 			 *
 486:LUFA-111009/LUFA/Drivers/USB/Core/AVR8/../AVR8/../AVR8/Endpoint_AVR8.h **** 			 *  \return Boolean \c true if the selected endpoint has received a SETUP packet, \c false other
 487:LUFA-111009/LUFA/Drivers/USB/Core/AVR8/../AVR8/../AVR8/Endpoint_AVR8.h **** 			 */
 488:LUFA-111009/LUFA/Drivers/USB/Core/AVR8/../AVR8/../AVR8/Endpoint_AVR8.h **** 			static inline bool Endpoint_IsSETUPReceived(void) ATTR_WARN_UNUSED_RESULT ATTR_ALWAYS_INLINE;
 489:LUFA-111009/LUFA/Drivers/USB/Core/AVR8/../AVR8/../AVR8/Endpoint_AVR8.h **** 			static inline bool Endpoint_IsSETUPReceived(void)
 490:LUFA-111009/LUFA/Drivers/USB/Core/AVR8/../AVR8/../AVR8/Endpoint_AVR8.h **** 			{
 491:LUFA-111009/LUFA/Drivers/USB/Core/AVR8/../AVR8/../AVR8/Endpoint_AVR8.h **** 				return ((UEINTX & (1 << RXSTPI)) ? true : false);
 492:LUFA-111009/LUFA/Drivers/USB/Core/AVR8/../AVR8/../AVR8/Endpoint_AVR8.h **** 			}
 493:LUFA-111009/LUFA/Drivers/USB/Core/AVR8/../AVR8/../AVR8/Endpoint_AVR8.h **** 
 494:LUFA-111009/LUFA/Drivers/USB/Core/AVR8/../AVR8/../AVR8/Endpoint_AVR8.h **** 			/** Clears a received SETUP packet on the currently selected CONTROL type endpoint, freeing up t
 495:LUFA-111009/LUFA/Drivers/USB/Core/AVR8/../AVR8/../AVR8/Endpoint_AVR8.h **** 			 *  endpoint for the next packet.
 496:LUFA-111009/LUFA/Drivers/USB/Core/AVR8/../AVR8/../AVR8/Endpoint_AVR8.h **** 			 *
 497:LUFA-111009/LUFA/Drivers/USB/Core/AVR8/../AVR8/../AVR8/Endpoint_AVR8.h **** 			 *  \ingroup Group_EndpointPacketManagement_AVR8
 498:LUFA-111009/LUFA/Drivers/USB/Core/AVR8/../AVR8/../AVR8/Endpoint_AVR8.h **** 			 *
 499:LUFA-111009/LUFA/Drivers/USB/Core/AVR8/../AVR8/../AVR8/Endpoint_AVR8.h **** 			 *  \note This is not applicable for non CONTROL type endpoints.
 500:LUFA-111009/LUFA/Drivers/USB/Core/AVR8/../AVR8/../AVR8/Endpoint_AVR8.h **** 			 */
 501:LUFA-111009/LUFA/Drivers/USB/Core/AVR8/../AVR8/../AVR8/Endpoint_AVR8.h **** 			static inline void Endpoint_ClearSETUP(void) ATTR_ALWAYS_INLINE;
 502:LUFA-111009/LUFA/Drivers/USB/Core/AVR8/../AVR8/../AVR8/Endpoint_AVR8.h **** 			static inline void Endpoint_ClearSETUP(void)
 503:LUFA-111009/LUFA/Drivers/USB/Core/AVR8/../AVR8/../AVR8/Endpoint_AVR8.h **** 			{
 504:LUFA-111009/LUFA/Drivers/USB/Core/AVR8/../AVR8/../AVR8/Endpoint_AVR8.h **** 				UEINTX &= ~(1 << RXSTPI);
 505:LUFA-111009/LUFA/Drivers/USB/Core/AVR8/../AVR8/../AVR8/Endpoint_AVR8.h **** 			}
 506:LUFA-111009/LUFA/Drivers/USB/Core/AVR8/../AVR8/../AVR8/Endpoint_AVR8.h **** 
 507:LUFA-111009/LUFA/Drivers/USB/Core/AVR8/../AVR8/../AVR8/Endpoint_AVR8.h **** 			/** Sends an IN packet to the host on the currently selected endpoint, freeing up the endpoint f
 508:LUFA-111009/LUFA/Drivers/USB/Core/AVR8/../AVR8/../AVR8/Endpoint_AVR8.h **** 			 *  next packet and switching to the alternative endpoint bank if double banked.
 509:LUFA-111009/LUFA/Drivers/USB/Core/AVR8/../AVR8/../AVR8/Endpoint_AVR8.h **** 			 *
 510:LUFA-111009/LUFA/Drivers/USB/Core/AVR8/../AVR8/../AVR8/Endpoint_AVR8.h **** 			 *  \ingroup Group_EndpointPacketManagement_AVR8
 511:LUFA-111009/LUFA/Drivers/USB/Core/AVR8/../AVR8/../AVR8/Endpoint_AVR8.h **** 			 */
 512:LUFA-111009/LUFA/Drivers/USB/Core/AVR8/../AVR8/../AVR8/Endpoint_AVR8.h **** 			static inline void Endpoint_ClearIN(void) ATTR_ALWAYS_INLINE;
 513:LUFA-111009/LUFA/Drivers/USB/Core/AVR8/../AVR8/../AVR8/Endpoint_AVR8.h **** 			static inline void Endpoint_ClearIN(void)
 514:LUFA-111009/LUFA/Drivers/USB/Core/AVR8/../AVR8/../AVR8/Endpoint_AVR8.h **** 			{
 515:LUFA-111009/LUFA/Drivers/USB/Core/AVR8/../AVR8/../AVR8/Endpoint_AVR8.h **** 				#if !defined(CONTROL_ONLY_DEVICE)
 516:LUFA-111009/LUFA/Drivers/USB/Core/AVR8/../AVR8/../AVR8/Endpoint_AVR8.h **** 					UEINTX &= ~((1 << TXINI) | (1 << FIFOCON));
 517:LUFA-111009/LUFA/Drivers/USB/Core/AVR8/../AVR8/../AVR8/Endpoint_AVR8.h **** 				#else
 518:LUFA-111009/LUFA/Drivers/USB/Core/AVR8/../AVR8/../AVR8/Endpoint_AVR8.h **** 					UEINTX &= ~(1 << TXINI);
 519:LUFA-111009/LUFA/Drivers/USB/Core/AVR8/../AVR8/../AVR8/Endpoint_AVR8.h **** 				#endif
 520:LUFA-111009/LUFA/Drivers/USB/Core/AVR8/../AVR8/../AVR8/Endpoint_AVR8.h **** 			}
 521:LUFA-111009/LUFA/Drivers/USB/Core/AVR8/../AVR8/../AVR8/Endpoint_AVR8.h **** 
 522:LUFA-111009/LUFA/Drivers/USB/Core/AVR8/../AVR8/../AVR8/Endpoint_AVR8.h **** 			/** Acknowledges an OUT packet to the host on the currently selected endpoint, freeing up the en
 523:LUFA-111009/LUFA/Drivers/USB/Core/AVR8/../AVR8/../AVR8/Endpoint_AVR8.h **** 			 *  for the next packet and switching to the alternative endpoint bank if double banked.
 524:LUFA-111009/LUFA/Drivers/USB/Core/AVR8/../AVR8/../AVR8/Endpoint_AVR8.h **** 			 *
 525:LUFA-111009/LUFA/Drivers/USB/Core/AVR8/../AVR8/../AVR8/Endpoint_AVR8.h **** 			 *  \ingroup Group_EndpointPacketManagement_AVR8
 526:LUFA-111009/LUFA/Drivers/USB/Core/AVR8/../AVR8/../AVR8/Endpoint_AVR8.h **** 			 */
 527:LUFA-111009/LUFA/Drivers/USB/Core/AVR8/../AVR8/../AVR8/Endpoint_AVR8.h **** 			static inline void Endpoint_ClearOUT(void) ATTR_ALWAYS_INLINE;
 528:LUFA-111009/LUFA/Drivers/USB/Core/AVR8/../AVR8/../AVR8/Endpoint_AVR8.h **** 			static inline void Endpoint_ClearOUT(void)
 529:LUFA-111009/LUFA/Drivers/USB/Core/AVR8/../AVR8/../AVR8/Endpoint_AVR8.h **** 			{
 530:LUFA-111009/LUFA/Drivers/USB/Core/AVR8/../AVR8/../AVR8/Endpoint_AVR8.h **** 				#if !defined(CONTROL_ONLY_DEVICE)
 531:LUFA-111009/LUFA/Drivers/USB/Core/AVR8/../AVR8/../AVR8/Endpoint_AVR8.h **** 					UEINTX &= ~((1 << RXOUTI) | (1 << FIFOCON));
  89               		.loc 2 531 0
  90 0036 8091 E800 		lds r24,232
  91 003a 8B77      		andi r24,lo8(123)
  92 003c 8093 E800 		sts 232,r24
  93               	.LBE259:
  94               	.LBE258:
  54:LUFA-111009/LUFA/Drivers/USB/Core/AVR8/EndpointStream_AVR8.c **** 		{
  55:LUFA-111009/LUFA/Drivers/USB/Core/AVR8/EndpointStream_AVR8.c **** 			Endpoint_ClearOUT();
  56:LUFA-111009/LUFA/Drivers/USB/Core/AVR8/EndpointStream_AVR8.c **** 
  57:LUFA-111009/LUFA/Drivers/USB/Core/AVR8/EndpointStream_AVR8.c **** 			if (BytesProcessed != NULL)
  95               		.loc 1 57 0
  96 0040 2097      		sbiw r28,0
  97 0042 01F0      		breq .L6
  58:LUFA-111009/LUFA/Drivers/USB/Core/AVR8/EndpointStream_AVR8.c **** 			{
  59:LUFA-111009/LUFA/Drivers/USB/Core/AVR8/EndpointStream_AVR8.c **** 				*BytesProcessed += BytesInTransfer;
  98               		.loc 1 59 0
  99 0044 8881      		ld r24,Y
 100 0046 9981      		ldd r25,Y+1
 101 0048 8E0D      		add r24,r14
 102 004a 9F1D      		adc r25,r15
 103 004c 9983      		std Y+1,r25
 104 004e 8883      		st Y,r24
  60:LUFA-111009/LUFA/Drivers/USB/Core/AVR8/EndpointStream_AVR8.c **** 				return ENDPOINT_RWSTREAM_IncompleteTransfer;
 105               		.loc 1 60 0
 106 0050 85E0      		ldi r24,lo8(5)
 107 0052 D82E      		mov r13,r24
 108 0054 00C0      		rjmp .L2
 109               	.L6:
  61:LUFA-111009/LUFA/Drivers/USB/Core/AVR8/EndpointStream_AVR8.c **** 			}
  62:LUFA-111009/LUFA/Drivers/USB/Core/AVR8/EndpointStream_AVR8.c **** 
  63:LUFA-111009/LUFA/Drivers/USB/Core/AVR8/EndpointStream_AVR8.c **** 			if ((ErrorCode = Endpoint_WaitUntilReady()))
 110               		.loc 1 63 0
 111 0056 0E94 0000 		call Endpoint_WaitUntilReady
 112               	.LVL6:
 113 005a 8823      		tst r24
 114 005c 01F0      		breq .L13
 115 005e 00C0      		rjmp .L9
 116               	.LVL7:
 117               	.L5:
 118               	.LBB260:
 119               	.LBB261:
 532:LUFA-111009/LUFA/Drivers/USB/Core/AVR8/../AVR8/../AVR8/Endpoint_AVR8.h **** 				#else
 533:LUFA-111009/LUFA/Drivers/USB/Core/AVR8/../AVR8/../AVR8/Endpoint_AVR8.h **** 					UEINTX &= ~(1 << RXOUTI);
 534:LUFA-111009/LUFA/Drivers/USB/Core/AVR8/../AVR8/../AVR8/Endpoint_AVR8.h **** 				#endif
 535:LUFA-111009/LUFA/Drivers/USB/Core/AVR8/../AVR8/../AVR8/Endpoint_AVR8.h **** 			}
 536:LUFA-111009/LUFA/Drivers/USB/Core/AVR8/../AVR8/../AVR8/Endpoint_AVR8.h **** 
 537:LUFA-111009/LUFA/Drivers/USB/Core/AVR8/../AVR8/../AVR8/Endpoint_AVR8.h **** 			/** Stalls the current endpoint, indicating to the host that a logical problem occurred with the
 538:LUFA-111009/LUFA/Drivers/USB/Core/AVR8/../AVR8/../AVR8/Endpoint_AVR8.h **** 			 *  indicated endpoint and that the current transfer sequence should be aborted. This provides a
 539:LUFA-111009/LUFA/Drivers/USB/Core/AVR8/../AVR8/../AVR8/Endpoint_AVR8.h **** 			 *  way for devices to indicate invalid commands to the host so that the current transfer can be
 540:LUFA-111009/LUFA/Drivers/USB/Core/AVR8/../AVR8/../AVR8/Endpoint_AVR8.h **** 			 *  aborted and the host can begin its own recovery sequence.
 541:LUFA-111009/LUFA/Drivers/USB/Core/AVR8/../AVR8/../AVR8/Endpoint_AVR8.h **** 			 *
 542:LUFA-111009/LUFA/Drivers/USB/Core/AVR8/../AVR8/../AVR8/Endpoint_AVR8.h **** 			 *  The currently selected endpoint remains stalled until either the \ref Endpoint_ClearStall() 
 543:LUFA-111009/LUFA/Drivers/USB/Core/AVR8/../AVR8/../AVR8/Endpoint_AVR8.h **** 			 *  is called, or the host issues a CLEAR FEATURE request to the device for the currently select
 544:LUFA-111009/LUFA/Drivers/USB/Core/AVR8/../AVR8/../AVR8/Endpoint_AVR8.h **** 			 *  endpoint.
 545:LUFA-111009/LUFA/Drivers/USB/Core/AVR8/../AVR8/../AVR8/Endpoint_AVR8.h **** 			 *
 546:LUFA-111009/LUFA/Drivers/USB/Core/AVR8/../AVR8/../AVR8/Endpoint_AVR8.h **** 			 *  \ingroup Group_EndpointPacketManagement_AVR8
 547:LUFA-111009/LUFA/Drivers/USB/Core/AVR8/../AVR8/../AVR8/Endpoint_AVR8.h **** 			 */
 548:LUFA-111009/LUFA/Drivers/USB/Core/AVR8/../AVR8/../AVR8/Endpoint_AVR8.h **** 			static inline void Endpoint_StallTransaction(void) ATTR_ALWAYS_INLINE;
 549:LUFA-111009/LUFA/Drivers/USB/Core/AVR8/../AVR8/../AVR8/Endpoint_AVR8.h **** 			static inline void Endpoint_StallTransaction(void)
 550:LUFA-111009/LUFA/Drivers/USB/Core/AVR8/../AVR8/../AVR8/Endpoint_AVR8.h **** 			{
 551:LUFA-111009/LUFA/Drivers/USB/Core/AVR8/../AVR8/../AVR8/Endpoint_AVR8.h **** 				UECONX |= (1 << STALLRQ);
 552:LUFA-111009/LUFA/Drivers/USB/Core/AVR8/../AVR8/../AVR8/Endpoint_AVR8.h **** 			}
 553:LUFA-111009/LUFA/Drivers/USB/Core/AVR8/../AVR8/../AVR8/Endpoint_AVR8.h **** 
 554:LUFA-111009/LUFA/Drivers/USB/Core/AVR8/../AVR8/../AVR8/Endpoint_AVR8.h **** 			/** Clears the STALL condition on the currently selected endpoint.
 555:LUFA-111009/LUFA/Drivers/USB/Core/AVR8/../AVR8/../AVR8/Endpoint_AVR8.h **** 			 *
 556:LUFA-111009/LUFA/Drivers/USB/Core/AVR8/../AVR8/../AVR8/Endpoint_AVR8.h **** 			 *  \ingroup Group_EndpointPacketManagement_AVR8
 557:LUFA-111009/LUFA/Drivers/USB/Core/AVR8/../AVR8/../AVR8/Endpoint_AVR8.h **** 			 */
 558:LUFA-111009/LUFA/Drivers/USB/Core/AVR8/../AVR8/../AVR8/Endpoint_AVR8.h **** 			static inline void Endpoint_ClearStall(void) ATTR_ALWAYS_INLINE;
 559:LUFA-111009/LUFA/Drivers/USB/Core/AVR8/../AVR8/../AVR8/Endpoint_AVR8.h **** 			static inline void Endpoint_ClearStall(void)
 560:LUFA-111009/LUFA/Drivers/USB/Core/AVR8/../AVR8/../AVR8/Endpoint_AVR8.h **** 			{
 561:LUFA-111009/LUFA/Drivers/USB/Core/AVR8/../AVR8/../AVR8/Endpoint_AVR8.h **** 				UECONX |= (1 << STALLRQC);
 562:LUFA-111009/LUFA/Drivers/USB/Core/AVR8/../AVR8/../AVR8/Endpoint_AVR8.h **** 			}
 563:LUFA-111009/LUFA/Drivers/USB/Core/AVR8/../AVR8/../AVR8/Endpoint_AVR8.h **** 
 564:LUFA-111009/LUFA/Drivers/USB/Core/AVR8/../AVR8/../AVR8/Endpoint_AVR8.h **** 			/** Determines if the currently selected endpoint is stalled, false otherwise.
 565:LUFA-111009/LUFA/Drivers/USB/Core/AVR8/../AVR8/../AVR8/Endpoint_AVR8.h **** 			 *
 566:LUFA-111009/LUFA/Drivers/USB/Core/AVR8/../AVR8/../AVR8/Endpoint_AVR8.h **** 			 *  \ingroup Group_EndpointPacketManagement_AVR8
 567:LUFA-111009/LUFA/Drivers/USB/Core/AVR8/../AVR8/../AVR8/Endpoint_AVR8.h **** 			 *
 568:LUFA-111009/LUFA/Drivers/USB/Core/AVR8/../AVR8/../AVR8/Endpoint_AVR8.h **** 			 *  \return Boolean \c true if the currently selected endpoint is stalled, \c false otherwise.
 569:LUFA-111009/LUFA/Drivers/USB/Core/AVR8/../AVR8/../AVR8/Endpoint_AVR8.h **** 			 */
 570:LUFA-111009/LUFA/Drivers/USB/Core/AVR8/../AVR8/../AVR8/Endpoint_AVR8.h **** 			static inline bool Endpoint_IsStalled(void) ATTR_WARN_UNUSED_RESULT ATTR_ALWAYS_INLINE;
 571:LUFA-111009/LUFA/Drivers/USB/Core/AVR8/../AVR8/../AVR8/Endpoint_AVR8.h **** 			static inline bool Endpoint_IsStalled(void)
 572:LUFA-111009/LUFA/Drivers/USB/Core/AVR8/../AVR8/../AVR8/Endpoint_AVR8.h **** 			{
 573:LUFA-111009/LUFA/Drivers/USB/Core/AVR8/../AVR8/../AVR8/Endpoint_AVR8.h **** 				return ((UECONX & (1 << STALLRQ)) ? true : false);
 574:LUFA-111009/LUFA/Drivers/USB/Core/AVR8/../AVR8/../AVR8/Endpoint_AVR8.h **** 			}
 575:LUFA-111009/LUFA/Drivers/USB/Core/AVR8/../AVR8/../AVR8/Endpoint_AVR8.h **** 
 576:LUFA-111009/LUFA/Drivers/USB/Core/AVR8/../AVR8/../AVR8/Endpoint_AVR8.h **** 			/** Resets the data toggle of the currently selected endpoint. */
 577:LUFA-111009/LUFA/Drivers/USB/Core/AVR8/../AVR8/../AVR8/Endpoint_AVR8.h **** 			static inline void Endpoint_ResetDataToggle(void) ATTR_ALWAYS_INLINE;
 578:LUFA-111009/LUFA/Drivers/USB/Core/AVR8/../AVR8/../AVR8/Endpoint_AVR8.h **** 			static inline void Endpoint_ResetDataToggle(void)
 579:LUFA-111009/LUFA/Drivers/USB/Core/AVR8/../AVR8/../AVR8/Endpoint_AVR8.h **** 			{
 580:LUFA-111009/LUFA/Drivers/USB/Core/AVR8/../AVR8/../AVR8/Endpoint_AVR8.h **** 				UECONX |= (1 << RSTDT);
 581:LUFA-111009/LUFA/Drivers/USB/Core/AVR8/../AVR8/../AVR8/Endpoint_AVR8.h **** 			}
 582:LUFA-111009/LUFA/Drivers/USB/Core/AVR8/../AVR8/../AVR8/Endpoint_AVR8.h **** 
 583:LUFA-111009/LUFA/Drivers/USB/Core/AVR8/../AVR8/../AVR8/Endpoint_AVR8.h **** 			/** Determines the currently selected endpoint's direction.
 584:LUFA-111009/LUFA/Drivers/USB/Core/AVR8/../AVR8/../AVR8/Endpoint_AVR8.h **** 			 *
 585:LUFA-111009/LUFA/Drivers/USB/Core/AVR8/../AVR8/../AVR8/Endpoint_AVR8.h **** 			 *  \return The currently selected endpoint's direction, as a \c ENDPOINT_DIR_* mask.
 586:LUFA-111009/LUFA/Drivers/USB/Core/AVR8/../AVR8/../AVR8/Endpoint_AVR8.h **** 			 */
 587:LUFA-111009/LUFA/Drivers/USB/Core/AVR8/../AVR8/../AVR8/Endpoint_AVR8.h **** 			static inline uint8_t Endpoint_GetEndpointDirection(void) ATTR_WARN_UNUSED_RESULT ATTR_ALWAYS_IN
 588:LUFA-111009/LUFA/Drivers/USB/Core/AVR8/../AVR8/../AVR8/Endpoint_AVR8.h **** 			static inline uint8_t Endpoint_GetEndpointDirection(void)
 589:LUFA-111009/LUFA/Drivers/USB/Core/AVR8/../AVR8/../AVR8/Endpoint_AVR8.h **** 			{
 590:LUFA-111009/LUFA/Drivers/USB/Core/AVR8/../AVR8/../AVR8/Endpoint_AVR8.h **** 				return (UECFG0X & (1 << EPDIR)) ? ENDPOINT_DIR_IN : ENDPOINT_DIR_OUT;
 591:LUFA-111009/LUFA/Drivers/USB/Core/AVR8/../AVR8/../AVR8/Endpoint_AVR8.h **** 			}
 592:LUFA-111009/LUFA/Drivers/USB/Core/AVR8/../AVR8/../AVR8/Endpoint_AVR8.h **** 
 593:LUFA-111009/LUFA/Drivers/USB/Core/AVR8/../AVR8/../AVR8/Endpoint_AVR8.h **** 			/** Sets the direction of the currently selected endpoint.
 594:LUFA-111009/LUFA/Drivers/USB/Core/AVR8/../AVR8/../AVR8/Endpoint_AVR8.h **** 			 *
 595:LUFA-111009/LUFA/Drivers/USB/Core/AVR8/../AVR8/../AVR8/Endpoint_AVR8.h **** 			 *  \param[in] DirectionMask  New endpoint direction, as a \c ENDPOINT_DIR_* mask.
 596:LUFA-111009/LUFA/Drivers/USB/Core/AVR8/../AVR8/../AVR8/Endpoint_AVR8.h **** 			 */
 597:LUFA-111009/LUFA/Drivers/USB/Core/AVR8/../AVR8/../AVR8/Endpoint_AVR8.h **** 			static inline void Endpoint_SetEndpointDirection(const uint8_t DirectionMask) ATTR_ALWAYS_INLINE
 598:LUFA-111009/LUFA/Drivers/USB/Core/AVR8/../AVR8/../AVR8/Endpoint_AVR8.h **** 			static inline void Endpoint_SetEndpointDirection(const uint8_t DirectionMask)
 599:LUFA-111009/LUFA/Drivers/USB/Core/AVR8/../AVR8/../AVR8/Endpoint_AVR8.h **** 			{
 600:LUFA-111009/LUFA/Drivers/USB/Core/AVR8/../AVR8/../AVR8/Endpoint_AVR8.h **** 				UECFG0X = ((UECFG0X & ~(1 << EPDIR)) | (DirectionMask ? (1 << EPDIR) : 0));
 601:LUFA-111009/LUFA/Drivers/USB/Core/AVR8/../AVR8/../AVR8/Endpoint_AVR8.h **** 			}
 602:LUFA-111009/LUFA/Drivers/USB/Core/AVR8/../AVR8/../AVR8/Endpoint_AVR8.h **** 
 603:LUFA-111009/LUFA/Drivers/USB/Core/AVR8/../AVR8/../AVR8/Endpoint_AVR8.h **** 			/** Reads one byte from the currently selected endpoint's bank, for OUT direction endpoints.
 604:LUFA-111009/LUFA/Drivers/USB/Core/AVR8/../AVR8/../AVR8/Endpoint_AVR8.h **** 			 *
 605:LUFA-111009/LUFA/Drivers/USB/Core/AVR8/../AVR8/../AVR8/Endpoint_AVR8.h **** 			 *  \ingroup Group_EndpointPrimitiveRW_AVR8
 606:LUFA-111009/LUFA/Drivers/USB/Core/AVR8/../AVR8/../AVR8/Endpoint_AVR8.h **** 			 *
 607:LUFA-111009/LUFA/Drivers/USB/Core/AVR8/../AVR8/../AVR8/Endpoint_AVR8.h **** 			 *  \return Next byte in the currently selected endpoint's FIFO buffer.
 608:LUFA-111009/LUFA/Drivers/USB/Core/AVR8/../AVR8/../AVR8/Endpoint_AVR8.h **** 			 */
 609:LUFA-111009/LUFA/Drivers/USB/Core/AVR8/../AVR8/../AVR8/Endpoint_AVR8.h **** 			static inline uint8_t Endpoint_Read_8(void) ATTR_WARN_UNUSED_RESULT ATTR_ALWAYS_INLINE;
 610:LUFA-111009/LUFA/Drivers/USB/Core/AVR8/../AVR8/../AVR8/Endpoint_AVR8.h **** 			static inline uint8_t Endpoint_Read_8(void)
 611:LUFA-111009/LUFA/Drivers/USB/Core/AVR8/../AVR8/../AVR8/Endpoint_AVR8.h **** 			{
 612:LUFA-111009/LUFA/Drivers/USB/Core/AVR8/../AVR8/../AVR8/Endpoint_AVR8.h **** 				return UEDATX;
 613:LUFA-111009/LUFA/Drivers/USB/Core/AVR8/../AVR8/../AVR8/Endpoint_AVR8.h **** 			}
 614:LUFA-111009/LUFA/Drivers/USB/Core/AVR8/../AVR8/../AVR8/Endpoint_AVR8.h **** 
 615:LUFA-111009/LUFA/Drivers/USB/Core/AVR8/../AVR8/../AVR8/Endpoint_AVR8.h **** 			/** Writes one byte to the currently selected endpoint's bank, for IN direction endpoints.
 616:LUFA-111009/LUFA/Drivers/USB/Core/AVR8/../AVR8/../AVR8/Endpoint_AVR8.h **** 			 *
 617:LUFA-111009/LUFA/Drivers/USB/Core/AVR8/../AVR8/../AVR8/Endpoint_AVR8.h **** 			 *  \ingroup Group_EndpointPrimitiveRW_AVR8
 618:LUFA-111009/LUFA/Drivers/USB/Core/AVR8/../AVR8/../AVR8/Endpoint_AVR8.h **** 			 *
 619:LUFA-111009/LUFA/Drivers/USB/Core/AVR8/../AVR8/../AVR8/Endpoint_AVR8.h **** 			 *  \param[in] Data  Data to write into the the currently selected endpoint's FIFO buffer.
 620:LUFA-111009/LUFA/Drivers/USB/Core/AVR8/../AVR8/../AVR8/Endpoint_AVR8.h **** 			 */
 621:LUFA-111009/LUFA/Drivers/USB/Core/AVR8/../AVR8/../AVR8/Endpoint_AVR8.h **** 			static inline void Endpoint_Write_8(const uint8_t Data) ATTR_ALWAYS_INLINE;
 622:LUFA-111009/LUFA/Drivers/USB/Core/AVR8/../AVR8/../AVR8/Endpoint_AVR8.h **** 			static inline void Endpoint_Write_8(const uint8_t Data)
 623:LUFA-111009/LUFA/Drivers/USB/Core/AVR8/../AVR8/../AVR8/Endpoint_AVR8.h **** 			{
 624:LUFA-111009/LUFA/Drivers/USB/Core/AVR8/../AVR8/../AVR8/Endpoint_AVR8.h **** 				UEDATX = Data;
 625:LUFA-111009/LUFA/Drivers/USB/Core/AVR8/../AVR8/../AVR8/Endpoint_AVR8.h **** 			}
 626:LUFA-111009/LUFA/Drivers/USB/Core/AVR8/../AVR8/../AVR8/Endpoint_AVR8.h **** 
 627:LUFA-111009/LUFA/Drivers/USB/Core/AVR8/../AVR8/../AVR8/Endpoint_AVR8.h **** 			/** Discards one byte from the currently selected endpoint's bank, for OUT direction endpoints.
 628:LUFA-111009/LUFA/Drivers/USB/Core/AVR8/../AVR8/../AVR8/Endpoint_AVR8.h **** 			 *
 629:LUFA-111009/LUFA/Drivers/USB/Core/AVR8/../AVR8/../AVR8/Endpoint_AVR8.h **** 			 *  \ingroup Group_EndpointPrimitiveRW_AVR8
 630:LUFA-111009/LUFA/Drivers/USB/Core/AVR8/../AVR8/../AVR8/Endpoint_AVR8.h **** 			 */
 631:LUFA-111009/LUFA/Drivers/USB/Core/AVR8/../AVR8/../AVR8/Endpoint_AVR8.h **** 			static inline void Endpoint_Discard_8(void) ATTR_ALWAYS_INLINE;
 632:LUFA-111009/LUFA/Drivers/USB/Core/AVR8/../AVR8/../AVR8/Endpoint_AVR8.h **** 			static inline void Endpoint_Discard_8(void)
 633:LUFA-111009/LUFA/Drivers/USB/Core/AVR8/../AVR8/../AVR8/Endpoint_AVR8.h **** 			{
 634:LUFA-111009/LUFA/Drivers/USB/Core/AVR8/../AVR8/../AVR8/Endpoint_AVR8.h **** 				uint8_t Dummy;
 635:LUFA-111009/LUFA/Drivers/USB/Core/AVR8/../AVR8/../AVR8/Endpoint_AVR8.h **** 
 636:LUFA-111009/LUFA/Drivers/USB/Core/AVR8/../AVR8/../AVR8/Endpoint_AVR8.h **** 				Dummy = UEDATX;
 120               		.loc 2 636 0
 121 0060 8091 F100 		lds r24,241
 122               	.LBE261:
 123               	.LBE260:
  64:LUFA-111009/LUFA/Drivers/USB/Core/AVR8/EndpointStream_AVR8.c **** 			  return ErrorCode;
  65:LUFA-111009/LUFA/Drivers/USB/Core/AVR8/EndpointStream_AVR8.c **** 		}
  66:LUFA-111009/LUFA/Drivers/USB/Core/AVR8/EndpointStream_AVR8.c **** 		else
  67:LUFA-111009/LUFA/Drivers/USB/Core/AVR8/EndpointStream_AVR8.c **** 		{
  68:LUFA-111009/LUFA/Drivers/USB/Core/AVR8/EndpointStream_AVR8.c **** 			Endpoint_Discard_8();
  69:LUFA-111009/LUFA/Drivers/USB/Core/AVR8/EndpointStream_AVR8.c **** 
  70:LUFA-111009/LUFA/Drivers/USB/Core/AVR8/EndpointStream_AVR8.c **** 			Length--;
 124               		.loc 1 70 0
 125 0064 0150      		subi r16,1
 126 0066 1109      		sbc r17,__zero_reg__
 127               	.LVL8:
  71:LUFA-111009/LUFA/Drivers/USB/Core/AVR8/EndpointStream_AVR8.c **** 			BytesInTransfer++;
 128               		.loc 1 71 0
 129 0068 8FEF      		ldi r24,-1
 130 006a E81A      		sub r14,r24
 131 006c F80A      		sbc r15,r24
 132               	.LVL9:
 133               	.L13:
  51:LUFA-111009/LUFA/Drivers/USB/Core/AVR8/EndpointStream_AVR8.c **** 	while (Length)
 134               		.loc 1 51 0 discriminator 1
 135 006e 0115      		cp r16,__zero_reg__
 136 0070 1105      		cpc r17,__zero_reg__
 137 0072 01F4      		brne .L8
 138 0074 00C0      		rjmp .L2
 139               	.LVL10:
 140               	.L9:
  63:LUFA-111009/LUFA/Drivers/USB/Core/AVR8/EndpointStream_AVR8.c **** 			if ((ErrorCode = Endpoint_WaitUntilReady()))
 141               		.loc 1 63 0
 142 0076 D82E      		mov r13,r24
 143               	.LVL11:
 144               	.L2:
  72:LUFA-111009/LUFA/Drivers/USB/Core/AVR8/EndpointStream_AVR8.c **** 		}
  73:LUFA-111009/LUFA/Drivers/USB/Core/AVR8/EndpointStream_AVR8.c **** 	}
  74:LUFA-111009/LUFA/Drivers/USB/Core/AVR8/EndpointStream_AVR8.c **** 	
  75:LUFA-111009/LUFA/Drivers/USB/Core/AVR8/EndpointStream_AVR8.c **** 	return ENDPOINT_RWSTREAM_NoError;
  76:LUFA-111009/LUFA/Drivers/USB/Core/AVR8/EndpointStream_AVR8.c **** }
 145               		.loc 1 76 0
 146 0078 8D2D      		mov r24,r13
 147               	/* epilogue start */
 148 007a DF91      		pop r29
 149 007c CF91      		pop r28
 150               	.LVL12:
 151 007e 1F91      		pop r17
 152 0080 0F91      		pop r16
 153               	.LVL13:
 154 0082 FF90      		pop r15
 155 0084 EF90      		pop r14
 156 0086 DF90      		pop r13
 157 0088 0895      		ret
 158               		.cfi_endproc
 159               	.LFE81:
 161               		.section	.text.Endpoint_Null_Stream,"ax",@progbits
 162               	.global	Endpoint_Null_Stream
 164               	Endpoint_Null_Stream:
 165               	.LFB82:
  77:LUFA-111009/LUFA/Drivers/USB/Core/AVR8/EndpointStream_AVR8.c **** 
  78:LUFA-111009/LUFA/Drivers/USB/Core/AVR8/EndpointStream_AVR8.c **** uint8_t Endpoint_Null_Stream(uint16_t Length,
  79:LUFA-111009/LUFA/Drivers/USB/Core/AVR8/EndpointStream_AVR8.c ****                              uint16_t* const BytesProcessed)
  80:LUFA-111009/LUFA/Drivers/USB/Core/AVR8/EndpointStream_AVR8.c **** {
 166               		.loc 1 80 0
 167               		.cfi_startproc
 168               	.LVL14:
 169 0000 DF92      		push r13
 170               	.LCFI7:
 171               		.cfi_def_cfa_offset 3
 172               		.cfi_offset 13, -2
 173 0002 EF92      		push r14
 174               	.LCFI8:
 175               		.cfi_def_cfa_offset 4
 176               		.cfi_offset 14, -3
 177 0004 FF92      		push r15
 178               	.LCFI9:
 179               		.cfi_def_cfa_offset 5
 180               		.cfi_offset 15, -4
 181 0006 0F93      		push r16
 182               	.LCFI10:
 183               		.cfi_def_cfa_offset 6
 184               		.cfi_offset 16, -5
 185 0008 1F93      		push r17
 186               	.LCFI11:
 187               		.cfi_def_cfa_offset 7
 188               		.cfi_offset 17, -6
 189 000a CF93      		push r28
 190               	.LCFI12:
 191               		.cfi_def_cfa_offset 8
 192               		.cfi_offset 28, -7
 193 000c DF93      		push r29
 194               	.LCFI13:
 195               		.cfi_def_cfa_offset 9
 196               		.cfi_offset 29, -8
 197               	/* prologue: function */
 198               	/* frame size = 0 */
 199               	/* stack size = 7 */
 200               	.L__stack_usage = 7
 201 000e 8C01      		movw r16,r24
 202 0010 EB01      		movw r28,r22
 203               	.LVL15:
  81:LUFA-111009/LUFA/Drivers/USB/Core/AVR8/EndpointStream_AVR8.c **** 	uint8_t  ErrorCode;
  82:LUFA-111009/LUFA/Drivers/USB/Core/AVR8/EndpointStream_AVR8.c **** 	uint16_t BytesInTransfer = 0;
  83:LUFA-111009/LUFA/Drivers/USB/Core/AVR8/EndpointStream_AVR8.c **** 	
  84:LUFA-111009/LUFA/Drivers/USB/Core/AVR8/EndpointStream_AVR8.c **** 	if ((ErrorCode = Endpoint_WaitUntilReady()))
 204               		.loc 1 84 0
 205 0012 0E94 0000 		call Endpoint_WaitUntilReady
 206               	.LVL16:
 207 0016 D82E      		mov r13,r24
 208               	.LVL17:
 209 0018 8111      		cpse r24,__zero_reg__
 210 001a 00C0      		rjmp .L15
  85:LUFA-111009/LUFA/Drivers/USB/Core/AVR8/EndpointStream_AVR8.c **** 	  return ErrorCode;
  86:LUFA-111009/LUFA/Drivers/USB/Core/AVR8/EndpointStream_AVR8.c **** 	  
  87:LUFA-111009/LUFA/Drivers/USB/Core/AVR8/EndpointStream_AVR8.c **** 	if (BytesProcessed != NULL)
 211               		.loc 1 87 0
 212 001c 2097      		sbiw r28,0
 213 001e 01F0      		breq .L16
  88:LUFA-111009/LUFA/Drivers/USB/Core/AVR8/EndpointStream_AVR8.c **** 	  Length -= *BytesProcessed;
 214               		.loc 1 88 0
 215 0020 2881      		ld r18,Y
 216 0022 3981      		ldd r19,Y+1
 217 0024 021B      		sub r16,r18
 218 0026 130B      		sbc r17,r19
 219               	.LVL18:
 220               	.L16:
  80:LUFA-111009/LUFA/Drivers/USB/Core/AVR8/EndpointStream_AVR8.c **** {
 221               		.loc 1 80 0 discriminator 1
 222 0028 E12C      		mov r14,__zero_reg__
 223 002a F12C      		mov r15,__zero_reg__
 224 002c 00C0      		rjmp .L26
 225               	.LVL19:
 226               	.L21:
 227               	.LBB262:
 228               	.LBB263:
 420:LUFA-111009/LUFA/Drivers/USB/Core/AVR8/../AVR8/../AVR8/Endpoint_AVR8.h **** 				return ((UEINTX & (1 << RWAL)) ? true : false);
 229               		.loc 2 420 0
 230 002e 8091 E800 		lds r24,232
 231               	.LBE263:
 232               	.LBE262:
  89:LUFA-111009/LUFA/Drivers/USB/Core/AVR8/EndpointStream_AVR8.c **** 
  90:LUFA-111009/LUFA/Drivers/USB/Core/AVR8/EndpointStream_AVR8.c **** 	while (Length)
  91:LUFA-111009/LUFA/Drivers/USB/Core/AVR8/EndpointStream_AVR8.c **** 	{
  92:LUFA-111009/LUFA/Drivers/USB/Core/AVR8/EndpointStream_AVR8.c **** 		if (!(Endpoint_IsReadWriteAllowed()))
 233               		.loc 1 92 0
 234 0032 85FD      		sbrc r24,5
 235 0034 00C0      		rjmp .L18
 236               	.LBB264:
 237               	.LBB265:
 516:LUFA-111009/LUFA/Drivers/USB/Core/AVR8/../AVR8/../AVR8/Endpoint_AVR8.h **** 					UEINTX &= ~((1 << TXINI) | (1 << FIFOCON));
 238               		.loc 2 516 0
 239 0036 8091 E800 		lds r24,232
 240 003a 8E77      		andi r24,lo8(126)
 241 003c 8093 E800 		sts 232,r24
 242               	.LBE265:
 243               	.LBE264:
  93:LUFA-111009/LUFA/Drivers/USB/Core/AVR8/EndpointStream_AVR8.c **** 		{
  94:LUFA-111009/LUFA/Drivers/USB/Core/AVR8/EndpointStream_AVR8.c **** 			Endpoint_ClearIN();
  95:LUFA-111009/LUFA/Drivers/USB/Core/AVR8/EndpointStream_AVR8.c **** 
  96:LUFA-111009/LUFA/Drivers/USB/Core/AVR8/EndpointStream_AVR8.c **** 			if (BytesProcessed != NULL)
 244               		.loc 1 96 0
 245 0040 2097      		sbiw r28,0
 246 0042 01F0      		breq .L19
  97:LUFA-111009/LUFA/Drivers/USB/Core/AVR8/EndpointStream_AVR8.c **** 			{
  98:LUFA-111009/LUFA/Drivers/USB/Core/AVR8/EndpointStream_AVR8.c **** 				*BytesProcessed += BytesInTransfer;
 247               		.loc 1 98 0
 248 0044 8881      		ld r24,Y
 249 0046 9981      		ldd r25,Y+1
 250 0048 8E0D      		add r24,r14
 251 004a 9F1D      		adc r25,r15
 252 004c 9983      		std Y+1,r25
 253 004e 8883      		st Y,r24
  99:LUFA-111009/LUFA/Drivers/USB/Core/AVR8/EndpointStream_AVR8.c **** 				return ENDPOINT_RWSTREAM_IncompleteTransfer;
 254               		.loc 1 99 0
 255 0050 95E0      		ldi r25,lo8(5)
 256 0052 D92E      		mov r13,r25
 257 0054 00C0      		rjmp .L15
 258               	.L19:
 100:LUFA-111009/LUFA/Drivers/USB/Core/AVR8/EndpointStream_AVR8.c **** 			}
 101:LUFA-111009/LUFA/Drivers/USB/Core/AVR8/EndpointStream_AVR8.c **** 
 102:LUFA-111009/LUFA/Drivers/USB/Core/AVR8/EndpointStream_AVR8.c **** 			if ((ErrorCode = Endpoint_WaitUntilReady()))
 259               		.loc 1 102 0
 260 0056 0E94 0000 		call Endpoint_WaitUntilReady
 261               	.LVL20:
 262 005a 8823      		tst r24
 263 005c 01F0      		breq .L26
 264 005e 00C0      		rjmp .L22
 265               	.LVL21:
 266               	.L18:
 267               	.LBB266:
 268               	.LBB267:
 624:LUFA-111009/LUFA/Drivers/USB/Core/AVR8/../AVR8/../AVR8/Endpoint_AVR8.h **** 				UEDATX = Data;
 269               		.loc 2 624 0
 270 0060 1092 F100 		sts 241,__zero_reg__
 271               	.LBE267:
 272               	.LBE266:
 103:LUFA-111009/LUFA/Drivers/USB/Core/AVR8/EndpointStream_AVR8.c **** 			  return ErrorCode;
 104:LUFA-111009/LUFA/Drivers/USB/Core/AVR8/EndpointStream_AVR8.c **** 		}
 105:LUFA-111009/LUFA/Drivers/USB/Core/AVR8/EndpointStream_AVR8.c **** 		else
 106:LUFA-111009/LUFA/Drivers/USB/Core/AVR8/EndpointStream_AVR8.c **** 		{
 107:LUFA-111009/LUFA/Drivers/USB/Core/AVR8/EndpointStream_AVR8.c **** 			Endpoint_Write_8(0);
 108:LUFA-111009/LUFA/Drivers/USB/Core/AVR8/EndpointStream_AVR8.c **** 
 109:LUFA-111009/LUFA/Drivers/USB/Core/AVR8/EndpointStream_AVR8.c **** 			Length--;
 273               		.loc 1 109 0
 274 0064 0150      		subi r16,1
 275 0066 1109      		sbc r17,__zero_reg__
 276               	.LVL22:
 110:LUFA-111009/LUFA/Drivers/USB/Core/AVR8/EndpointStream_AVR8.c **** 			BytesInTransfer++;
 277               		.loc 1 110 0
 278 0068 8FEF      		ldi r24,-1
 279 006a E81A      		sub r14,r24
 280 006c F80A      		sbc r15,r24
 281               	.LVL23:
 282               	.L26:
  90:LUFA-111009/LUFA/Drivers/USB/Core/AVR8/EndpointStream_AVR8.c **** 	while (Length)
 283               		.loc 1 90 0 discriminator 1
 284 006e 0115      		cp r16,__zero_reg__
 285 0070 1105      		cpc r17,__zero_reg__
 286 0072 01F4      		brne .L21
 287 0074 00C0      		rjmp .L15
 288               	.LVL24:
 289               	.L22:
 102:LUFA-111009/LUFA/Drivers/USB/Core/AVR8/EndpointStream_AVR8.c **** 			if ((ErrorCode = Endpoint_WaitUntilReady()))
 290               		.loc 1 102 0
 291 0076 D82E      		mov r13,r24
 292               	.LVL25:
 293               	.L15:
 111:LUFA-111009/LUFA/Drivers/USB/Core/AVR8/EndpointStream_AVR8.c **** 		}
 112:LUFA-111009/LUFA/Drivers/USB/Core/AVR8/EndpointStream_AVR8.c **** 	}
 113:LUFA-111009/LUFA/Drivers/USB/Core/AVR8/EndpointStream_AVR8.c **** 	
 114:LUFA-111009/LUFA/Drivers/USB/Core/AVR8/EndpointStream_AVR8.c **** 	return ENDPOINT_RWSTREAM_NoError;
 115:LUFA-111009/LUFA/Drivers/USB/Core/AVR8/EndpointStream_AVR8.c **** }
 294               		.loc 1 115 0
 295 0078 8D2D      		mov r24,r13
 296               	/* epilogue start */
 297 007a DF91      		pop r29
 298 007c CF91      		pop r28
 299               	.LVL26:
 300 007e 1F91      		pop r17
 301 0080 0F91      		pop r16
 302               	.LVL27:
 303 0082 FF90      		pop r15
 304 0084 EF90      		pop r14
 305 0086 DF90      		pop r13
 306 0088 0895      		ret
 307               		.cfi_endproc
 308               	.LFE82:
 310               		.section	.text.Endpoint_Write_Stream_LE,"ax",@progbits
 311               	.global	Endpoint_Write_Stream_LE
 313               	Endpoint_Write_Stream_LE:
 314               	.LFB83:
 315               		.file 3 "LUFA-111009/LUFA/Drivers/USB/Core/AVR8/Template/Template_Endpoint_RW.c"
   1:LUFA-111009/LUFA/Drivers/USB/Core/AVR8/Template/Template_Endpoint_RW.c **** /*
   2:LUFA-111009/LUFA/Drivers/USB/Core/AVR8/Template/Template_Endpoint_RW.c ****              LUFA Library
   3:LUFA-111009/LUFA/Drivers/USB/Core/AVR8/Template/Template_Endpoint_RW.c ****      Copyright (C) Dean Camera, 2011.
   4:LUFA-111009/LUFA/Drivers/USB/Core/AVR8/Template/Template_Endpoint_RW.c **** 
   5:LUFA-111009/LUFA/Drivers/USB/Core/AVR8/Template/Template_Endpoint_RW.c ****   dean [at] fourwalledcubicle [dot] com
   6:LUFA-111009/LUFA/Drivers/USB/Core/AVR8/Template/Template_Endpoint_RW.c ****            www.lufa-lib.org
   7:LUFA-111009/LUFA/Drivers/USB/Core/AVR8/Template/Template_Endpoint_RW.c **** */
   8:LUFA-111009/LUFA/Drivers/USB/Core/AVR8/Template/Template_Endpoint_RW.c **** 
   9:LUFA-111009/LUFA/Drivers/USB/Core/AVR8/Template/Template_Endpoint_RW.c **** /*
  10:LUFA-111009/LUFA/Drivers/USB/Core/AVR8/Template/Template_Endpoint_RW.c ****   Copyright 2011  Dean Camera (dean [at] fourwalledcubicle [dot] com)
  11:LUFA-111009/LUFA/Drivers/USB/Core/AVR8/Template/Template_Endpoint_RW.c **** 
  12:LUFA-111009/LUFA/Drivers/USB/Core/AVR8/Template/Template_Endpoint_RW.c ****   Permission to use, copy, modify, distribute, and sell this
  13:LUFA-111009/LUFA/Drivers/USB/Core/AVR8/Template/Template_Endpoint_RW.c ****   software and its documentation for any purpose is hereby granted
  14:LUFA-111009/LUFA/Drivers/USB/Core/AVR8/Template/Template_Endpoint_RW.c ****   without fee, provided that the above copyright notice appear in
  15:LUFA-111009/LUFA/Drivers/USB/Core/AVR8/Template/Template_Endpoint_RW.c ****   all copies and that both that the copyright notice and this
  16:LUFA-111009/LUFA/Drivers/USB/Core/AVR8/Template/Template_Endpoint_RW.c ****   permission notice and warranty disclaimer appear in supporting
  17:LUFA-111009/LUFA/Drivers/USB/Core/AVR8/Template/Template_Endpoint_RW.c ****   documentation, and that the name of the author not be used in
  18:LUFA-111009/LUFA/Drivers/USB/Core/AVR8/Template/Template_Endpoint_RW.c ****   advertising or publicity pertaining to distribution of the
  19:LUFA-111009/LUFA/Drivers/USB/Core/AVR8/Template/Template_Endpoint_RW.c ****   software without specific, written prior permission.
  20:LUFA-111009/LUFA/Drivers/USB/Core/AVR8/Template/Template_Endpoint_RW.c **** 
  21:LUFA-111009/LUFA/Drivers/USB/Core/AVR8/Template/Template_Endpoint_RW.c ****   The author disclaim all warranties with regard to this
  22:LUFA-111009/LUFA/Drivers/USB/Core/AVR8/Template/Template_Endpoint_RW.c ****   software, including all implied warranties of merchantability
  23:LUFA-111009/LUFA/Drivers/USB/Core/AVR8/Template/Template_Endpoint_RW.c ****   and fitness.  In no event shall the author be liable for any
  24:LUFA-111009/LUFA/Drivers/USB/Core/AVR8/Template/Template_Endpoint_RW.c ****   special, indirect or consequential damages or any damages
  25:LUFA-111009/LUFA/Drivers/USB/Core/AVR8/Template/Template_Endpoint_RW.c ****   whatsoever resulting from loss of use, data or profits, whether
  26:LUFA-111009/LUFA/Drivers/USB/Core/AVR8/Template/Template_Endpoint_RW.c ****   in an action of contract, negligence or other tortious action,
  27:LUFA-111009/LUFA/Drivers/USB/Core/AVR8/Template/Template_Endpoint_RW.c ****   arising out of or in connection with the use or performance of
  28:LUFA-111009/LUFA/Drivers/USB/Core/AVR8/Template/Template_Endpoint_RW.c ****   this software.
  29:LUFA-111009/LUFA/Drivers/USB/Core/AVR8/Template/Template_Endpoint_RW.c **** */
  30:LUFA-111009/LUFA/Drivers/USB/Core/AVR8/Template/Template_Endpoint_RW.c **** 
  31:LUFA-111009/LUFA/Drivers/USB/Core/AVR8/Template/Template_Endpoint_RW.c **** #if defined(TEMPLATE_FUNC_NAME)
  32:LUFA-111009/LUFA/Drivers/USB/Core/AVR8/Template/Template_Endpoint_RW.c **** 
  33:LUFA-111009/LUFA/Drivers/USB/Core/AVR8/Template/Template_Endpoint_RW.c **** uint8_t TEMPLATE_FUNC_NAME (TEMPLATE_BUFFER_TYPE const Buffer,
  34:LUFA-111009/LUFA/Drivers/USB/Core/AVR8/Template/Template_Endpoint_RW.c ****                             uint16_t Length,
  35:LUFA-111009/LUFA/Drivers/USB/Core/AVR8/Template/Template_Endpoint_RW.c ****                             uint16_t* const BytesProcessed)
  36:LUFA-111009/LUFA/Drivers/USB/Core/AVR8/Template/Template_Endpoint_RW.c **** {
 316               		.loc 3 36 0
 317               		.cfi_startproc
 318               	.LVL28:
 319 0000 BF92      		push r11
 320               	.LCFI14:
 321               		.cfi_def_cfa_offset 3
 322               		.cfi_offset 11, -2
 323 0002 CF92      		push r12
 324               	.LCFI15:
 325               		.cfi_def_cfa_offset 4
 326               		.cfi_offset 12, -3
 327 0004 DF92      		push r13
 328               	.LCFI16:
 329               		.cfi_def_cfa_offset 5
 330               		.cfi_offset 13, -4
 331 0006 EF92      		push r14
 332               	.LCFI17:
 333               		.cfi_def_cfa_offset 6
 334               		.cfi_offset 14, -5
 335 0008 FF92      		push r15
 336               	.LCFI18:
 337               		.cfi_def_cfa_offset 7
 338               		.cfi_offset 15, -6
 339 000a 0F93      		push r16
 340               	.LCFI19:
 341               		.cfi_def_cfa_offset 8
 342               		.cfi_offset 16, -7
 343 000c 1F93      		push r17
 344               	.LCFI20:
 345               		.cfi_def_cfa_offset 9
 346               		.cfi_offset 17, -8
 347 000e CF93      		push r28
 348               	.LCFI21:
 349               		.cfi_def_cfa_offset 10
 350               		.cfi_offset 28, -9
 351 0010 DF93      		push r29
 352               	.LCFI22:
 353               		.cfi_def_cfa_offset 11
 354               		.cfi_offset 29, -10
 355               	/* prologue: function */
 356               	/* frame size = 0 */
 357               	/* stack size = 9 */
 358               	.L__stack_usage = 9
 359 0012 7C01      		movw r14,r24
 360 0014 8B01      		movw r16,r22
 361 0016 EA01      		movw r28,r20
 362               	.LVL29:
  37:LUFA-111009/LUFA/Drivers/USB/Core/AVR8/Template/Template_Endpoint_RW.c **** 	uint8_t* DataStream      = ((uint8_t*)Buffer + TEMPLATE_BUFFER_OFFSET(Length));
  38:LUFA-111009/LUFA/Drivers/USB/Core/AVR8/Template/Template_Endpoint_RW.c **** 	uint16_t BytesInTransfer = 0;
  39:LUFA-111009/LUFA/Drivers/USB/Core/AVR8/Template/Template_Endpoint_RW.c **** 	uint8_t  ErrorCode;
  40:LUFA-111009/LUFA/Drivers/USB/Core/AVR8/Template/Template_Endpoint_RW.c **** 
  41:LUFA-111009/LUFA/Drivers/USB/Core/AVR8/Template/Template_Endpoint_RW.c **** 	if ((ErrorCode = Endpoint_WaitUntilReady()))
 363               		.loc 3 41 0
 364 0018 0E94 0000 		call Endpoint_WaitUntilReady
 365               	.LVL30:
 366 001c B82E      		mov r11,r24
 367               	.LVL31:
 368 001e 8111      		cpse r24,__zero_reg__
 369 0020 00C0      		rjmp .L28
  42:LUFA-111009/LUFA/Drivers/USB/Core/AVR8/Template/Template_Endpoint_RW.c **** 	  return ErrorCode;
  43:LUFA-111009/LUFA/Drivers/USB/Core/AVR8/Template/Template_Endpoint_RW.c **** 
  44:LUFA-111009/LUFA/Drivers/USB/Core/AVR8/Template/Template_Endpoint_RW.c **** 	if (BytesProcessed != NULL)
 370               		.loc 3 44 0
 371 0022 2097      		sbiw r28,0
 372 0024 01F0      		breq .L29
  45:LUFA-111009/LUFA/Drivers/USB/Core/AVR8/Template/Template_Endpoint_RW.c **** 	{
  46:LUFA-111009/LUFA/Drivers/USB/Core/AVR8/Template/Template_Endpoint_RW.c **** 		Length -= *BytesProcessed;
 373               		.loc 3 46 0
 374 0026 2881      		ld r18,Y
 375 0028 3981      		ldd r19,Y+1
 376 002a 021B      		sub r16,r18
 377 002c 130B      		sbc r17,r19
 378               	.LVL32:
  47:LUFA-111009/LUFA/Drivers/USB/Core/AVR8/Template/Template_Endpoint_RW.c **** 		TEMPLATE_BUFFER_MOVE(DataStream, *BytesProcessed);
 379               		.loc 3 47 0
 380 002e E20E      		add r14,r18
 381 0030 F31E      		adc r15,r19
 382               	.LVL33:
 383               	.L29:
  37:LUFA-111009/LUFA/Drivers/USB/Core/AVR8/Template/Template_Endpoint_RW.c **** 	uint8_t* DataStream      = ((uint8_t*)Buffer + TEMPLATE_BUFFER_OFFSET(Length));
 384               		.loc 3 37 0 discriminator 1
 385 0032 C12C      		mov r12,__zero_reg__
 386 0034 D12C      		mov r13,__zero_reg__
 387 0036 00C0      		rjmp .L37
 388               	.LVL34:
 389               	.L34:
 390               	.LBB268:
 391               	.LBB269:
 420:LUFA-111009/LUFA/Drivers/USB/Core/AVR8/../AVR8/../AVR8/Endpoint_AVR8.h **** 				return ((UEINTX & (1 << RWAL)) ? true : false);
 392               		.loc 2 420 0
 393 0038 8091 E800 		lds r24,232
 394               	.LBE269:
 395               	.LBE268:
  48:LUFA-111009/LUFA/Drivers/USB/Core/AVR8/Template/Template_Endpoint_RW.c **** 	}
  49:LUFA-111009/LUFA/Drivers/USB/Core/AVR8/Template/Template_Endpoint_RW.c **** 
  50:LUFA-111009/LUFA/Drivers/USB/Core/AVR8/Template/Template_Endpoint_RW.c **** 	while (Length)
  51:LUFA-111009/LUFA/Drivers/USB/Core/AVR8/Template/Template_Endpoint_RW.c **** 	{
  52:LUFA-111009/LUFA/Drivers/USB/Core/AVR8/Template/Template_Endpoint_RW.c **** 		if (!(Endpoint_IsReadWriteAllowed()))
 396               		.loc 3 52 0
 397 003c 85FD      		sbrc r24,5
 398 003e 00C0      		rjmp .L31
 399               	.LBB270:
 400               	.LBB271:
 516:LUFA-111009/LUFA/Drivers/USB/Core/AVR8/../AVR8/../AVR8/Endpoint_AVR8.h **** 					UEINTX &= ~((1 << TXINI) | (1 << FIFOCON));
 401               		.loc 2 516 0
 402 0040 8091 E800 		lds r24,232
 403 0044 8E77      		andi r24,lo8(126)
 404 0046 8093 E800 		sts 232,r24
 405               	.LBE271:
 406               	.LBE270:
  53:LUFA-111009/LUFA/Drivers/USB/Core/AVR8/Template/Template_Endpoint_RW.c **** 		{
  54:LUFA-111009/LUFA/Drivers/USB/Core/AVR8/Template/Template_Endpoint_RW.c **** 			TEMPLATE_CLEAR_ENDPOINT();
  55:LUFA-111009/LUFA/Drivers/USB/Core/AVR8/Template/Template_Endpoint_RW.c **** 
  56:LUFA-111009/LUFA/Drivers/USB/Core/AVR8/Template/Template_Endpoint_RW.c **** 			#if !defined(INTERRUPT_CONTROL_ENDPOINT)
  57:LUFA-111009/LUFA/Drivers/USB/Core/AVR8/Template/Template_Endpoint_RW.c **** 			USB_USBTask();
 407               		.loc 3 57 0
 408 004a 0E94 0000 		call USB_USBTask
 409               	.LVL35:
  58:LUFA-111009/LUFA/Drivers/USB/Core/AVR8/Template/Template_Endpoint_RW.c **** 			#endif
  59:LUFA-111009/LUFA/Drivers/USB/Core/AVR8/Template/Template_Endpoint_RW.c **** 
  60:LUFA-111009/LUFA/Drivers/USB/Core/AVR8/Template/Template_Endpoint_RW.c **** 			if (BytesProcessed != NULL)
 410               		.loc 3 60 0
 411 004e 2097      		sbiw r28,0
 412 0050 01F0      		breq .L32
  61:LUFA-111009/LUFA/Drivers/USB/Core/AVR8/Template/Template_Endpoint_RW.c **** 			{
  62:LUFA-111009/LUFA/Drivers/USB/Core/AVR8/Template/Template_Endpoint_RW.c **** 				*BytesProcessed += BytesInTransfer;
 413               		.loc 3 62 0
 414 0052 8881      		ld r24,Y
 415 0054 9981      		ldd r25,Y+1
 416 0056 8C0D      		add r24,r12
 417 0058 9D1D      		adc r25,r13
 418 005a 9983      		std Y+1,r25
 419 005c 8883      		st Y,r24
  63:LUFA-111009/LUFA/Drivers/USB/Core/AVR8/Template/Template_Endpoint_RW.c **** 				return ENDPOINT_RWSTREAM_IncompleteTransfer;
 420               		.loc 3 63 0
 421 005e 25E0      		ldi r18,lo8(5)
 422 0060 B22E      		mov r11,r18
 423 0062 00C0      		rjmp .L28
 424               	.L32:
  64:LUFA-111009/LUFA/Drivers/USB/Core/AVR8/Template/Template_Endpoint_RW.c **** 			}
  65:LUFA-111009/LUFA/Drivers/USB/Core/AVR8/Template/Template_Endpoint_RW.c **** 
  66:LUFA-111009/LUFA/Drivers/USB/Core/AVR8/Template/Template_Endpoint_RW.c **** 			if ((ErrorCode = Endpoint_WaitUntilReady()))
 425               		.loc 3 66 0
 426 0064 0E94 0000 		call Endpoint_WaitUntilReady
 427               	.LVL36:
 428 0068 8823      		tst r24
 429 006a 01F0      		breq .L37
 430 006c 00C0      		rjmp .L36
 431               	.LVL37:
 432               	.L31:
  67:LUFA-111009/LUFA/Drivers/USB/Core/AVR8/Template/Template_Endpoint_RW.c **** 			  return ErrorCode;
  68:LUFA-111009/LUFA/Drivers/USB/Core/AVR8/Template/Template_Endpoint_RW.c **** 		}
  69:LUFA-111009/LUFA/Drivers/USB/Core/AVR8/Template/Template_Endpoint_RW.c **** 		else
  70:LUFA-111009/LUFA/Drivers/USB/Core/AVR8/Template/Template_Endpoint_RW.c **** 		{
  71:LUFA-111009/LUFA/Drivers/USB/Core/AVR8/Template/Template_Endpoint_RW.c **** 			TEMPLATE_TRANSFER_BYTE(DataStream);
 433               		.loc 3 71 0
 434 006e F701      		movw r30,r14
 435 0070 8191      		ld r24,Z+
 436 0072 7F01      		movw r14,r30
 437               	.LVL38:
 438               	.LBB272:
 439               	.LBB273:
 624:LUFA-111009/LUFA/Drivers/USB/Core/AVR8/../AVR8/../AVR8/Endpoint_AVR8.h **** 				UEDATX = Data;
 440               		.loc 2 624 0
 441 0074 8093 F100 		sts 241,r24
 442               	.LVL39:
 443               	.LBE273:
 444               	.LBE272:
  72:LUFA-111009/LUFA/Drivers/USB/Core/AVR8/Template/Template_Endpoint_RW.c **** 			TEMPLATE_BUFFER_MOVE(DataStream, 1);
  73:LUFA-111009/LUFA/Drivers/USB/Core/AVR8/Template/Template_Endpoint_RW.c **** 			Length--;
 445               		.loc 3 73 0
 446 0078 0150      		subi r16,1
 447 007a 1109      		sbc r17,__zero_reg__
 448               	.LVL40:
  74:LUFA-111009/LUFA/Drivers/USB/Core/AVR8/Template/Template_Endpoint_RW.c **** 			BytesInTransfer++;
 449               		.loc 3 74 0
 450 007c FFEF      		ldi r31,-1
 451 007e CF1A      		sub r12,r31
 452 0080 DF0A      		sbc r13,r31
 453               	.LVL41:
 454               	.L37:
  50:LUFA-111009/LUFA/Drivers/USB/Core/AVR8/Template/Template_Endpoint_RW.c **** 	while (Length)
 455               		.loc 3 50 0 discriminator 1
 456 0082 0115      		cp r16,__zero_reg__
 457 0084 1105      		cpc r17,__zero_reg__
 458 0086 01F4      		brne .L34
 459 0088 00C0      		rjmp .L28
 460               	.LVL42:
 461               	.L36:
  66:LUFA-111009/LUFA/Drivers/USB/Core/AVR8/Template/Template_Endpoint_RW.c **** 			if ((ErrorCode = Endpoint_WaitUntilReady()))
 462               		.loc 3 66 0
 463 008a B82E      		mov r11,r24
 464               	.LVL43:
 465               	.L28:
  75:LUFA-111009/LUFA/Drivers/USB/Core/AVR8/Template/Template_Endpoint_RW.c **** 		}
  76:LUFA-111009/LUFA/Drivers/USB/Core/AVR8/Template/Template_Endpoint_RW.c **** 	}
  77:LUFA-111009/LUFA/Drivers/USB/Core/AVR8/Template/Template_Endpoint_RW.c **** 
  78:LUFA-111009/LUFA/Drivers/USB/Core/AVR8/Template/Template_Endpoint_RW.c **** 	return ENDPOINT_RWSTREAM_NoError;
  79:LUFA-111009/LUFA/Drivers/USB/Core/AVR8/Template/Template_Endpoint_RW.c **** }
 466               		.loc 3 79 0
 467 008c 8B2D      		mov r24,r11
 468               	/* epilogue start */
 469 008e DF91      		pop r29
 470 0090 CF91      		pop r28
 471               	.LVL44:
 472 0092 1F91      		pop r17
 473 0094 0F91      		pop r16
 474               	.LVL45:
 475 0096 FF90      		pop r15
 476 0098 EF90      		pop r14
 477               	.LVL46:
 478 009a DF90      		pop r13
 479 009c CF90      		pop r12
 480 009e BF90      		pop r11
 481 00a0 0895      		ret
 482               		.cfi_endproc
 483               	.LFE83:
 485               		.section	.text.Endpoint_Write_Stream_BE,"ax",@progbits
 486               	.global	Endpoint_Write_Stream_BE
 488               	Endpoint_Write_Stream_BE:
 489               	.LFB84:
  36:LUFA-111009/LUFA/Drivers/USB/Core/AVR8/Template/Template_Endpoint_RW.c **** {
 490               		.loc 3 36 0
 491               		.cfi_startproc
 492               	.LVL47:
 493 0000 BF92      		push r11
 494               	.LCFI23:
 495               		.cfi_def_cfa_offset 3
 496               		.cfi_offset 11, -2
 497 0002 CF92      		push r12
 498               	.LCFI24:
 499               		.cfi_def_cfa_offset 4
 500               		.cfi_offset 12, -3
 501 0004 DF92      		push r13
 502               	.LCFI25:
 503               		.cfi_def_cfa_offset 5
 504               		.cfi_offset 13, -4
 505 0006 EF92      		push r14
 506               	.LCFI26:
 507               		.cfi_def_cfa_offset 6
 508               		.cfi_offset 14, -5
 509 0008 FF92      		push r15
 510               	.LCFI27:
 511               		.cfi_def_cfa_offset 7
 512               		.cfi_offset 15, -6
 513 000a 0F93      		push r16
 514               	.LCFI28:
 515               		.cfi_def_cfa_offset 8
 516               		.cfi_offset 16, -7
 517 000c 1F93      		push r17
 518               	.LCFI29:
 519               		.cfi_def_cfa_offset 9
 520               		.cfi_offset 17, -8
 521 000e CF93      		push r28
 522               	.LCFI30:
 523               		.cfi_def_cfa_offset 10
 524               		.cfi_offset 28, -9
 525 0010 DF93      		push r29
 526               	.LCFI31:
 527               		.cfi_def_cfa_offset 11
 528               		.cfi_offset 29, -10
 529               	/* prologue: function */
 530               	/* frame size = 0 */
 531               	/* stack size = 9 */
 532               	.L__stack_usage = 9
 533 0012 6C01      		movw r12,r24
 534 0014 8B01      		movw r16,r22
 535 0016 7A01      		movw r14,r20
 536               	.LVL48:
  41:LUFA-111009/LUFA/Drivers/USB/Core/AVR8/Template/Template_Endpoint_RW.c **** 	if ((ErrorCode = Endpoint_WaitUntilReady()))
 537               		.loc 3 41 0
 538 0018 0E94 0000 		call Endpoint_WaitUntilReady
 539               	.LVL49:
 540 001c B82E      		mov r11,r24
 541               	.LVL50:
 542 001e 8111      		cpse r24,__zero_reg__
 543 0020 00C0      		rjmp .L39
  37:LUFA-111009/LUFA/Drivers/USB/Core/AVR8/Template/Template_Endpoint_RW.c **** 	uint8_t* DataStream      = ((uint8_t*)Buffer + TEMPLATE_BUFFER_OFFSET(Length));
 544               		.loc 3 37 0
 545 0022 E801      		movw r28,r16
 546 0024 2197      		sbiw r28,1
 547               	.LVL51:
 548 0026 CC0D      		add r28,r12
 549 0028 DD1D      		adc r29,r13
 550               	.LVL52:
  44:LUFA-111009/LUFA/Drivers/USB/Core/AVR8/Template/Template_Endpoint_RW.c **** 	if (BytesProcessed != NULL)
 551               		.loc 3 44 0
 552 002a E114      		cp r14,__zero_reg__
 553 002c F104      		cpc r15,__zero_reg__
 554 002e 01F0      		breq .L40
  46:LUFA-111009/LUFA/Drivers/USB/Core/AVR8/Template/Template_Endpoint_RW.c **** 		Length -= *BytesProcessed;
 555               		.loc 3 46 0
 556 0030 F701      		movw r30,r14
 557 0032 2081      		ld r18,Z
 558 0034 3181      		ldd r19,Z+1
 559 0036 021B      		sub r16,r18
 560 0038 130B      		sbc r17,r19
 561               	.LVL53:
  47:LUFA-111009/LUFA/Drivers/USB/Core/AVR8/Template/Template_Endpoint_RW.c **** 		TEMPLATE_BUFFER_MOVE(DataStream, *BytesProcessed);
 562               		.loc 3 47 0
 563 003a C21B      		sub r28,r18
 564 003c D30B      		sbc r29,r19
 565               	.LVL54:
 566               	.L40:
  36:LUFA-111009/LUFA/Drivers/USB/Core/AVR8/Template/Template_Endpoint_RW.c **** {
 567               		.loc 3 36 0 discriminator 1
 568 003e C12C      		mov r12,__zero_reg__
 569 0040 D12C      		mov r13,__zero_reg__
 570               	.LVL55:
 571 0042 00C0      		rjmp .L50
 572               	.LVL56:
 573               	.L45:
 574               	.LBB274:
 575               	.LBB275:
 420:LUFA-111009/LUFA/Drivers/USB/Core/AVR8/../AVR8/../AVR8/Endpoint_AVR8.h **** 				return ((UEINTX & (1 << RWAL)) ? true : false);
 576               		.loc 2 420 0
 577 0044 8091 E800 		lds r24,232
 578               	.LBE275:
 579               	.LBE274:
  52:LUFA-111009/LUFA/Drivers/USB/Core/AVR8/Template/Template_Endpoint_RW.c **** 		if (!(Endpoint_IsReadWriteAllowed()))
 580               		.loc 3 52 0
 581 0048 85FD      		sbrc r24,5
 582 004a 00C0      		rjmp .L42
 583               	.LBB276:
 584               	.LBB277:
 516:LUFA-111009/LUFA/Drivers/USB/Core/AVR8/../AVR8/../AVR8/Endpoint_AVR8.h **** 					UEINTX &= ~((1 << TXINI) | (1 << FIFOCON));
 585               		.loc 2 516 0
 586 004c 8091 E800 		lds r24,232
 587 0050 8E77      		andi r24,lo8(126)
 588 0052 8093 E800 		sts 232,r24
 589               	.LBE277:
 590               	.LBE276:
  57:LUFA-111009/LUFA/Drivers/USB/Core/AVR8/Template/Template_Endpoint_RW.c **** 			USB_USBTask();
 591               		.loc 3 57 0
 592 0056 0E94 0000 		call USB_USBTask
 593               	.LVL57:
  60:LUFA-111009/LUFA/Drivers/USB/Core/AVR8/Template/Template_Endpoint_RW.c **** 			if (BytesProcessed != NULL)
 594               		.loc 3 60 0
 595 005a E114      		cp r14,__zero_reg__
 596 005c F104      		cpc r15,__zero_reg__
 597 005e 01F0      		breq .L43
  62:LUFA-111009/LUFA/Drivers/USB/Core/AVR8/Template/Template_Endpoint_RW.c **** 				*BytesProcessed += BytesInTransfer;
 598               		.loc 3 62 0
 599 0060 F701      		movw r30,r14
 600 0062 8081      		ld r24,Z
 601 0064 9181      		ldd r25,Z+1
 602 0066 8C0D      		add r24,r12
 603 0068 9D1D      		adc r25,r13
 604 006a 9183      		std Z+1,r25
 605 006c 8083      		st Z,r24
  63:LUFA-111009/LUFA/Drivers/USB/Core/AVR8/Template/Template_Endpoint_RW.c **** 				return ENDPOINT_RWSTREAM_IncompleteTransfer;
 606               		.loc 3 63 0
 607 006e 35E0      		ldi r19,lo8(5)
 608 0070 B32E      		mov r11,r19
 609 0072 00C0      		rjmp .L39
 610               	.L43:
  66:LUFA-111009/LUFA/Drivers/USB/Core/AVR8/Template/Template_Endpoint_RW.c **** 			if ((ErrorCode = Endpoint_WaitUntilReady()))
 611               		.loc 3 66 0
 612 0074 0E94 0000 		call Endpoint_WaitUntilReady
 613               	.LVL58:
 614 0078 8823      		tst r24
 615 007a 01F0      		breq .L50
 616 007c 00C0      		rjmp .L46
 617               	.LVL59:
 618               	.L42:
  71:LUFA-111009/LUFA/Drivers/USB/Core/AVR8/Template/Template_Endpoint_RW.c **** 			TEMPLATE_TRANSFER_BYTE(DataStream);
 619               		.loc 3 71 0
 620 007e 8881      		ld r24,Y
 621               	.LVL60:
 622               	.LBB278:
 623               	.LBB279:
 624:LUFA-111009/LUFA/Drivers/USB/Core/AVR8/../AVR8/../AVR8/Endpoint_AVR8.h **** 				UEDATX = Data;
 624               		.loc 2 624 0
 625 0080 8093 F100 		sts 241,r24
 626               	.LBE279:
 627               	.LBE278:
  72:LUFA-111009/LUFA/Drivers/USB/Core/AVR8/Template/Template_Endpoint_RW.c **** 			TEMPLATE_BUFFER_MOVE(DataStream, 1);
 628               		.loc 3 72 0
 629 0084 2197      		sbiw r28,1
 630               	.LVL61:
  73:LUFA-111009/LUFA/Drivers/USB/Core/AVR8/Template/Template_Endpoint_RW.c **** 			Length--;
 631               		.loc 3 73 0
 632 0086 0150      		subi r16,1
 633 0088 1109      		sbc r17,__zero_reg__
 634               	.LVL62:
  74:LUFA-111009/LUFA/Drivers/USB/Core/AVR8/Template/Template_Endpoint_RW.c **** 			BytesInTransfer++;
 635               		.loc 3 74 0
 636 008a FFEF      		ldi r31,-1
 637 008c CF1A      		sub r12,r31
 638 008e DF0A      		sbc r13,r31
 639               	.LVL63:
 640               	.L50:
  50:LUFA-111009/LUFA/Drivers/USB/Core/AVR8/Template/Template_Endpoint_RW.c **** 	while (Length)
 641               		.loc 3 50 0 discriminator 1
 642 0090 0115      		cp r16,__zero_reg__
 643 0092 1105      		cpc r17,__zero_reg__
 644 0094 01F4      		brne .L45
 645 0096 00C0      		rjmp .L39
 646               	.LVL64:
 647               	.L46:
  66:LUFA-111009/LUFA/Drivers/USB/Core/AVR8/Template/Template_Endpoint_RW.c **** 			if ((ErrorCode = Endpoint_WaitUntilReady()))
 648               		.loc 3 66 0
 649 0098 B82E      		mov r11,r24
 650               	.LVL65:
 651               	.L39:
 652               		.loc 3 79 0
 653 009a 8B2D      		mov r24,r11
 654               	/* epilogue start */
 655 009c DF91      		pop r29
 656 009e CF91      		pop r28
 657 00a0 1F91      		pop r17
 658 00a2 0F91      		pop r16
 659               	.LVL66:
 660 00a4 FF90      		pop r15
 661 00a6 EF90      		pop r14
 662               	.LVL67:
 663 00a8 DF90      		pop r13
 664 00aa CF90      		pop r12
 665 00ac BF90      		pop r11
 666 00ae 0895      		ret
 667               		.cfi_endproc
 668               	.LFE84:
 670               		.section	.text.Endpoint_Read_Stream_LE,"ax",@progbits
 671               	.global	Endpoint_Read_Stream_LE
 673               	Endpoint_Read_Stream_LE:
 674               	.LFB85:
  36:LUFA-111009/LUFA/Drivers/USB/Core/AVR8/Template/Template_Endpoint_RW.c **** {
 675               		.loc 3 36 0
 676               		.cfi_startproc
 677               	.LVL68:
 678 0000 BF92      		push r11
 679               	.LCFI32:
 680               		.cfi_def_cfa_offset 3
 681               		.cfi_offset 11, -2
 682 0002 CF92      		push r12
 683               	.LCFI33:
 684               		.cfi_def_cfa_offset 4
 685               		.cfi_offset 12, -3
 686 0004 DF92      		push r13
 687               	.LCFI34:
 688               		.cfi_def_cfa_offset 5
 689               		.cfi_offset 13, -4
 690 0006 EF92      		push r14
 691               	.LCFI35:
 692               		.cfi_def_cfa_offset 6
 693               		.cfi_offset 14, -5
 694 0008 FF92      		push r15
 695               	.LCFI36:
 696               		.cfi_def_cfa_offset 7
 697               		.cfi_offset 15, -6
 698 000a 0F93      		push r16
 699               	.LCFI37:
 700               		.cfi_def_cfa_offset 8
 701               		.cfi_offset 16, -7
 702 000c 1F93      		push r17
 703               	.LCFI38:
 704               		.cfi_def_cfa_offset 9
 705               		.cfi_offset 17, -8
 706 000e CF93      		push r28
 707               	.LCFI39:
 708               		.cfi_def_cfa_offset 10
 709               		.cfi_offset 28, -9
 710 0010 DF93      		push r29
 711               	.LCFI40:
 712               		.cfi_def_cfa_offset 11
 713               		.cfi_offset 29, -10
 714               	/* prologue: function */
 715               	/* frame size = 0 */
 716               	/* stack size = 9 */
 717               	.L__stack_usage = 9
 718 0012 7C01      		movw r14,r24
 719 0014 8B01      		movw r16,r22
 720 0016 EA01      		movw r28,r20
 721               	.LVL69:
  41:LUFA-111009/LUFA/Drivers/USB/Core/AVR8/Template/Template_Endpoint_RW.c **** 	if ((ErrorCode = Endpoint_WaitUntilReady()))
 722               		.loc 3 41 0
 723 0018 0E94 0000 		call Endpoint_WaitUntilReady
 724               	.LVL70:
 725 001c B82E      		mov r11,r24
 726               	.LVL71:
 727 001e 8111      		cpse r24,__zero_reg__
 728 0020 00C0      		rjmp .L52
  44:LUFA-111009/LUFA/Drivers/USB/Core/AVR8/Template/Template_Endpoint_RW.c **** 	if (BytesProcessed != NULL)
 729               		.loc 3 44 0
 730 0022 2097      		sbiw r28,0
 731 0024 01F0      		breq .L53
  46:LUFA-111009/LUFA/Drivers/USB/Core/AVR8/Template/Template_Endpoint_RW.c **** 		Length -= *BytesProcessed;
 732               		.loc 3 46 0
 733 0026 2881      		ld r18,Y
 734 0028 3981      		ldd r19,Y+1
 735 002a 021B      		sub r16,r18
 736 002c 130B      		sbc r17,r19
 737               	.LVL72:
  47:LUFA-111009/LUFA/Drivers/USB/Core/AVR8/Template/Template_Endpoint_RW.c **** 		TEMPLATE_BUFFER_MOVE(DataStream, *BytesProcessed);
 738               		.loc 3 47 0
 739 002e E20E      		add r14,r18
 740 0030 F31E      		adc r15,r19
 741               	.LVL73:
 742               	.L53:
  37:LUFA-111009/LUFA/Drivers/USB/Core/AVR8/Template/Template_Endpoint_RW.c **** 	uint8_t* DataStream      = ((uint8_t*)Buffer + TEMPLATE_BUFFER_OFFSET(Length));
 743               		.loc 3 37 0 discriminator 1
 744 0032 C12C      		mov r12,__zero_reg__
 745 0034 D12C      		mov r13,__zero_reg__
 746 0036 00C0      		rjmp .L61
 747               	.LVL74:
 748               	.L58:
 749               	.LBB280:
 750               	.LBB281:
 420:LUFA-111009/LUFA/Drivers/USB/Core/AVR8/../AVR8/../AVR8/Endpoint_AVR8.h **** 				return ((UEINTX & (1 << RWAL)) ? true : false);
 751               		.loc 2 420 0
 752 0038 8091 E800 		lds r24,232
 753               	.LBE281:
 754               	.LBE280:
  52:LUFA-111009/LUFA/Drivers/USB/Core/AVR8/Template/Template_Endpoint_RW.c **** 		if (!(Endpoint_IsReadWriteAllowed()))
 755               		.loc 3 52 0
 756 003c 85FD      		sbrc r24,5
 757 003e 00C0      		rjmp .L55
 758               	.LBB282:
 759               	.LBB283:
 531:LUFA-111009/LUFA/Drivers/USB/Core/AVR8/../AVR8/../AVR8/Endpoint_AVR8.h **** 					UEINTX &= ~((1 << RXOUTI) | (1 << FIFOCON));
 760               		.loc 2 531 0
 761 0040 8091 E800 		lds r24,232
 762 0044 8B77      		andi r24,lo8(123)
 763 0046 8093 E800 		sts 232,r24
 764               	.LBE283:
 765               	.LBE282:
  57:LUFA-111009/LUFA/Drivers/USB/Core/AVR8/Template/Template_Endpoint_RW.c **** 			USB_USBTask();
 766               		.loc 3 57 0
 767 004a 0E94 0000 		call USB_USBTask
 768               	.LVL75:
  60:LUFA-111009/LUFA/Drivers/USB/Core/AVR8/Template/Template_Endpoint_RW.c **** 			if (BytesProcessed != NULL)
 769               		.loc 3 60 0
 770 004e 2097      		sbiw r28,0
 771 0050 01F0      		breq .L56
  62:LUFA-111009/LUFA/Drivers/USB/Core/AVR8/Template/Template_Endpoint_RW.c **** 				*BytesProcessed += BytesInTransfer;
 772               		.loc 3 62 0
 773 0052 8881      		ld r24,Y
 774 0054 9981      		ldd r25,Y+1
 775 0056 8C0D      		add r24,r12
 776 0058 9D1D      		adc r25,r13
 777 005a 9983      		std Y+1,r25
 778 005c 8883      		st Y,r24
  63:LUFA-111009/LUFA/Drivers/USB/Core/AVR8/Template/Template_Endpoint_RW.c **** 				return ENDPOINT_RWSTREAM_IncompleteTransfer;
 779               		.loc 3 63 0
 780 005e 45E0      		ldi r20,lo8(5)
 781 0060 B42E      		mov r11,r20
 782 0062 00C0      		rjmp .L52
 783               	.L56:
  66:LUFA-111009/LUFA/Drivers/USB/Core/AVR8/Template/Template_Endpoint_RW.c **** 			if ((ErrorCode = Endpoint_WaitUntilReady()))
 784               		.loc 3 66 0
 785 0064 0E94 0000 		call Endpoint_WaitUntilReady
 786               	.LVL76:
 787 0068 8823      		tst r24
 788 006a 01F0      		breq .L61
 789 006c 00C0      		rjmp .L60
 790               	.LVL77:
 791               	.L55:
 792               	.LBB284:
 793               	.LBB285:
 612:LUFA-111009/LUFA/Drivers/USB/Core/AVR8/../AVR8/../AVR8/Endpoint_AVR8.h **** 				return UEDATX;
 794               		.loc 2 612 0
 795 006e 8091 F100 		lds r24,241
 796               	.LBE285:
 797               	.LBE284:
  71:LUFA-111009/LUFA/Drivers/USB/Core/AVR8/Template/Template_Endpoint_RW.c **** 			TEMPLATE_TRANSFER_BYTE(DataStream);
 798               		.loc 3 71 0
 799 0072 F701      		movw r30,r14
 800 0074 8193      		st Z+,r24
 801 0076 7F01      		movw r14,r30
 802               	.LVL78:
  73:LUFA-111009/LUFA/Drivers/USB/Core/AVR8/Template/Template_Endpoint_RW.c **** 			Length--;
 803               		.loc 3 73 0
 804 0078 0150      		subi r16,1
 805 007a 1109      		sbc r17,__zero_reg__
 806               	.LVL79:
  74:LUFA-111009/LUFA/Drivers/USB/Core/AVR8/Template/Template_Endpoint_RW.c **** 			BytesInTransfer++;
 807               		.loc 3 74 0
 808 007c FFEF      		ldi r31,-1
 809 007e CF1A      		sub r12,r31
 810 0080 DF0A      		sbc r13,r31
 811               	.LVL80:
 812               	.L61:
  50:LUFA-111009/LUFA/Drivers/USB/Core/AVR8/Template/Template_Endpoint_RW.c **** 	while (Length)
 813               		.loc 3 50 0 discriminator 1
 814 0082 0115      		cp r16,__zero_reg__
 815 0084 1105      		cpc r17,__zero_reg__
 816 0086 01F4      		brne .L58
 817 0088 00C0      		rjmp .L52
 818               	.LVL81:
 819               	.L60:
  66:LUFA-111009/LUFA/Drivers/USB/Core/AVR8/Template/Template_Endpoint_RW.c **** 			if ((ErrorCode = Endpoint_WaitUntilReady()))
 820               		.loc 3 66 0
 821 008a B82E      		mov r11,r24
 822               	.LVL82:
 823               	.L52:
 824               		.loc 3 79 0
 825 008c 8B2D      		mov r24,r11
 826               	/* epilogue start */
 827 008e DF91      		pop r29
 828 0090 CF91      		pop r28
 829               	.LVL83:
 830 0092 1F91      		pop r17
 831 0094 0F91      		pop r16
 832               	.LVL84:
 833 0096 FF90      		pop r15
 834 0098 EF90      		pop r14
 835               	.LVL85:
 836 009a DF90      		pop r13
 837 009c CF90      		pop r12
 838 009e BF90      		pop r11
 839 00a0 0895      		ret
 840               		.cfi_endproc
 841               	.LFE85:
 843               		.section	.text.Endpoint_Read_Stream_BE,"ax",@progbits
 844               	.global	Endpoint_Read_Stream_BE
 846               	Endpoint_Read_Stream_BE:
 847               	.LFB86:
  36:LUFA-111009/LUFA/Drivers/USB/Core/AVR8/Template/Template_Endpoint_RW.c **** {
 848               		.loc 3 36 0
 849               		.cfi_startproc
 850               	.LVL86:
 851 0000 BF92      		push r11
 852               	.LCFI41:
 853               		.cfi_def_cfa_offset 3
 854               		.cfi_offset 11, -2
 855 0002 CF92      		push r12
 856               	.LCFI42:
 857               		.cfi_def_cfa_offset 4
 858               		.cfi_offset 12, -3
 859 0004 DF92      		push r13
 860               	.LCFI43:
 861               		.cfi_def_cfa_offset 5
 862               		.cfi_offset 13, -4
 863 0006 EF92      		push r14
 864               	.LCFI44:
 865               		.cfi_def_cfa_offset 6
 866               		.cfi_offset 14, -5
 867 0008 FF92      		push r15
 868               	.LCFI45:
 869               		.cfi_def_cfa_offset 7
 870               		.cfi_offset 15, -6
 871 000a 0F93      		push r16
 872               	.LCFI46:
 873               		.cfi_def_cfa_offset 8
 874               		.cfi_offset 16, -7
 875 000c 1F93      		push r17
 876               	.LCFI47:
 877               		.cfi_def_cfa_offset 9
 878               		.cfi_offset 17, -8
 879 000e CF93      		push r28
 880               	.LCFI48:
 881               		.cfi_def_cfa_offset 10
 882               		.cfi_offset 28, -9
 883 0010 DF93      		push r29
 884               	.LCFI49:
 885               		.cfi_def_cfa_offset 11
 886               		.cfi_offset 29, -10
 887               	/* prologue: function */
 888               	/* frame size = 0 */
 889               	/* stack size = 9 */
 890               	.L__stack_usage = 9
 891 0012 6C01      		movw r12,r24
 892 0014 8B01      		movw r16,r22
 893 0016 7A01      		movw r14,r20
 894               	.LVL87:
  41:LUFA-111009/LUFA/Drivers/USB/Core/AVR8/Template/Template_Endpoint_RW.c **** 	if ((ErrorCode = Endpoint_WaitUntilReady()))
 895               		.loc 3 41 0
 896 0018 0E94 0000 		call Endpoint_WaitUntilReady
 897               	.LVL88:
 898 001c B82E      		mov r11,r24
 899               	.LVL89:
 900 001e 8111      		cpse r24,__zero_reg__
 901 0020 00C0      		rjmp .L63
  37:LUFA-111009/LUFA/Drivers/USB/Core/AVR8/Template/Template_Endpoint_RW.c **** 	uint8_t* DataStream      = ((uint8_t*)Buffer + TEMPLATE_BUFFER_OFFSET(Length));
 902               		.loc 3 37 0
 903 0022 E801      		movw r28,r16
 904 0024 2197      		sbiw r28,1
 905               	.LVL90:
 906 0026 CC0D      		add r28,r12
 907 0028 DD1D      		adc r29,r13
 908               	.LVL91:
  44:LUFA-111009/LUFA/Drivers/USB/Core/AVR8/Template/Template_Endpoint_RW.c **** 	if (BytesProcessed != NULL)
 909               		.loc 3 44 0
 910 002a E114      		cp r14,__zero_reg__
 911 002c F104      		cpc r15,__zero_reg__
 912 002e 01F0      		breq .L64
  46:LUFA-111009/LUFA/Drivers/USB/Core/AVR8/Template/Template_Endpoint_RW.c **** 		Length -= *BytesProcessed;
 913               		.loc 3 46 0
 914 0030 F701      		movw r30,r14
 915 0032 2081      		ld r18,Z
 916 0034 3181      		ldd r19,Z+1
 917 0036 021B      		sub r16,r18
 918 0038 130B      		sbc r17,r19
 919               	.LVL92:
  47:LUFA-111009/LUFA/Drivers/USB/Core/AVR8/Template/Template_Endpoint_RW.c **** 		TEMPLATE_BUFFER_MOVE(DataStream, *BytesProcessed);
 920               		.loc 3 47 0
 921 003a C21B      		sub r28,r18
 922 003c D30B      		sbc r29,r19
 923               	.LVL93:
 924               	.L64:
  36:LUFA-111009/LUFA/Drivers/USB/Core/AVR8/Template/Template_Endpoint_RW.c **** {
 925               		.loc 3 36 0 discriminator 1
 926 003e C12C      		mov r12,__zero_reg__
 927 0040 D12C      		mov r13,__zero_reg__
 928               	.LVL94:
 929 0042 00C0      		rjmp .L74
 930               	.LVL95:
 931               	.L69:
 932               	.LBB286:
 933               	.LBB287:
 420:LUFA-111009/LUFA/Drivers/USB/Core/AVR8/../AVR8/../AVR8/Endpoint_AVR8.h **** 				return ((UEINTX & (1 << RWAL)) ? true : false);
 934               		.loc 2 420 0
 935 0044 8091 E800 		lds r24,232
 936               	.LBE287:
 937               	.LBE286:
  52:LUFA-111009/LUFA/Drivers/USB/Core/AVR8/Template/Template_Endpoint_RW.c **** 		if (!(Endpoint_IsReadWriteAllowed()))
 938               		.loc 3 52 0
 939 0048 85FD      		sbrc r24,5
 940 004a 00C0      		rjmp .L66
 941               	.LBB288:
 942               	.LBB289:
 531:LUFA-111009/LUFA/Drivers/USB/Core/AVR8/../AVR8/../AVR8/Endpoint_AVR8.h **** 					UEINTX &= ~((1 << RXOUTI) | (1 << FIFOCON));
 943               		.loc 2 531 0
 944 004c 8091 E800 		lds r24,232
 945 0050 8B77      		andi r24,lo8(123)
 946 0052 8093 E800 		sts 232,r24
 947               	.LBE289:
 948               	.LBE288:
  57:LUFA-111009/LUFA/Drivers/USB/Core/AVR8/Template/Template_Endpoint_RW.c **** 			USB_USBTask();
 949               		.loc 3 57 0
 950 0056 0E94 0000 		call USB_USBTask
 951               	.LVL96:
  60:LUFA-111009/LUFA/Drivers/USB/Core/AVR8/Template/Template_Endpoint_RW.c **** 			if (BytesProcessed != NULL)
 952               		.loc 3 60 0
 953 005a E114      		cp r14,__zero_reg__
 954 005c F104      		cpc r15,__zero_reg__
 955 005e 01F0      		breq .L67
  62:LUFA-111009/LUFA/Drivers/USB/Core/AVR8/Template/Template_Endpoint_RW.c **** 				*BytesProcessed += BytesInTransfer;
 956               		.loc 3 62 0
 957 0060 F701      		movw r30,r14
 958 0062 8081      		ld r24,Z
 959 0064 9181      		ldd r25,Z+1
 960 0066 8C0D      		add r24,r12
 961 0068 9D1D      		adc r25,r13
 962 006a 9183      		std Z+1,r25
 963 006c 8083      		st Z,r24
  63:LUFA-111009/LUFA/Drivers/USB/Core/AVR8/Template/Template_Endpoint_RW.c **** 				return ENDPOINT_RWSTREAM_IncompleteTransfer;
 964               		.loc 3 63 0
 965 006e 55E0      		ldi r21,lo8(5)
 966 0070 B52E      		mov r11,r21
 967 0072 00C0      		rjmp .L63
 968               	.L67:
  66:LUFA-111009/LUFA/Drivers/USB/Core/AVR8/Template/Template_Endpoint_RW.c **** 			if ((ErrorCode = Endpoint_WaitUntilReady()))
 969               		.loc 3 66 0
 970 0074 0E94 0000 		call Endpoint_WaitUntilReady
 971               	.LVL97:
 972 0078 8823      		tst r24
 973 007a 01F0      		breq .L74
 974 007c 00C0      		rjmp .L70
 975               	.LVL98:
 976               	.L66:
 977               	.LBB290:
 978               	.LBB291:
 612:LUFA-111009/LUFA/Drivers/USB/Core/AVR8/../AVR8/../AVR8/Endpoint_AVR8.h **** 				return UEDATX;
 979               		.loc 2 612 0
 980 007e 8091 F100 		lds r24,241
 981               	.LBE291:
 982               	.LBE290:
  71:LUFA-111009/LUFA/Drivers/USB/Core/AVR8/Template/Template_Endpoint_RW.c **** 			TEMPLATE_TRANSFER_BYTE(DataStream);
 983               		.loc 3 71 0
 984 0082 8883      		st Y,r24
  72:LUFA-111009/LUFA/Drivers/USB/Core/AVR8/Template/Template_Endpoint_RW.c **** 			TEMPLATE_BUFFER_MOVE(DataStream, 1);
 985               		.loc 3 72 0
 986 0084 2197      		sbiw r28,1
 987               	.LVL99:
  73:LUFA-111009/LUFA/Drivers/USB/Core/AVR8/Template/Template_Endpoint_RW.c **** 			Length--;
 988               		.loc 3 73 0
 989 0086 0150      		subi r16,1
 990 0088 1109      		sbc r17,__zero_reg__
 991               	.LVL100:
  74:LUFA-111009/LUFA/Drivers/USB/Core/AVR8/Template/Template_Endpoint_RW.c **** 			BytesInTransfer++;
 992               		.loc 3 74 0
 993 008a FFEF      		ldi r31,-1
 994 008c CF1A      		sub r12,r31
 995 008e DF0A      		sbc r13,r31
 996               	.LVL101:
 997               	.L74:
  50:LUFA-111009/LUFA/Drivers/USB/Core/AVR8/Template/Template_Endpoint_RW.c **** 	while (Length)
 998               		.loc 3 50 0 discriminator 1
 999 0090 0115      		cp r16,__zero_reg__
 1000 0092 1105      		cpc r17,__zero_reg__
 1001 0094 01F4      		brne .L69
 1002 0096 00C0      		rjmp .L63
 1003               	.LVL102:
 1004               	.L70:
  66:LUFA-111009/LUFA/Drivers/USB/Core/AVR8/Template/Template_Endpoint_RW.c **** 			if ((ErrorCode = Endpoint_WaitUntilReady()))
 1005               		.loc 3 66 0
 1006 0098 B82E      		mov r11,r24
 1007               	.LVL103:
 1008               	.L63:
 1009               		.loc 3 79 0
 1010 009a 8B2D      		mov r24,r11
 1011               	/* epilogue start */
 1012 009c DF91      		pop r29
 1013 009e CF91      		pop r28
 1014 00a0 1F91      		pop r17
 1015 00a2 0F91      		pop r16
 1016               	.LVL104:
 1017 00a4 FF90      		pop r15
 1018 00a6 EF90      		pop r14
 1019               	.LVL105:
 1020 00a8 DF90      		pop r13
 1021 00aa CF90      		pop r12
 1022 00ac BF90      		pop r11
 1023 00ae 0895      		ret
 1024               		.cfi_endproc
 1025               	.LFE86:
 1027               		.section	.text.Endpoint_Write_PStream_LE,"ax",@progbits
 1028               	.global	Endpoint_Write_PStream_LE
 1030               	Endpoint_Write_PStream_LE:
 1031               	.LFB87:
  36:LUFA-111009/LUFA/Drivers/USB/Core/AVR8/Template/Template_Endpoint_RW.c **** {
 1032               		.loc 3 36 0
 1033               		.cfi_startproc
 1034               	.LVL106:
 1035 0000 BF92      		push r11
 1036               	.LCFI50:
 1037               		.cfi_def_cfa_offset 3
 1038               		.cfi_offset 11, -2
 1039 0002 CF92      		push r12
 1040               	.LCFI51:
 1041               		.cfi_def_cfa_offset 4
 1042               		.cfi_offset 12, -3
 1043 0004 DF92      		push r13
 1044               	.LCFI52:
 1045               		.cfi_def_cfa_offset 5
 1046               		.cfi_offset 13, -4
 1047 0006 EF92      		push r14
 1048               	.LCFI53:
 1049               		.cfi_def_cfa_offset 6
 1050               		.cfi_offset 14, -5
 1051 0008 FF92      		push r15
 1052               	.LCFI54:
 1053               		.cfi_def_cfa_offset 7
 1054               		.cfi_offset 15, -6
 1055 000a 0F93      		push r16
 1056               	.LCFI55:
 1057               		.cfi_def_cfa_offset 8
 1058               		.cfi_offset 16, -7
 1059 000c 1F93      		push r17
 1060               	.LCFI56:
 1061               		.cfi_def_cfa_offset 9
 1062               		.cfi_offset 17, -8
 1063 000e CF93      		push r28
 1064               	.LCFI57:
 1065               		.cfi_def_cfa_offset 10
 1066               		.cfi_offset 28, -9
 1067 0010 DF93      		push r29
 1068               	.LCFI58:
 1069               		.cfi_def_cfa_offset 11
 1070               		.cfi_offset 29, -10
 1071               	/* prologue: function */
 1072               	/* frame size = 0 */
 1073               	/* stack size = 9 */
 1074               	.L__stack_usage = 9
 1075 0012 7C01      		movw r14,r24
 1076 0014 8B01      		movw r16,r22
 1077 0016 EA01      		movw r28,r20
 1078               	.LVL107:
  41:LUFA-111009/LUFA/Drivers/USB/Core/AVR8/Template/Template_Endpoint_RW.c **** 	if ((ErrorCode = Endpoint_WaitUntilReady()))
 1079               		.loc 3 41 0
 1080 0018 0E94 0000 		call Endpoint_WaitUntilReady
 1081               	.LVL108:
 1082 001c B82E      		mov r11,r24
 1083               	.LVL109:
 1084 001e 8111      		cpse r24,__zero_reg__
 1085 0020 00C0      		rjmp .L76
  44:LUFA-111009/LUFA/Drivers/USB/Core/AVR8/Template/Template_Endpoint_RW.c **** 	if (BytesProcessed != NULL)
 1086               		.loc 3 44 0
 1087 0022 2097      		sbiw r28,0
 1088 0024 01F0      		breq .L77
  46:LUFA-111009/LUFA/Drivers/USB/Core/AVR8/Template/Template_Endpoint_RW.c **** 		Length -= *BytesProcessed;
 1089               		.loc 3 46 0
 1090 0026 2881      		ld r18,Y
 1091 0028 3981      		ldd r19,Y+1
 1092 002a 021B      		sub r16,r18
 1093 002c 130B      		sbc r17,r19
 1094               	.LVL110:
  47:LUFA-111009/LUFA/Drivers/USB/Core/AVR8/Template/Template_Endpoint_RW.c **** 		TEMPLATE_BUFFER_MOVE(DataStream, *BytesProcessed);
 1095               		.loc 3 47 0
 1096 002e E20E      		add r14,r18
 1097 0030 F31E      		adc r15,r19
 1098               	.LVL111:
 1099               	.L77:
  37:LUFA-111009/LUFA/Drivers/USB/Core/AVR8/Template/Template_Endpoint_RW.c **** 	uint8_t* DataStream      = ((uint8_t*)Buffer + TEMPLATE_BUFFER_OFFSET(Length));
 1100               		.loc 3 37 0 discriminator 1
 1101 0032 C12C      		mov r12,__zero_reg__
 1102 0034 D12C      		mov r13,__zero_reg__
 1103 0036 00C0      		rjmp .L85
 1104               	.LVL112:
 1105               	.L82:
 1106               	.LBB292:
 1107               	.LBB293:
 420:LUFA-111009/LUFA/Drivers/USB/Core/AVR8/../AVR8/../AVR8/Endpoint_AVR8.h **** 				return ((UEINTX & (1 << RWAL)) ? true : false);
 1108               		.loc 2 420 0
 1109 0038 8091 E800 		lds r24,232
 1110               	.LBE293:
 1111               	.LBE292:
  52:LUFA-111009/LUFA/Drivers/USB/Core/AVR8/Template/Template_Endpoint_RW.c **** 		if (!(Endpoint_IsReadWriteAllowed()))
 1112               		.loc 3 52 0
 1113 003c 85FD      		sbrc r24,5
 1114 003e 00C0      		rjmp .L79
 1115               	.LBB294:
 1116               	.LBB295:
 516:LUFA-111009/LUFA/Drivers/USB/Core/AVR8/../AVR8/../AVR8/Endpoint_AVR8.h **** 					UEINTX &= ~((1 << TXINI) | (1 << FIFOCON));
 1117               		.loc 2 516 0
 1118 0040 8091 E800 		lds r24,232
 1119 0044 8E77      		andi r24,lo8(126)
 1120 0046 8093 E800 		sts 232,r24
 1121               	.LBE295:
 1122               	.LBE294:
  57:LUFA-111009/LUFA/Drivers/USB/Core/AVR8/Template/Template_Endpoint_RW.c **** 			USB_USBTask();
 1123               		.loc 3 57 0
 1124 004a 0E94 0000 		call USB_USBTask
 1125               	.LVL113:
  60:LUFA-111009/LUFA/Drivers/USB/Core/AVR8/Template/Template_Endpoint_RW.c **** 			if (BytesProcessed != NULL)
 1126               		.loc 3 60 0
 1127 004e 2097      		sbiw r28,0
 1128 0050 01F0      		breq .L80
  62:LUFA-111009/LUFA/Drivers/USB/Core/AVR8/Template/Template_Endpoint_RW.c **** 				*BytesProcessed += BytesInTransfer;
 1129               		.loc 3 62 0
 1130 0052 8881      		ld r24,Y
 1131 0054 9981      		ldd r25,Y+1
 1132 0056 8C0D      		add r24,r12
 1133 0058 9D1D      		adc r25,r13
 1134 005a 9983      		std Y+1,r25
 1135 005c 8883      		st Y,r24
  63:LUFA-111009/LUFA/Drivers/USB/Core/AVR8/Template/Template_Endpoint_RW.c **** 				return ENDPOINT_RWSTREAM_IncompleteTransfer;
 1136               		.loc 3 63 0
 1137 005e 65E0      		ldi r22,lo8(5)
 1138 0060 B62E      		mov r11,r22
 1139 0062 00C0      		rjmp .L76
 1140               	.L80:
  66:LUFA-111009/LUFA/Drivers/USB/Core/AVR8/Template/Template_Endpoint_RW.c **** 			if ((ErrorCode = Endpoint_WaitUntilReady()))
 1141               		.loc 3 66 0
 1142 0064 0E94 0000 		call Endpoint_WaitUntilReady
 1143               	.LVL114:
 1144 0068 8823      		tst r24
 1145 006a 01F0      		breq .L85
 1146 006c 00C0      		rjmp .L84
 1147               	.LVL115:
 1148               	.L79:
 1149               	.LBB296:
  71:LUFA-111009/LUFA/Drivers/USB/Core/AVR8/Template/Template_Endpoint_RW.c **** 			TEMPLATE_TRANSFER_BYTE(DataStream);
 1150               		.loc 3 71 0
 1151 006e F701      		movw r30,r14
 1152               	/* #APP */
 1153               	 ;  71 "LUFA-111009/LUFA/Drivers/USB/Core/AVR8/Template/Template_Endpoint_RW.c" 1
 1154 0070 8491      		lpm r24, Z
 1155               		
 1156               	 ;  0 "" 2
 1157               	.LVL116:
 1158               	/* #NOAPP */
 1159               	.LBE296:
 1160               	.LBB297:
 1161               	.LBB298:
 624:LUFA-111009/LUFA/Drivers/USB/Core/AVR8/../AVR8/../AVR8/Endpoint_AVR8.h **** 				UEDATX = Data;
 1162               		.loc 2 624 0
 1163 0072 8093 F100 		sts 241,r24
 1164               	.LBE298:
 1165               	.LBE297:
  72:LUFA-111009/LUFA/Drivers/USB/Core/AVR8/Template/Template_Endpoint_RW.c **** 			TEMPLATE_BUFFER_MOVE(DataStream, 1);
 1166               		.loc 3 72 0
 1167 0076 FFEF      		ldi r31,-1
 1168 0078 EF1A      		sub r14,r31
 1169 007a FF0A      		sbc r15,r31
 1170               	.LVL117:
  73:LUFA-111009/LUFA/Drivers/USB/Core/AVR8/Template/Template_Endpoint_RW.c **** 			Length--;
 1171               		.loc 3 73 0
 1172 007c 0150      		subi r16,1
 1173 007e 1109      		sbc r17,__zero_reg__
 1174               	.LVL118:
  74:LUFA-111009/LUFA/Drivers/USB/Core/AVR8/Template/Template_Endpoint_RW.c **** 			BytesInTransfer++;
 1175               		.loc 3 74 0
 1176 0080 8FEF      		ldi r24,-1
 1177 0082 C81A      		sub r12,r24
 1178 0084 D80A      		sbc r13,r24
 1179               	.LVL119:
 1180               	.L85:
  50:LUFA-111009/LUFA/Drivers/USB/Core/AVR8/Template/Template_Endpoint_RW.c **** 	while (Length)
 1181               		.loc 3 50 0 discriminator 1
 1182 0086 0115      		cp r16,__zero_reg__
 1183 0088 1105      		cpc r17,__zero_reg__
 1184 008a 01F4      		brne .L82
 1185 008c 00C0      		rjmp .L76
 1186               	.LVL120:
 1187               	.L84:
  66:LUFA-111009/LUFA/Drivers/USB/Core/AVR8/Template/Template_Endpoint_RW.c **** 			if ((ErrorCode = Endpoint_WaitUntilReady()))
 1188               		.loc 3 66 0
 1189 008e B82E      		mov r11,r24
 1190               	.LVL121:
 1191               	.L76:
 1192               		.loc 3 79 0
 1193 0090 8B2D      		mov r24,r11
 1194               	/* epilogue start */
 1195 0092 DF91      		pop r29
 1196 0094 CF91      		pop r28
 1197               	.LVL122:
 1198 0096 1F91      		pop r17
 1199 0098 0F91      		pop r16
 1200               	.LVL123:
 1201 009a FF90      		pop r15
 1202 009c EF90      		pop r14
 1203               	.LVL124:
 1204 009e DF90      		pop r13
 1205 00a0 CF90      		pop r12
 1206 00a2 BF90      		pop r11
 1207 00a4 0895      		ret
 1208               		.cfi_endproc
 1209               	.LFE87:
 1211               		.section	.text.Endpoint_Write_PStream_BE,"ax",@progbits
 1212               	.global	Endpoint_Write_PStream_BE
 1214               	Endpoint_Write_PStream_BE:
 1215               	.LFB88:
  36:LUFA-111009/LUFA/Drivers/USB/Core/AVR8/Template/Template_Endpoint_RW.c **** {
 1216               		.loc 3 36 0
 1217               		.cfi_startproc
 1218               	.LVL125:
 1219 0000 BF92      		push r11
 1220               	.LCFI59:
 1221               		.cfi_def_cfa_offset 3
 1222               		.cfi_offset 11, -2
 1223 0002 CF92      		push r12
 1224               	.LCFI60:
 1225               		.cfi_def_cfa_offset 4
 1226               		.cfi_offset 12, -3
 1227 0004 DF92      		push r13
 1228               	.LCFI61:
 1229               		.cfi_def_cfa_offset 5
 1230               		.cfi_offset 13, -4
 1231 0006 EF92      		push r14
 1232               	.LCFI62:
 1233               		.cfi_def_cfa_offset 6
 1234               		.cfi_offset 14, -5
 1235 0008 FF92      		push r15
 1236               	.LCFI63:
 1237               		.cfi_def_cfa_offset 7
 1238               		.cfi_offset 15, -6
 1239 000a 0F93      		push r16
 1240               	.LCFI64:
 1241               		.cfi_def_cfa_offset 8
 1242               		.cfi_offset 16, -7
 1243 000c 1F93      		push r17
 1244               	.LCFI65:
 1245               		.cfi_def_cfa_offset 9
 1246               		.cfi_offset 17, -8
 1247 000e CF93      		push r28
 1248               	.LCFI66:
 1249               		.cfi_def_cfa_offset 10
 1250               		.cfi_offset 28, -9
 1251 0010 DF93      		push r29
 1252               	.LCFI67:
 1253               		.cfi_def_cfa_offset 11
 1254               		.cfi_offset 29, -10
 1255               	/* prologue: function */
 1256               	/* frame size = 0 */
 1257               	/* stack size = 9 */
 1258               	.L__stack_usage = 9
 1259 0012 6C01      		movw r12,r24
 1260 0014 8B01      		movw r16,r22
 1261 0016 7A01      		movw r14,r20
 1262               	.LVL126:
  41:LUFA-111009/LUFA/Drivers/USB/Core/AVR8/Template/Template_Endpoint_RW.c **** 	if ((ErrorCode = Endpoint_WaitUntilReady()))
 1263               		.loc 3 41 0
 1264 0018 0E94 0000 		call Endpoint_WaitUntilReady
 1265               	.LVL127:
 1266 001c B82E      		mov r11,r24
 1267               	.LVL128:
 1268 001e 8111      		cpse r24,__zero_reg__
 1269 0020 00C0      		rjmp .L87
  37:LUFA-111009/LUFA/Drivers/USB/Core/AVR8/Template/Template_Endpoint_RW.c **** 	uint8_t* DataStream      = ((uint8_t*)Buffer + TEMPLATE_BUFFER_OFFSET(Length));
 1270               		.loc 3 37 0
 1271 0022 E801      		movw r28,r16
 1272 0024 2197      		sbiw r28,1
 1273               	.LVL129:
 1274 0026 CC0D      		add r28,r12
 1275 0028 DD1D      		adc r29,r13
 1276               	.LVL130:
  44:LUFA-111009/LUFA/Drivers/USB/Core/AVR8/Template/Template_Endpoint_RW.c **** 	if (BytesProcessed != NULL)
 1277               		.loc 3 44 0
 1278 002a E114      		cp r14,__zero_reg__
 1279 002c F104      		cpc r15,__zero_reg__
 1280 002e 01F0      		breq .L88
  46:LUFA-111009/LUFA/Drivers/USB/Core/AVR8/Template/Template_Endpoint_RW.c **** 		Length -= *BytesProcessed;
 1281               		.loc 3 46 0
 1282 0030 F701      		movw r30,r14
 1283 0032 2081      		ld r18,Z
 1284 0034 3181      		ldd r19,Z+1
 1285 0036 021B      		sub r16,r18
 1286 0038 130B      		sbc r17,r19
 1287               	.LVL131:
  47:LUFA-111009/LUFA/Drivers/USB/Core/AVR8/Template/Template_Endpoint_RW.c **** 		TEMPLATE_BUFFER_MOVE(DataStream, *BytesProcessed);
 1288               		.loc 3 47 0
 1289 003a C21B      		sub r28,r18
 1290 003c D30B      		sbc r29,r19
 1291               	.LVL132:
 1292               	.L88:
  36:LUFA-111009/LUFA/Drivers/USB/Core/AVR8/Template/Template_Endpoint_RW.c **** {
 1293               		.loc 3 36 0 discriminator 1
 1294 003e C12C      		mov r12,__zero_reg__
 1295 0040 D12C      		mov r13,__zero_reg__
 1296               	.LVL133:
 1297 0042 00C0      		rjmp .L98
 1298               	.LVL134:
 1299               	.L93:
 1300               	.LBB299:
 1301               	.LBB300:
 420:LUFA-111009/LUFA/Drivers/USB/Core/AVR8/../AVR8/../AVR8/Endpoint_AVR8.h **** 				return ((UEINTX & (1 << RWAL)) ? true : false);
 1302               		.loc 2 420 0
 1303 0044 8091 E800 		lds r24,232
 1304               	.LBE300:
 1305               	.LBE299:
  52:LUFA-111009/LUFA/Drivers/USB/Core/AVR8/Template/Template_Endpoint_RW.c **** 		if (!(Endpoint_IsReadWriteAllowed()))
 1306               		.loc 3 52 0
 1307 0048 85FD      		sbrc r24,5
 1308 004a 00C0      		rjmp .L90
 1309               	.LBB301:
 1310               	.LBB302:
 516:LUFA-111009/LUFA/Drivers/USB/Core/AVR8/../AVR8/../AVR8/Endpoint_AVR8.h **** 					UEINTX &= ~((1 << TXINI) | (1 << FIFOCON));
 1311               		.loc 2 516 0
 1312 004c 8091 E800 		lds r24,232
 1313 0050 8E77      		andi r24,lo8(126)
 1314 0052 8093 E800 		sts 232,r24
 1315               	.LBE302:
 1316               	.LBE301:
  57:LUFA-111009/LUFA/Drivers/USB/Core/AVR8/Template/Template_Endpoint_RW.c **** 			USB_USBTask();
 1317               		.loc 3 57 0
 1318 0056 0E94 0000 		call USB_USBTask
 1319               	.LVL135:
  60:LUFA-111009/LUFA/Drivers/USB/Core/AVR8/Template/Template_Endpoint_RW.c **** 			if (BytesProcessed != NULL)
 1320               		.loc 3 60 0
 1321 005a E114      		cp r14,__zero_reg__
 1322 005c F104      		cpc r15,__zero_reg__
 1323 005e 01F0      		breq .L91
  62:LUFA-111009/LUFA/Drivers/USB/Core/AVR8/Template/Template_Endpoint_RW.c **** 				*BytesProcessed += BytesInTransfer;
 1324               		.loc 3 62 0
 1325 0060 F701      		movw r30,r14
 1326 0062 8081      		ld r24,Z
 1327 0064 9181      		ldd r25,Z+1
 1328 0066 8C0D      		add r24,r12
 1329 0068 9D1D      		adc r25,r13
 1330 006a 9183      		std Z+1,r25
 1331 006c 8083      		st Z,r24
  63:LUFA-111009/LUFA/Drivers/USB/Core/AVR8/Template/Template_Endpoint_RW.c **** 				return ENDPOINT_RWSTREAM_IncompleteTransfer;
 1332               		.loc 3 63 0
 1333 006e 75E0      		ldi r23,lo8(5)
 1334 0070 B72E      		mov r11,r23
 1335 0072 00C0      		rjmp .L87
 1336               	.L91:
  66:LUFA-111009/LUFA/Drivers/USB/Core/AVR8/Template/Template_Endpoint_RW.c **** 			if ((ErrorCode = Endpoint_WaitUntilReady()))
 1337               		.loc 3 66 0
 1338 0074 0E94 0000 		call Endpoint_WaitUntilReady
 1339               	.LVL136:
 1340 0078 8823      		tst r24
 1341 007a 01F0      		breq .L98
 1342 007c 00C0      		rjmp .L94
 1343               	.LVL137:
 1344               	.L90:
 1345               	.LBB303:
  71:LUFA-111009/LUFA/Drivers/USB/Core/AVR8/Template/Template_Endpoint_RW.c **** 			TEMPLATE_TRANSFER_BYTE(DataStream);
 1346               		.loc 3 71 0
 1347 007e FE01      		movw r30,r28
 1348               	/* #APP */
 1349               	 ;  71 "LUFA-111009/LUFA/Drivers/USB/Core/AVR8/Template/Template_Endpoint_RW.c" 1
 1350 0080 8491      		lpm r24, Z
 1351               		
 1352               	 ;  0 "" 2
 1353               	.LVL138:
 1354               	/* #NOAPP */
 1355               	.LBE303:
 1356               	.LBB304:
 1357               	.LBB305:
 624:LUFA-111009/LUFA/Drivers/USB/Core/AVR8/../AVR8/../AVR8/Endpoint_AVR8.h **** 				UEDATX = Data;
 1358               		.loc 2 624 0
 1359 0082 8093 F100 		sts 241,r24
 1360               	.LBE305:
 1361               	.LBE304:
  72:LUFA-111009/LUFA/Drivers/USB/Core/AVR8/Template/Template_Endpoint_RW.c **** 			TEMPLATE_BUFFER_MOVE(DataStream, 1);
 1362               		.loc 3 72 0
 1363 0086 2197      		sbiw r28,1
 1364               	.LVL139:
  73:LUFA-111009/LUFA/Drivers/USB/Core/AVR8/Template/Template_Endpoint_RW.c **** 			Length--;
 1365               		.loc 3 73 0
 1366 0088 0150      		subi r16,1
 1367 008a 1109      		sbc r17,__zero_reg__
 1368               	.LVL140:
  74:LUFA-111009/LUFA/Drivers/USB/Core/AVR8/Template/Template_Endpoint_RW.c **** 			BytesInTransfer++;
 1369               		.loc 3 74 0
 1370 008c FFEF      		ldi r31,-1
 1371 008e CF1A      		sub r12,r31
 1372 0090 DF0A      		sbc r13,r31
 1373               	.LVL141:
 1374               	.L98:
  50:LUFA-111009/LUFA/Drivers/USB/Core/AVR8/Template/Template_Endpoint_RW.c **** 	while (Length)
 1375               		.loc 3 50 0 discriminator 1
 1376 0092 0115      		cp r16,__zero_reg__
 1377 0094 1105      		cpc r17,__zero_reg__
 1378 0096 01F4      		brne .L93
 1379 0098 00C0      		rjmp .L87
 1380               	.LVL142:
 1381               	.L94:
  66:LUFA-111009/LUFA/Drivers/USB/Core/AVR8/Template/Template_Endpoint_RW.c **** 			if ((ErrorCode = Endpoint_WaitUntilReady()))
 1382               		.loc 3 66 0
 1383 009a B82E      		mov r11,r24
 1384               	.LVL143:
 1385               	.L87:
 1386               		.loc 3 79 0
 1387 009c 8B2D      		mov r24,r11
 1388               	/* epilogue start */
 1389 009e DF91      		pop r29
 1390 00a0 CF91      		pop r28
 1391 00a2 1F91      		pop r17
 1392 00a4 0F91      		pop r16
 1393               	.LVL144:
 1394 00a6 FF90      		pop r15
 1395 00a8 EF90      		pop r14
 1396               	.LVL145:
 1397 00aa DF90      		pop r13
 1398 00ac CF90      		pop r12
 1399 00ae BF90      		pop r11
 1400 00b0 0895      		ret
 1401               		.cfi_endproc
 1402               	.LFE88:
 1404               		.section	.text.Endpoint_Write_EStream_LE,"ax",@progbits
 1405               	.global	Endpoint_Write_EStream_LE
 1407               	Endpoint_Write_EStream_LE:
 1408               	.LFB89:
  36:LUFA-111009/LUFA/Drivers/USB/Core/AVR8/Template/Template_Endpoint_RW.c **** {
 1409               		.loc 3 36 0
 1410               		.cfi_startproc
 1411               	.LVL146:
 1412 0000 BF92      		push r11
 1413               	.LCFI68:
 1414               		.cfi_def_cfa_offset 3
 1415               		.cfi_offset 11, -2
 1416 0002 CF92      		push r12
 1417               	.LCFI69:
 1418               		.cfi_def_cfa_offset 4
 1419               		.cfi_offset 12, -3
 1420 0004 DF92      		push r13
 1421               	.LCFI70:
 1422               		.cfi_def_cfa_offset 5
 1423               		.cfi_offset 13, -4
 1424 0006 EF92      		push r14
 1425               	.LCFI71:
 1426               		.cfi_def_cfa_offset 6
 1427               		.cfi_offset 14, -5
 1428 0008 FF92      		push r15
 1429               	.LCFI72:
 1430               		.cfi_def_cfa_offset 7
 1431               		.cfi_offset 15, -6
 1432 000a 0F93      		push r16
 1433               	.LCFI73:
 1434               		.cfi_def_cfa_offset 8
 1435               		.cfi_offset 16, -7
 1436 000c 1F93      		push r17
 1437               	.LCFI74:
 1438               		.cfi_def_cfa_offset 9
 1439               		.cfi_offset 17, -8
 1440 000e CF93      		push r28
 1441               	.LCFI75:
 1442               		.cfi_def_cfa_offset 10
 1443               		.cfi_offset 28, -9
 1444 0010 DF93      		push r29
 1445               	.LCFI76:
 1446               		.cfi_def_cfa_offset 11
 1447               		.cfi_offset 29, -10
 1448               	/* prologue: function */
 1449               	/* frame size = 0 */
 1450               	/* stack size = 9 */
 1451               	.L__stack_usage = 9
 1452 0012 7C01      		movw r14,r24
 1453 0014 8B01      		movw r16,r22
 1454 0016 EA01      		movw r28,r20
 1455               	.LVL147:
  41:LUFA-111009/LUFA/Drivers/USB/Core/AVR8/Template/Template_Endpoint_RW.c **** 	if ((ErrorCode = Endpoint_WaitUntilReady()))
 1456               		.loc 3 41 0
 1457 0018 0E94 0000 		call Endpoint_WaitUntilReady
 1458               	.LVL148:
 1459 001c B82E      		mov r11,r24
 1460               	.LVL149:
 1461 001e 8111      		cpse r24,__zero_reg__
 1462 0020 00C0      		rjmp .L100
  44:LUFA-111009/LUFA/Drivers/USB/Core/AVR8/Template/Template_Endpoint_RW.c **** 	if (BytesProcessed != NULL)
 1463               		.loc 3 44 0
 1464 0022 2097      		sbiw r28,0
 1465 0024 01F0      		breq .L101
  46:LUFA-111009/LUFA/Drivers/USB/Core/AVR8/Template/Template_Endpoint_RW.c **** 		Length -= *BytesProcessed;
 1466               		.loc 3 46 0
 1467 0026 2881      		ld r18,Y
 1468 0028 3981      		ldd r19,Y+1
 1469 002a 021B      		sub r16,r18
 1470 002c 130B      		sbc r17,r19
 1471               	.LVL150:
  47:LUFA-111009/LUFA/Drivers/USB/Core/AVR8/Template/Template_Endpoint_RW.c **** 		TEMPLATE_BUFFER_MOVE(DataStream, *BytesProcessed);
 1472               		.loc 3 47 0
 1473 002e E20E      		add r14,r18
 1474 0030 F31E      		adc r15,r19
 1475               	.LVL151:
 1476               	.L101:
  37:LUFA-111009/LUFA/Drivers/USB/Core/AVR8/Template/Template_Endpoint_RW.c **** 	uint8_t* DataStream      = ((uint8_t*)Buffer + TEMPLATE_BUFFER_OFFSET(Length));
 1477               		.loc 3 37 0 discriminator 1
 1478 0032 C12C      		mov r12,__zero_reg__
 1479 0034 D12C      		mov r13,__zero_reg__
 1480 0036 00C0      		rjmp .L109
 1481               	.LVL152:
 1482               	.L106:
 1483               	.LBB306:
 1484               	.LBB307:
 420:LUFA-111009/LUFA/Drivers/USB/Core/AVR8/../AVR8/../AVR8/Endpoint_AVR8.h **** 				return ((UEINTX & (1 << RWAL)) ? true : false);
 1485               		.loc 2 420 0
 1486 0038 8091 E800 		lds r24,232
 1487               	.LBE307:
 1488               	.LBE306:
  52:LUFA-111009/LUFA/Drivers/USB/Core/AVR8/Template/Template_Endpoint_RW.c **** 		if (!(Endpoint_IsReadWriteAllowed()))
 1489               		.loc 3 52 0
 1490 003c 85FD      		sbrc r24,5
 1491 003e 00C0      		rjmp .L103
 1492               	.LBB308:
 1493               	.LBB309:
 516:LUFA-111009/LUFA/Drivers/USB/Core/AVR8/../AVR8/../AVR8/Endpoint_AVR8.h **** 					UEINTX &= ~((1 << TXINI) | (1 << FIFOCON));
 1494               		.loc 2 516 0
 1495 0040 8091 E800 		lds r24,232
 1496 0044 8E77      		andi r24,lo8(126)
 1497 0046 8093 E800 		sts 232,r24
 1498               	.LBE309:
 1499               	.LBE308:
  57:LUFA-111009/LUFA/Drivers/USB/Core/AVR8/Template/Template_Endpoint_RW.c **** 			USB_USBTask();
 1500               		.loc 3 57 0
 1501 004a 0E94 0000 		call USB_USBTask
 1502               	.LVL153:
  60:LUFA-111009/LUFA/Drivers/USB/Core/AVR8/Template/Template_Endpoint_RW.c **** 			if (BytesProcessed != NULL)
 1503               		.loc 3 60 0
 1504 004e 2097      		sbiw r28,0
 1505 0050 01F0      		breq .L104
  62:LUFA-111009/LUFA/Drivers/USB/Core/AVR8/Template/Template_Endpoint_RW.c **** 				*BytesProcessed += BytesInTransfer;
 1506               		.loc 3 62 0
 1507 0052 8881      		ld r24,Y
 1508 0054 9981      		ldd r25,Y+1
 1509 0056 8C0D      		add r24,r12
 1510 0058 9D1D      		adc r25,r13
 1511 005a 9983      		std Y+1,r25
 1512 005c 8883      		st Y,r24
  63:LUFA-111009/LUFA/Drivers/USB/Core/AVR8/Template/Template_Endpoint_RW.c **** 				return ENDPOINT_RWSTREAM_IncompleteTransfer;
 1513               		.loc 3 63 0
 1514 005e E5E0      		ldi r30,lo8(5)
 1515 0060 BE2E      		mov r11,r30
 1516 0062 00C0      		rjmp .L100
 1517               	.L104:
  66:LUFA-111009/LUFA/Drivers/USB/Core/AVR8/Template/Template_Endpoint_RW.c **** 			if ((ErrorCode = Endpoint_WaitUntilReady()))
 1518               		.loc 3 66 0
 1519 0064 0E94 0000 		call Endpoint_WaitUntilReady
 1520               	.LVL154:
 1521 0068 8823      		tst r24
 1522 006a 01F0      		breq .L109
 1523 006c 00C0      		rjmp .L108
 1524               	.LVL155:
 1525               	.L103:
  71:LUFA-111009/LUFA/Drivers/USB/Core/AVR8/Template/Template_Endpoint_RW.c **** 			TEMPLATE_TRANSFER_BYTE(DataStream);
 1526               		.loc 3 71 0
 1527 006e C701      		movw r24,r14
 1528 0070 0E94 0000 		call __eerd_byte_m32u4
 1529               	.LVL156:
 1530               	.LBB310:
 1531               	.LBB311:
 624:LUFA-111009/LUFA/Drivers/USB/Core/AVR8/../AVR8/../AVR8/Endpoint_AVR8.h **** 				UEDATX = Data;
 1532               		.loc 2 624 0
 1533 0074 8093 F100 		sts 241,r24
 1534               	.LBE311:
 1535               	.LBE310:
  72:LUFA-111009/LUFA/Drivers/USB/Core/AVR8/Template/Template_Endpoint_RW.c **** 			TEMPLATE_BUFFER_MOVE(DataStream, 1);
 1536               		.loc 3 72 0
 1537 0078 8FEF      		ldi r24,-1
 1538 007a E81A      		sub r14,r24
 1539 007c F80A      		sbc r15,r24
 1540               	.LVL157:
  73:LUFA-111009/LUFA/Drivers/USB/Core/AVR8/Template/Template_Endpoint_RW.c **** 			Length--;
 1541               		.loc 3 73 0
 1542 007e 0150      		subi r16,1
 1543 0080 1109      		sbc r17,__zero_reg__
 1544               	.LVL158:
  74:LUFA-111009/LUFA/Drivers/USB/Core/AVR8/Template/Template_Endpoint_RW.c **** 			BytesInTransfer++;
 1545               		.loc 3 74 0
 1546 0082 8FEF      		ldi r24,-1
 1547 0084 C81A      		sub r12,r24
 1548 0086 D80A      		sbc r13,r24
 1549               	.LVL159:
 1550               	.L109:
  50:LUFA-111009/LUFA/Drivers/USB/Core/AVR8/Template/Template_Endpoint_RW.c **** 	while (Length)
 1551               		.loc 3 50 0 discriminator 1
 1552 0088 0115      		cp r16,__zero_reg__
 1553 008a 1105      		cpc r17,__zero_reg__
 1554 008c 01F4      		brne .L106
 1555 008e 00C0      		rjmp .L100
 1556               	.LVL160:
 1557               	.L108:
  66:LUFA-111009/LUFA/Drivers/USB/Core/AVR8/Template/Template_Endpoint_RW.c **** 			if ((ErrorCode = Endpoint_WaitUntilReady()))
 1558               		.loc 3 66 0
 1559 0090 B82E      		mov r11,r24
 1560               	.LVL161:
 1561               	.L100:
 1562               		.loc 3 79 0
 1563 0092 8B2D      		mov r24,r11
 1564               	/* epilogue start */
 1565 0094 DF91      		pop r29
 1566 0096 CF91      		pop r28
 1567               	.LVL162:
 1568 0098 1F91      		pop r17
 1569 009a 0F91      		pop r16
 1570               	.LVL163:
 1571 009c FF90      		pop r15
 1572 009e EF90      		pop r14
 1573               	.LVL164:
 1574 00a0 DF90      		pop r13
 1575 00a2 CF90      		pop r12
 1576 00a4 BF90      		pop r11
 1577 00a6 0895      		ret
 1578               		.cfi_endproc
 1579               	.LFE89:
 1581               		.section	.text.Endpoint_Write_EStream_BE,"ax",@progbits
 1582               	.global	Endpoint_Write_EStream_BE
 1584               	Endpoint_Write_EStream_BE:
 1585               	.LFB90:
  36:LUFA-111009/LUFA/Drivers/USB/Core/AVR8/Template/Template_Endpoint_RW.c **** {
 1586               		.loc 3 36 0
 1587               		.cfi_startproc
 1588               	.LVL165:
 1589 0000 BF92      		push r11
 1590               	.LCFI77:
 1591               		.cfi_def_cfa_offset 3
 1592               		.cfi_offset 11, -2
 1593 0002 CF92      		push r12
 1594               	.LCFI78:
 1595               		.cfi_def_cfa_offset 4
 1596               		.cfi_offset 12, -3
 1597 0004 DF92      		push r13
 1598               	.LCFI79:
 1599               		.cfi_def_cfa_offset 5
 1600               		.cfi_offset 13, -4
 1601 0006 EF92      		push r14
 1602               	.LCFI80:
 1603               		.cfi_def_cfa_offset 6
 1604               		.cfi_offset 14, -5
 1605 0008 FF92      		push r15
 1606               	.LCFI81:
 1607               		.cfi_def_cfa_offset 7
 1608               		.cfi_offset 15, -6
 1609 000a 0F93      		push r16
 1610               	.LCFI82:
 1611               		.cfi_def_cfa_offset 8
 1612               		.cfi_offset 16, -7
 1613 000c 1F93      		push r17
 1614               	.LCFI83:
 1615               		.cfi_def_cfa_offset 9
 1616               		.cfi_offset 17, -8
 1617 000e CF93      		push r28
 1618               	.LCFI84:
 1619               		.cfi_def_cfa_offset 10
 1620               		.cfi_offset 28, -9
 1621 0010 DF93      		push r29
 1622               	.LCFI85:
 1623               		.cfi_def_cfa_offset 11
 1624               		.cfi_offset 29, -10
 1625               	/* prologue: function */
 1626               	/* frame size = 0 */
 1627               	/* stack size = 9 */
 1628               	.L__stack_usage = 9
 1629 0012 6C01      		movw r12,r24
 1630 0014 8B01      		movw r16,r22
 1631 0016 7A01      		movw r14,r20
 1632               	.LVL166:
  41:LUFA-111009/LUFA/Drivers/USB/Core/AVR8/Template/Template_Endpoint_RW.c **** 	if ((ErrorCode = Endpoint_WaitUntilReady()))
 1633               		.loc 3 41 0
 1634 0018 0E94 0000 		call Endpoint_WaitUntilReady
 1635               	.LVL167:
 1636 001c B82E      		mov r11,r24
 1637               	.LVL168:
 1638 001e 8111      		cpse r24,__zero_reg__
 1639 0020 00C0      		rjmp .L111
  37:LUFA-111009/LUFA/Drivers/USB/Core/AVR8/Template/Template_Endpoint_RW.c **** 	uint8_t* DataStream      = ((uint8_t*)Buffer + TEMPLATE_BUFFER_OFFSET(Length));
 1640               		.loc 3 37 0
 1641 0022 E801      		movw r28,r16
 1642 0024 2197      		sbiw r28,1
 1643               	.LVL169:
 1644 0026 CC0D      		add r28,r12
 1645 0028 DD1D      		adc r29,r13
 1646               	.LVL170:
  44:LUFA-111009/LUFA/Drivers/USB/Core/AVR8/Template/Template_Endpoint_RW.c **** 	if (BytesProcessed != NULL)
 1647               		.loc 3 44 0
 1648 002a E114      		cp r14,__zero_reg__
 1649 002c F104      		cpc r15,__zero_reg__
 1650 002e 01F0      		breq .L112
  46:LUFA-111009/LUFA/Drivers/USB/Core/AVR8/Template/Template_Endpoint_RW.c **** 		Length -= *BytesProcessed;
 1651               		.loc 3 46 0
 1652 0030 F701      		movw r30,r14
 1653 0032 2081      		ld r18,Z
 1654 0034 3181      		ldd r19,Z+1
 1655 0036 021B      		sub r16,r18
 1656 0038 130B      		sbc r17,r19
 1657               	.LVL171:
  47:LUFA-111009/LUFA/Drivers/USB/Core/AVR8/Template/Template_Endpoint_RW.c **** 		TEMPLATE_BUFFER_MOVE(DataStream, *BytesProcessed);
 1658               		.loc 3 47 0
 1659 003a C21B      		sub r28,r18
 1660 003c D30B      		sbc r29,r19
 1661               	.LVL172:
 1662               	.L112:
  36:LUFA-111009/LUFA/Drivers/USB/Core/AVR8/Template/Template_Endpoint_RW.c **** {
 1663               		.loc 3 36 0 discriminator 1
 1664 003e C12C      		mov r12,__zero_reg__
 1665 0040 D12C      		mov r13,__zero_reg__
 1666               	.LVL173:
 1667 0042 00C0      		rjmp .L122
 1668               	.LVL174:
 1669               	.L117:
 1670               	.LBB312:
 1671               	.LBB313:
 420:LUFA-111009/LUFA/Drivers/USB/Core/AVR8/../AVR8/../AVR8/Endpoint_AVR8.h **** 				return ((UEINTX & (1 << RWAL)) ? true : false);
 1672               		.loc 2 420 0
 1673 0044 8091 E800 		lds r24,232
 1674               	.LBE313:
 1675               	.LBE312:
  52:LUFA-111009/LUFA/Drivers/USB/Core/AVR8/Template/Template_Endpoint_RW.c **** 		if (!(Endpoint_IsReadWriteAllowed()))
 1676               		.loc 3 52 0
 1677 0048 85FD      		sbrc r24,5
 1678 004a 00C0      		rjmp .L114
 1679               	.LBB314:
 1680               	.LBB315:
 516:LUFA-111009/LUFA/Drivers/USB/Core/AVR8/../AVR8/../AVR8/Endpoint_AVR8.h **** 					UEINTX &= ~((1 << TXINI) | (1 << FIFOCON));
 1681               		.loc 2 516 0
 1682 004c 8091 E800 		lds r24,232
 1683 0050 8E77      		andi r24,lo8(126)
 1684 0052 8093 E800 		sts 232,r24
 1685               	.LBE315:
 1686               	.LBE314:
  57:LUFA-111009/LUFA/Drivers/USB/Core/AVR8/Template/Template_Endpoint_RW.c **** 			USB_USBTask();
 1687               		.loc 3 57 0
 1688 0056 0E94 0000 		call USB_USBTask
 1689               	.LVL175:
  60:LUFA-111009/LUFA/Drivers/USB/Core/AVR8/Template/Template_Endpoint_RW.c **** 			if (BytesProcessed != NULL)
 1690               		.loc 3 60 0
 1691 005a E114      		cp r14,__zero_reg__
 1692 005c F104      		cpc r15,__zero_reg__
 1693 005e 01F0      		breq .L115
  62:LUFA-111009/LUFA/Drivers/USB/Core/AVR8/Template/Template_Endpoint_RW.c **** 				*BytesProcessed += BytesInTransfer;
 1694               		.loc 3 62 0
 1695 0060 F701      		movw r30,r14
 1696 0062 8081      		ld r24,Z
 1697 0064 9181      		ldd r25,Z+1
 1698 0066 8C0D      		add r24,r12
 1699 0068 9D1D      		adc r25,r13
 1700 006a 9183      		std Z+1,r25
 1701 006c 8083      		st Z,r24
  63:LUFA-111009/LUFA/Drivers/USB/Core/AVR8/Template/Template_Endpoint_RW.c **** 				return ENDPOINT_RWSTREAM_IncompleteTransfer;
 1702               		.loc 3 63 0
 1703 006e F5E0      		ldi r31,lo8(5)
 1704 0070 BF2E      		mov r11,r31
 1705 0072 00C0      		rjmp .L111
 1706               	.L115:
  66:LUFA-111009/LUFA/Drivers/USB/Core/AVR8/Template/Template_Endpoint_RW.c **** 			if ((ErrorCode = Endpoint_WaitUntilReady()))
 1707               		.loc 3 66 0
 1708 0074 0E94 0000 		call Endpoint_WaitUntilReady
 1709               	.LVL176:
 1710 0078 8823      		tst r24
 1711 007a 01F0      		breq .L122
 1712 007c 00C0      		rjmp .L118
 1713               	.LVL177:
 1714               	.L114:
  71:LUFA-111009/LUFA/Drivers/USB/Core/AVR8/Template/Template_Endpoint_RW.c **** 			TEMPLATE_TRANSFER_BYTE(DataStream);
 1715               		.loc 3 71 0
 1716 007e CE01      		movw r24,r28
 1717 0080 0E94 0000 		call __eerd_byte_m32u4
 1718               	.LVL178:
 1719               	.LBB316:
 1720               	.LBB317:
 624:LUFA-111009/LUFA/Drivers/USB/Core/AVR8/../AVR8/../AVR8/Endpoint_AVR8.h **** 				UEDATX = Data;
 1721               		.loc 2 624 0
 1722 0084 8093 F100 		sts 241,r24
 1723               	.LBE317:
 1724               	.LBE316:
  72:LUFA-111009/LUFA/Drivers/USB/Core/AVR8/Template/Template_Endpoint_RW.c **** 			TEMPLATE_BUFFER_MOVE(DataStream, 1);
 1725               		.loc 3 72 0
 1726 0088 2197      		sbiw r28,1
 1727               	.LVL179:
  73:LUFA-111009/LUFA/Drivers/USB/Core/AVR8/Template/Template_Endpoint_RW.c **** 			Length--;
 1728               		.loc 3 73 0
 1729 008a 0150      		subi r16,1
 1730 008c 1109      		sbc r17,__zero_reg__
 1731               	.LVL180:
  74:LUFA-111009/LUFA/Drivers/USB/Core/AVR8/Template/Template_Endpoint_RW.c **** 			BytesInTransfer++;
 1732               		.loc 3 74 0
 1733 008e FFEF      		ldi r31,-1
 1734 0090 CF1A      		sub r12,r31
 1735 0092 DF0A      		sbc r13,r31
 1736               	.LVL181:
 1737               	.L122:
  50:LUFA-111009/LUFA/Drivers/USB/Core/AVR8/Template/Template_Endpoint_RW.c **** 	while (Length)
 1738               		.loc 3 50 0 discriminator 1
 1739 0094 0115      		cp r16,__zero_reg__
 1740 0096 1105      		cpc r17,__zero_reg__
 1741 0098 01F4      		brne .L117
 1742 009a 00C0      		rjmp .L111
 1743               	.LVL182:
 1744               	.L118:
  66:LUFA-111009/LUFA/Drivers/USB/Core/AVR8/Template/Template_Endpoint_RW.c **** 			if ((ErrorCode = Endpoint_WaitUntilReady()))
 1745               		.loc 3 66 0
 1746 009c B82E      		mov r11,r24
 1747               	.LVL183:
 1748               	.L111:
 1749               		.loc 3 79 0
 1750 009e 8B2D      		mov r24,r11
 1751               	/* epilogue start */
 1752 00a0 DF91      		pop r29
 1753 00a2 CF91      		pop r28
 1754 00a4 1F91      		pop r17
 1755 00a6 0F91      		pop r16
 1756               	.LVL184:
 1757 00a8 FF90      		pop r15
 1758 00aa EF90      		pop r14
 1759               	.LVL185:
 1760 00ac DF90      		pop r13
 1761 00ae CF90      		pop r12
 1762 00b0 BF90      		pop r11
 1763 00b2 0895      		ret
 1764               		.cfi_endproc
 1765               	.LFE90:
 1767               		.section	.text.Endpoint_Read_EStream_LE,"ax",@progbits
 1768               	.global	Endpoint_Read_EStream_LE
 1770               	Endpoint_Read_EStream_LE:
 1771               	.LFB91:
  36:LUFA-111009/LUFA/Drivers/USB/Core/AVR8/Template/Template_Endpoint_RW.c **** {
 1772               		.loc 3 36 0
 1773               		.cfi_startproc
 1774               	.LVL186:
 1775 0000 BF92      		push r11
 1776               	.LCFI86:
 1777               		.cfi_def_cfa_offset 3
 1778               		.cfi_offset 11, -2
 1779 0002 CF92      		push r12
 1780               	.LCFI87:
 1781               		.cfi_def_cfa_offset 4
 1782               		.cfi_offset 12, -3
 1783 0004 DF92      		push r13
 1784               	.LCFI88:
 1785               		.cfi_def_cfa_offset 5
 1786               		.cfi_offset 13, -4
 1787 0006 EF92      		push r14
 1788               	.LCFI89:
 1789               		.cfi_def_cfa_offset 6
 1790               		.cfi_offset 14, -5
 1791 0008 FF92      		push r15
 1792               	.LCFI90:
 1793               		.cfi_def_cfa_offset 7
 1794               		.cfi_offset 15, -6
 1795 000a 0F93      		push r16
 1796               	.LCFI91:
 1797               		.cfi_def_cfa_offset 8
 1798               		.cfi_offset 16, -7
 1799 000c 1F93      		push r17
 1800               	.LCFI92:
 1801               		.cfi_def_cfa_offset 9
 1802               		.cfi_offset 17, -8
 1803 000e CF93      		push r28
 1804               	.LCFI93:
 1805               		.cfi_def_cfa_offset 10
 1806               		.cfi_offset 28, -9
 1807 0010 DF93      		push r29
 1808               	.LCFI94:
 1809               		.cfi_def_cfa_offset 11
 1810               		.cfi_offset 29, -10
 1811               	/* prologue: function */
 1812               	/* frame size = 0 */
 1813               	/* stack size = 9 */
 1814               	.L__stack_usage = 9
 1815 0012 7C01      		movw r14,r24
 1816 0014 EB01      		movw r28,r22
 1817 0016 8A01      		movw r16,r20
 1818               	.LVL187:
  41:LUFA-111009/LUFA/Drivers/USB/Core/AVR8/Template/Template_Endpoint_RW.c **** 	if ((ErrorCode = Endpoint_WaitUntilReady()))
 1819               		.loc 3 41 0
 1820 0018 0E94 0000 		call Endpoint_WaitUntilReady
 1821               	.LVL188:
 1822 001c B82E      		mov r11,r24
 1823               	.LVL189:
 1824 001e 8111      		cpse r24,__zero_reg__
 1825 0020 00C0      		rjmp .L124
  44:LUFA-111009/LUFA/Drivers/USB/Core/AVR8/Template/Template_Endpoint_RW.c **** 	if (BytesProcessed != NULL)
 1826               		.loc 3 44 0
 1827 0022 0115      		cp r16,__zero_reg__
 1828 0024 1105      		cpc r17,__zero_reg__
 1829 0026 01F0      		breq .L125
  46:LUFA-111009/LUFA/Drivers/USB/Core/AVR8/Template/Template_Endpoint_RW.c **** 		Length -= *BytesProcessed;
 1830               		.loc 3 46 0
 1831 0028 F801      		movw r30,r16
 1832 002a 2081      		ld r18,Z
 1833 002c 3181      		ldd r19,Z+1
 1834 002e C21B      		sub r28,r18
 1835 0030 D30B      		sbc r29,r19
 1836               	.LVL190:
  47:LUFA-111009/LUFA/Drivers/USB/Core/AVR8/Template/Template_Endpoint_RW.c **** 		TEMPLATE_BUFFER_MOVE(DataStream, *BytesProcessed);
 1837               		.loc 3 47 0
 1838 0032 E20E      		add r14,r18
 1839 0034 F31E      		adc r15,r19
 1840               	.LVL191:
 1841               	.L125:
  37:LUFA-111009/LUFA/Drivers/USB/Core/AVR8/Template/Template_Endpoint_RW.c **** 	uint8_t* DataStream      = ((uint8_t*)Buffer + TEMPLATE_BUFFER_OFFSET(Length));
 1842               		.loc 3 37 0 discriminator 1
 1843 0036 C12C      		mov r12,__zero_reg__
 1844 0038 D12C      		mov r13,__zero_reg__
 1845 003a 00C0      		rjmp .L133
 1846               	.LVL192:
 1847               	.L130:
 1848               	.LBB318:
 1849               	.LBB319:
 420:LUFA-111009/LUFA/Drivers/USB/Core/AVR8/../AVR8/../AVR8/Endpoint_AVR8.h **** 				return ((UEINTX & (1 << RWAL)) ? true : false);
 1850               		.loc 2 420 0
 1851 003c 8091 E800 		lds r24,232
 1852               	.LBE319:
 1853               	.LBE318:
  52:LUFA-111009/LUFA/Drivers/USB/Core/AVR8/Template/Template_Endpoint_RW.c **** 		if (!(Endpoint_IsReadWriteAllowed()))
 1854               		.loc 3 52 0
 1855 0040 85FD      		sbrc r24,5
 1856 0042 00C0      		rjmp .L127
 1857               	.LBB320:
 1858               	.LBB321:
 531:LUFA-111009/LUFA/Drivers/USB/Core/AVR8/../AVR8/../AVR8/Endpoint_AVR8.h **** 					UEINTX &= ~((1 << RXOUTI) | (1 << FIFOCON));
 1859               		.loc 2 531 0
 1860 0044 8091 E800 		lds r24,232
 1861 0048 8B77      		andi r24,lo8(123)
 1862 004a 8093 E800 		sts 232,r24
 1863               	.LBE321:
 1864               	.LBE320:
  57:LUFA-111009/LUFA/Drivers/USB/Core/AVR8/Template/Template_Endpoint_RW.c **** 			USB_USBTask();
 1865               		.loc 3 57 0
 1866 004e 0E94 0000 		call USB_USBTask
 1867               	.LVL193:
  60:LUFA-111009/LUFA/Drivers/USB/Core/AVR8/Template/Template_Endpoint_RW.c **** 			if (BytesProcessed != NULL)
 1868               		.loc 3 60 0
 1869 0052 0115      		cp r16,__zero_reg__
 1870 0054 1105      		cpc r17,__zero_reg__
 1871 0056 01F0      		breq .L128
  62:LUFA-111009/LUFA/Drivers/USB/Core/AVR8/Template/Template_Endpoint_RW.c **** 				*BytesProcessed += BytesInTransfer;
 1872               		.loc 3 62 0
 1873 0058 F801      		movw r30,r16
 1874 005a 8081      		ld r24,Z
 1875 005c 9181      		ldd r25,Z+1
 1876 005e 8C0D      		add r24,r12
 1877 0060 9D1D      		adc r25,r13
 1878 0062 9183      		std Z+1,r25
 1879 0064 8083      		st Z,r24
  63:LUFA-111009/LUFA/Drivers/USB/Core/AVR8/Template/Template_Endpoint_RW.c **** 				return ENDPOINT_RWSTREAM_IncompleteTransfer;
 1880               		.loc 3 63 0
 1881 0066 A5E0      		ldi r26,lo8(5)
 1882 0068 BA2E      		mov r11,r26
 1883 006a 00C0      		rjmp .L124
 1884               	.L128:
  66:LUFA-111009/LUFA/Drivers/USB/Core/AVR8/Template/Template_Endpoint_RW.c **** 			if ((ErrorCode = Endpoint_WaitUntilReady()))
 1885               		.loc 3 66 0
 1886 006c 0E94 0000 		call Endpoint_WaitUntilReady
 1887               	.LVL194:
 1888 0070 8823      		tst r24
 1889 0072 01F0      		breq .L133
 1890 0074 00C0      		rjmp .L132
 1891               	.LVL195:
 1892               	.L127:
 1893               	.LBB322:
 1894               	.LBB323:
 612:LUFA-111009/LUFA/Drivers/USB/Core/AVR8/../AVR8/../AVR8/Endpoint_AVR8.h **** 				return UEDATX;
 1895               		.loc 2 612 0
 1896 0076 6091 F100 		lds r22,241
 1897               	.LBE323:
 1898               	.LBE322:
  71:LUFA-111009/LUFA/Drivers/USB/Core/AVR8/Template/Template_Endpoint_RW.c **** 			TEMPLATE_TRANSFER_BYTE(DataStream);
 1899               		.loc 3 71 0
 1900 007a C701      		movw r24,r14
 1901 007c 0E94 0000 		call __eeupd_byte_m32u4
 1902               	.LVL196:
  72:LUFA-111009/LUFA/Drivers/USB/Core/AVR8/Template/Template_Endpoint_RW.c **** 			TEMPLATE_BUFFER_MOVE(DataStream, 1);
 1903               		.loc 3 72 0
 1904 0080 FFEF      		ldi r31,-1
 1905 0082 EF1A      		sub r14,r31
 1906 0084 FF0A      		sbc r15,r31
 1907               	.LVL197:
  73:LUFA-111009/LUFA/Drivers/USB/Core/AVR8/Template/Template_Endpoint_RW.c **** 			Length--;
 1908               		.loc 3 73 0
 1909 0086 2197      		sbiw r28,1
 1910               	.LVL198:
  74:LUFA-111009/LUFA/Drivers/USB/Core/AVR8/Template/Template_Endpoint_RW.c **** 			BytesInTransfer++;
 1911               		.loc 3 74 0
 1912 0088 8FEF      		ldi r24,-1
 1913 008a C81A      		sub r12,r24
 1914 008c D80A      		sbc r13,r24
 1915               	.LVL199:
 1916               	.L133:
  50:LUFA-111009/LUFA/Drivers/USB/Core/AVR8/Template/Template_Endpoint_RW.c **** 	while (Length)
 1917               		.loc 3 50 0 discriminator 1
 1918 008e 2097      		sbiw r28,0
 1919 0090 01F4      		brne .L130
 1920 0092 00C0      		rjmp .L124
 1921               	.LVL200:
 1922               	.L132:
  66:LUFA-111009/LUFA/Drivers/USB/Core/AVR8/Template/Template_Endpoint_RW.c **** 			if ((ErrorCode = Endpoint_WaitUntilReady()))
 1923               		.loc 3 66 0
 1924 0094 B82E      		mov r11,r24
 1925               	.LVL201:
 1926               	.L124:
 1927               		.loc 3 79 0
 1928 0096 8B2D      		mov r24,r11
 1929               	/* epilogue start */
 1930 0098 DF91      		pop r29
 1931 009a CF91      		pop r28
 1932               	.LVL202:
 1933 009c 1F91      		pop r17
 1934 009e 0F91      		pop r16
 1935               	.LVL203:
 1936 00a0 FF90      		pop r15
 1937 00a2 EF90      		pop r14
 1938               	.LVL204:
 1939 00a4 DF90      		pop r13
 1940 00a6 CF90      		pop r12
 1941 00a8 BF90      		pop r11
 1942 00aa 0895      		ret
 1943               		.cfi_endproc
 1944               	.LFE91:
 1946               		.section	.text.Endpoint_Read_EStream_BE,"ax",@progbits
 1947               	.global	Endpoint_Read_EStream_BE
 1949               	Endpoint_Read_EStream_BE:
 1950               	.LFB92:
  36:LUFA-111009/LUFA/Drivers/USB/Core/AVR8/Template/Template_Endpoint_RW.c **** {
 1951               		.loc 3 36 0
 1952               		.cfi_startproc
 1953               	.LVL205:
 1954 0000 BF92      		push r11
 1955               	.LCFI95:
 1956               		.cfi_def_cfa_offset 3
 1957               		.cfi_offset 11, -2
 1958 0002 CF92      		push r12
 1959               	.LCFI96:
 1960               		.cfi_def_cfa_offset 4
 1961               		.cfi_offset 12, -3
 1962 0004 DF92      		push r13
 1963               	.LCFI97:
 1964               		.cfi_def_cfa_offset 5
 1965               		.cfi_offset 13, -4
 1966 0006 EF92      		push r14
 1967               	.LCFI98:
 1968               		.cfi_def_cfa_offset 6
 1969               		.cfi_offset 14, -5
 1970 0008 FF92      		push r15
 1971               	.LCFI99:
 1972               		.cfi_def_cfa_offset 7
 1973               		.cfi_offset 15, -6
 1974 000a 0F93      		push r16
 1975               	.LCFI100:
 1976               		.cfi_def_cfa_offset 8
 1977               		.cfi_offset 16, -7
 1978 000c 1F93      		push r17
 1979               	.LCFI101:
 1980               		.cfi_def_cfa_offset 9
 1981               		.cfi_offset 17, -8
 1982 000e CF93      		push r28
 1983               	.LCFI102:
 1984               		.cfi_def_cfa_offset 10
 1985               		.cfi_offset 28, -9
 1986 0010 DF93      		push r29
 1987               	.LCFI103:
 1988               		.cfi_def_cfa_offset 11
 1989               		.cfi_offset 29, -10
 1990               	/* prologue: function */
 1991               	/* frame size = 0 */
 1992               	/* stack size = 9 */
 1993               	.L__stack_usage = 9
 1994 0012 6C01      		movw r12,r24
 1995 0014 8B01      		movw r16,r22
 1996 0016 7A01      		movw r14,r20
 1997               	.LVL206:
  41:LUFA-111009/LUFA/Drivers/USB/Core/AVR8/Template/Template_Endpoint_RW.c **** 	if ((ErrorCode = Endpoint_WaitUntilReady()))
 1998               		.loc 3 41 0
 1999 0018 0E94 0000 		call Endpoint_WaitUntilReady
 2000               	.LVL207:
 2001 001c B82E      		mov r11,r24
 2002               	.LVL208:
 2003 001e 8111      		cpse r24,__zero_reg__
 2004 0020 00C0      		rjmp .L135
  37:LUFA-111009/LUFA/Drivers/USB/Core/AVR8/Template/Template_Endpoint_RW.c **** 	uint8_t* DataStream      = ((uint8_t*)Buffer + TEMPLATE_BUFFER_OFFSET(Length));
 2005               		.loc 3 37 0
 2006 0022 E801      		movw r28,r16
 2007 0024 2197      		sbiw r28,1
 2008               	.LVL209:
 2009 0026 CC0D      		add r28,r12
 2010 0028 DD1D      		adc r29,r13
 2011               	.LVL210:
  44:LUFA-111009/LUFA/Drivers/USB/Core/AVR8/Template/Template_Endpoint_RW.c **** 	if (BytesProcessed != NULL)
 2012               		.loc 3 44 0
 2013 002a E114      		cp r14,__zero_reg__
 2014 002c F104      		cpc r15,__zero_reg__
 2015 002e 01F0      		breq .L136
  46:LUFA-111009/LUFA/Drivers/USB/Core/AVR8/Template/Template_Endpoint_RW.c **** 		Length -= *BytesProcessed;
 2016               		.loc 3 46 0
 2017 0030 F701      		movw r30,r14
 2018 0032 2081      		ld r18,Z
 2019 0034 3181      		ldd r19,Z+1
 2020 0036 021B      		sub r16,r18
 2021 0038 130B      		sbc r17,r19
 2022               	.LVL211:
  47:LUFA-111009/LUFA/Drivers/USB/Core/AVR8/Template/Template_Endpoint_RW.c **** 		TEMPLATE_BUFFER_MOVE(DataStream, *BytesProcessed);
 2023               		.loc 3 47 0
 2024 003a C21B      		sub r28,r18
 2025 003c D30B      		sbc r29,r19
 2026               	.LVL212:
 2027               	.L136:
  36:LUFA-111009/LUFA/Drivers/USB/Core/AVR8/Template/Template_Endpoint_RW.c **** {
 2028               		.loc 3 36 0 discriminator 1
 2029 003e C12C      		mov r12,__zero_reg__
 2030 0040 D12C      		mov r13,__zero_reg__
 2031               	.LVL213:
 2032 0042 00C0      		rjmp .L146
 2033               	.LVL214:
 2034               	.L141:
 2035               	.LBB324:
 2036               	.LBB325:
 420:LUFA-111009/LUFA/Drivers/USB/Core/AVR8/../AVR8/../AVR8/Endpoint_AVR8.h **** 				return ((UEINTX & (1 << RWAL)) ? true : false);
 2037               		.loc 2 420 0
 2038 0044 8091 E800 		lds r24,232
 2039               	.LBE325:
 2040               	.LBE324:
  52:LUFA-111009/LUFA/Drivers/USB/Core/AVR8/Template/Template_Endpoint_RW.c **** 		if (!(Endpoint_IsReadWriteAllowed()))
 2041               		.loc 3 52 0
 2042 0048 85FD      		sbrc r24,5
 2043 004a 00C0      		rjmp .L138
 2044               	.LBB326:
 2045               	.LBB327:
 531:LUFA-111009/LUFA/Drivers/USB/Core/AVR8/../AVR8/../AVR8/Endpoint_AVR8.h **** 					UEINTX &= ~((1 << RXOUTI) | (1 << FIFOCON));
 2046               		.loc 2 531 0
 2047 004c 8091 E800 		lds r24,232
 2048 0050 8B77      		andi r24,lo8(123)
 2049 0052 8093 E800 		sts 232,r24
 2050               	.LBE327:
 2051               	.LBE326:
  57:LUFA-111009/LUFA/Drivers/USB/Core/AVR8/Template/Template_Endpoint_RW.c **** 			USB_USBTask();
 2052               		.loc 3 57 0
 2053 0056 0E94 0000 		call USB_USBTask
 2054               	.LVL215:
  60:LUFA-111009/LUFA/Drivers/USB/Core/AVR8/Template/Template_Endpoint_RW.c **** 			if (BytesProcessed != NULL)
 2055               		.loc 3 60 0
 2056 005a E114      		cp r14,__zero_reg__
 2057 005c F104      		cpc r15,__zero_reg__
 2058 005e 01F0      		breq .L139
  62:LUFA-111009/LUFA/Drivers/USB/Core/AVR8/Template/Template_Endpoint_RW.c **** 				*BytesProcessed += BytesInTransfer;
 2059               		.loc 3 62 0
 2060 0060 F701      		movw r30,r14
 2061 0062 8081      		ld r24,Z
 2062 0064 9181      		ldd r25,Z+1
 2063 0066 8C0D      		add r24,r12
 2064 0068 9D1D      		adc r25,r13
 2065 006a 9183      		std Z+1,r25
 2066 006c 8083      		st Z,r24
  63:LUFA-111009/LUFA/Drivers/USB/Core/AVR8/Template/Template_Endpoint_RW.c **** 				return ENDPOINT_RWSTREAM_IncompleteTransfer;
 2067               		.loc 3 63 0
 2068 006e B5E0      		ldi r27,lo8(5)
 2069 0070 BB2E      		mov r11,r27
 2070 0072 00C0      		rjmp .L135
 2071               	.L139:
  66:LUFA-111009/LUFA/Drivers/USB/Core/AVR8/Template/Template_Endpoint_RW.c **** 			if ((ErrorCode = Endpoint_WaitUntilReady()))
 2072               		.loc 3 66 0
 2073 0074 0E94 0000 		call Endpoint_WaitUntilReady
 2074               	.LVL216:
 2075 0078 8823      		tst r24
 2076 007a 01F0      		breq .L146
 2077 007c 00C0      		rjmp .L142
 2078               	.LVL217:
 2079               	.L138:
 2080               	.LBB328:
 2081               	.LBB329:
 612:LUFA-111009/LUFA/Drivers/USB/Core/AVR8/../AVR8/../AVR8/Endpoint_AVR8.h **** 				return UEDATX;
 2082               		.loc 2 612 0
 2083 007e 6091 F100 		lds r22,241
 2084               	.LBE329:
 2085               	.LBE328:
  71:LUFA-111009/LUFA/Drivers/USB/Core/AVR8/Template/Template_Endpoint_RW.c **** 			TEMPLATE_TRANSFER_BYTE(DataStream);
 2086               		.loc 3 71 0
 2087 0082 CE01      		movw r24,r28
 2088 0084 0E94 0000 		call __eeupd_byte_m32u4
 2089               	.LVL218:
  72:LUFA-111009/LUFA/Drivers/USB/Core/AVR8/Template/Template_Endpoint_RW.c **** 			TEMPLATE_BUFFER_MOVE(DataStream, 1);
 2090               		.loc 3 72 0
 2091 0088 2197      		sbiw r28,1
 2092               	.LVL219:
  73:LUFA-111009/LUFA/Drivers/USB/Core/AVR8/Template/Template_Endpoint_RW.c **** 			Length--;
 2093               		.loc 3 73 0
 2094 008a 0150      		subi r16,1
 2095 008c 1109      		sbc r17,__zero_reg__
 2096               	.LVL220:
  74:LUFA-111009/LUFA/Drivers/USB/Core/AVR8/Template/Template_Endpoint_RW.c **** 			BytesInTransfer++;
 2097               		.loc 3 74 0
 2098 008e FFEF      		ldi r31,-1
 2099 0090 CF1A      		sub r12,r31
 2100 0092 DF0A      		sbc r13,r31
 2101               	.LVL221:
 2102               	.L146:
  50:LUFA-111009/LUFA/Drivers/USB/Core/AVR8/Template/Template_Endpoint_RW.c **** 	while (Length)
 2103               		.loc 3 50 0 discriminator 1
 2104 0094 0115      		cp r16,__zero_reg__
 2105 0096 1105      		cpc r17,__zero_reg__
 2106 0098 01F4      		brne .L141
 2107 009a 00C0      		rjmp .L135
 2108               	.LVL222:
 2109               	.L142:
  66:LUFA-111009/LUFA/Drivers/USB/Core/AVR8/Template/Template_Endpoint_RW.c **** 			if ((ErrorCode = Endpoint_WaitUntilReady()))
 2110               		.loc 3 66 0
 2111 009c B82E      		mov r11,r24
 2112               	.LVL223:
 2113               	.L135:
 2114               		.loc 3 79 0
 2115 009e 8B2D      		mov r24,r11
 2116               	/* epilogue start */
 2117 00a0 DF91      		pop r29
 2118 00a2 CF91      		pop r28
 2119 00a4 1F91      		pop r17
 2120 00a6 0F91      		pop r16
 2121               	.LVL224:
 2122 00a8 FF90      		pop r15
 2123 00aa EF90      		pop r14
 2124               	.LVL225:
 2125 00ac DF90      		pop r13
 2126 00ae CF90      		pop r12
 2127 00b0 BF90      		pop r11
 2128 00b2 0895      		ret
 2129               		.cfi_endproc
 2130               	.LFE92:
 2132               		.section	.text.Endpoint_Write_Control_Stream_LE,"ax",@progbits
 2133               	.global	Endpoint_Write_Control_Stream_LE
 2135               	Endpoint_Write_Control_Stream_LE:
 2136               	.LFB93:
 2137               		.file 4 "LUFA-111009/LUFA/Drivers/USB/Core/AVR8/Template/Template_Endpoint_Control_W.c"
   1:LUFA-111009/LUFA/Drivers/USB/Core/AVR8/Template/Template_Endpoint_Control_W.c **** /*
   2:LUFA-111009/LUFA/Drivers/USB/Core/AVR8/Template/Template_Endpoint_Control_W.c ****              LUFA Library
   3:LUFA-111009/LUFA/Drivers/USB/Core/AVR8/Template/Template_Endpoint_Control_W.c ****      Copyright (C) Dean Camera, 2011.
   4:LUFA-111009/LUFA/Drivers/USB/Core/AVR8/Template/Template_Endpoint_Control_W.c **** 
   5:LUFA-111009/LUFA/Drivers/USB/Core/AVR8/Template/Template_Endpoint_Control_W.c ****   dean [at] fourwalledcubicle [dot] com
   6:LUFA-111009/LUFA/Drivers/USB/Core/AVR8/Template/Template_Endpoint_Control_W.c ****            www.lufa-lib.org
   7:LUFA-111009/LUFA/Drivers/USB/Core/AVR8/Template/Template_Endpoint_Control_W.c **** */
   8:LUFA-111009/LUFA/Drivers/USB/Core/AVR8/Template/Template_Endpoint_Control_W.c **** 
   9:LUFA-111009/LUFA/Drivers/USB/Core/AVR8/Template/Template_Endpoint_Control_W.c **** /*
  10:LUFA-111009/LUFA/Drivers/USB/Core/AVR8/Template/Template_Endpoint_Control_W.c ****   Copyright 2011  Dean Camera (dean [at] fourwalledcubicle [dot] com)
  11:LUFA-111009/LUFA/Drivers/USB/Core/AVR8/Template/Template_Endpoint_Control_W.c **** 
  12:LUFA-111009/LUFA/Drivers/USB/Core/AVR8/Template/Template_Endpoint_Control_W.c ****   Permission to use, copy, modify, distribute, and sell this
  13:LUFA-111009/LUFA/Drivers/USB/Core/AVR8/Template/Template_Endpoint_Control_W.c ****   software and its documentation for any purpose is hereby granted
  14:LUFA-111009/LUFA/Drivers/USB/Core/AVR8/Template/Template_Endpoint_Control_W.c ****   without fee, provided that the above copyright notice appear in
  15:LUFA-111009/LUFA/Drivers/USB/Core/AVR8/Template/Template_Endpoint_Control_W.c ****   all copies and that both that the copyright notice and this
  16:LUFA-111009/LUFA/Drivers/USB/Core/AVR8/Template/Template_Endpoint_Control_W.c ****   permission notice and warranty disclaimer appear in supporting
  17:LUFA-111009/LUFA/Drivers/USB/Core/AVR8/Template/Template_Endpoint_Control_W.c ****   documentation, and that the name of the author not be used in
  18:LUFA-111009/LUFA/Drivers/USB/Core/AVR8/Template/Template_Endpoint_Control_W.c ****   advertising or publicity pertaining to distribution of the
  19:LUFA-111009/LUFA/Drivers/USB/Core/AVR8/Template/Template_Endpoint_Control_W.c ****   software without specific, written prior permission.
  20:LUFA-111009/LUFA/Drivers/USB/Core/AVR8/Template/Template_Endpoint_Control_W.c **** 
  21:LUFA-111009/LUFA/Drivers/USB/Core/AVR8/Template/Template_Endpoint_Control_W.c ****   The author disclaim all warranties with regard to this
  22:LUFA-111009/LUFA/Drivers/USB/Core/AVR8/Template/Template_Endpoint_Control_W.c ****   software, including all implied warranties of merchantability
  23:LUFA-111009/LUFA/Drivers/USB/Core/AVR8/Template/Template_Endpoint_Control_W.c ****   and fitness.  In no event shall the author be liable for any
  24:LUFA-111009/LUFA/Drivers/USB/Core/AVR8/Template/Template_Endpoint_Control_W.c ****   special, indirect or consequential damages or any damages
  25:LUFA-111009/LUFA/Drivers/USB/Core/AVR8/Template/Template_Endpoint_Control_W.c ****   whatsoever resulting from loss of use, data or profits, whether
  26:LUFA-111009/LUFA/Drivers/USB/Core/AVR8/Template/Template_Endpoint_Control_W.c ****   in an action of contract, negligence or other tortious action,
  27:LUFA-111009/LUFA/Drivers/USB/Core/AVR8/Template/Template_Endpoint_Control_W.c ****   arising out of or in connection with the use or performance of
  28:LUFA-111009/LUFA/Drivers/USB/Core/AVR8/Template/Template_Endpoint_Control_W.c ****   this software.
  29:LUFA-111009/LUFA/Drivers/USB/Core/AVR8/Template/Template_Endpoint_Control_W.c **** */
  30:LUFA-111009/LUFA/Drivers/USB/Core/AVR8/Template/Template_Endpoint_Control_W.c **** 
  31:LUFA-111009/LUFA/Drivers/USB/Core/AVR8/Template/Template_Endpoint_Control_W.c **** #if defined(TEMPLATE_FUNC_NAME)
  32:LUFA-111009/LUFA/Drivers/USB/Core/AVR8/Template/Template_Endpoint_Control_W.c **** 
  33:LUFA-111009/LUFA/Drivers/USB/Core/AVR8/Template/Template_Endpoint_Control_W.c **** uint8_t TEMPLATE_FUNC_NAME (const void* const Buffer,
  34:LUFA-111009/LUFA/Drivers/USB/Core/AVR8/Template/Template_Endpoint_Control_W.c ****                             uint16_t Length)
  35:LUFA-111009/LUFA/Drivers/USB/Core/AVR8/Template/Template_Endpoint_Control_W.c **** {
 2138               		.loc 4 35 0
 2139               		.cfi_startproc
 2140               	.LVL226:
 2141               	/* prologue: function */
 2142               	/* frame size = 0 */
 2143               	/* stack size = 0 */
 2144               	.L__stack_usage = 0
  36:LUFA-111009/LUFA/Drivers/USB/Core/AVR8/Template/Template_Endpoint_Control_W.c **** 	uint8_t* DataStream     = ((uint8_t*)Buffer + TEMPLATE_BUFFER_OFFSET(Length));
  37:LUFA-111009/LUFA/Drivers/USB/Core/AVR8/Template/Template_Endpoint_Control_W.c **** 	bool     LastPacketFull = false;
  38:LUFA-111009/LUFA/Drivers/USB/Core/AVR8/Template/Template_Endpoint_Control_W.c **** 
  39:LUFA-111009/LUFA/Drivers/USB/Core/AVR8/Template/Template_Endpoint_Control_W.c **** 	if (Length > USB_ControlRequest.wLength)
 2145               		.loc 4 39 0
 2146 0000 4091 0000 		lds r20,USB_ControlRequest+6
 2147 0004 5091 0000 		lds r21,USB_ControlRequest+6+1
 2148 0008 4617      		cp r20,r22
 2149 000a 5707      		cpc r21,r23
 2150 000c 00F0      		brlo .L159
  40:LUFA-111009/LUFA/Drivers/USB/Core/AVR8/Template/Template_Endpoint_Control_W.c **** 	  Length = USB_ControlRequest.wLength;
  41:LUFA-111009/LUFA/Drivers/USB/Core/AVR8/Template/Template_Endpoint_Control_W.c **** 	else if (!(Length))
 2151               		.loc 4 41 0
 2152 000e 6115      		cp r22,__zero_reg__
 2153 0010 7105      		cpc r23,__zero_reg__
 2154 0012 01F4      		brne .L148
 2155               	.LBB330:
 2156               	.LBB331:
 516:LUFA-111009/LUFA/Drivers/USB/Core/AVR8/../AVR8/../AVR8/Endpoint_AVR8.h **** 					UEINTX &= ~((1 << TXINI) | (1 << FIFOCON));
 2157               		.loc 2 516 0
 2158 0014 4091 E800 		lds r20,232
 2159 0018 4E77      		andi r20,lo8(126)
 2160 001a 4093 E800 		sts 232,r20
 2161 001e 00C0      		rjmp .L148
 2162               	.L159:
 2163               	.LBE331:
 2164               	.LBE330:
  39:LUFA-111009/LUFA/Drivers/USB/Core/AVR8/Template/Template_Endpoint_Control_W.c **** 	if (Length > USB_ControlRequest.wLength)
 2165               		.loc 4 39 0
 2166 0020 BA01      		movw r22,r20
 2167               	.LVL227:
 2168               	.L148:
  39:LUFA-111009/LUFA/Drivers/USB/Core/AVR8/Template/Template_Endpoint_Control_W.c **** 	if (Length > USB_ControlRequest.wLength)
 2169               		.loc 4 39 0 is_stmt 0 discriminator 1
 2170 0022 FC01      		movw r30,r24
 2171 0024 40E0      		ldi r20,0
 2172 0026 00C0      		rjmp .L177
 2173               	.LVL228:
 2174               	.L157:
 2175               	.LBB332:
  42:LUFA-111009/LUFA/Drivers/USB/Core/AVR8/Template/Template_Endpoint_Control_W.c **** 	  Endpoint_ClearIN();
  43:LUFA-111009/LUFA/Drivers/USB/Core/AVR8/Template/Template_Endpoint_Control_W.c **** 
  44:LUFA-111009/LUFA/Drivers/USB/Core/AVR8/Template/Template_Endpoint_Control_W.c **** 	while (Length || LastPacketFull)
  45:LUFA-111009/LUFA/Drivers/USB/Core/AVR8/Template/Template_Endpoint_Control_W.c **** 	{
  46:LUFA-111009/LUFA/Drivers/USB/Core/AVR8/Template/Template_Endpoint_Control_W.c **** 		uint8_t USB_DeviceState_LCL = USB_DeviceState;
 2176               		.loc 4 46 0 is_stmt 1
 2177 0028 8EB3      		in r24,0x1e
 2178               	.LVL229:
  47:LUFA-111009/LUFA/Drivers/USB/Core/AVR8/Template/Template_Endpoint_Control_W.c **** 
  48:LUFA-111009/LUFA/Drivers/USB/Core/AVR8/Template/Template_Endpoint_Control_W.c **** 		if (USB_DeviceState_LCL == DEVICE_STATE_Unattached)
 2179               		.loc 4 48 0
 2180 002a 8823      		tst r24
 2181 002c 01F4      		brne .+2
 2182 002e 00C0      		rjmp .L163
  49:LUFA-111009/LUFA/Drivers/USB/Core/AVR8/Template/Template_Endpoint_Control_W.c **** 		  return ENDPOINT_RWCSTREAM_DeviceDisconnected;
  50:LUFA-111009/LUFA/Drivers/USB/Core/AVR8/Template/Template_Endpoint_Control_W.c **** 		else if (USB_DeviceState_LCL == DEVICE_STATE_Suspended)
 2183               		.loc 4 50 0
 2184 0030 8530      		cpi r24,lo8(5)
 2185 0032 01F4      		brne .+2
 2186 0034 00C0      		rjmp .L164
 2187               	.LBB333:
 2188               	.LBB334:
 491:LUFA-111009/LUFA/Drivers/USB/Core/AVR8/../AVR8/../AVR8/Endpoint_AVR8.h **** 				return ((UEINTX & (1 << RXSTPI)) ? true : false);
 2189               		.loc 2 491 0
 2190 0036 8091 E800 		lds r24,232
 2191               	.LVL230:
 2192               	.LBE334:
 2193               	.LBE333:
  51:LUFA-111009/LUFA/Drivers/USB/Core/AVR8/Template/Template_Endpoint_Control_W.c **** 		  return ENDPOINT_RWCSTREAM_BusSuspended;
  52:LUFA-111009/LUFA/Drivers/USB/Core/AVR8/Template/Template_Endpoint_Control_W.c **** 		else if (Endpoint_IsSETUPReceived())
 2194               		.loc 4 52 0
 2195 003a 83FD      		sbrc r24,3
 2196 003c 00C0      		rjmp .L162
 2197               	.LBB335:
 2198               	.LBB336:
 479:LUFA-111009/LUFA/Drivers/USB/Core/AVR8/../AVR8/../AVR8/Endpoint_AVR8.h **** 				return ((UEINTX & (1 << RXOUTI)) ? true : false);
 2199               		.loc 2 479 0
 2200 003e 8091 E800 		lds r24,232
 2201               	.LBE336:
 2202               	.LBE335:
  53:LUFA-111009/LUFA/Drivers/USB/Core/AVR8/Template/Template_Endpoint_Control_W.c **** 		  return ENDPOINT_RWCSTREAM_HostAborted;
  54:LUFA-111009/LUFA/Drivers/USB/Core/AVR8/Template/Template_Endpoint_Control_W.c **** 		else if (Endpoint_IsOUTReceived())
 2203               		.loc 4 54 0
 2204 0042 82FD      		sbrc r24,2
 2205 0044 00C0      		rjmp .L172
 2206               	.LBB337:
 2207               	.LBB338:
 467:LUFA-111009/LUFA/Drivers/USB/Core/AVR8/../AVR8/../AVR8/Endpoint_AVR8.h **** 				return ((UEINTX & (1 << TXINI)) ? true : false);
 2208               		.loc 2 467 0
 2209 0046 8091 E800 		lds r24,232
 2210               	.LBE338:
 2211               	.LBE337:
  55:LUFA-111009/LUFA/Drivers/USB/Core/AVR8/Template/Template_Endpoint_Control_W.c **** 		  break;
  56:LUFA-111009/LUFA/Drivers/USB/Core/AVR8/Template/Template_Endpoint_Control_W.c **** 
  57:LUFA-111009/LUFA/Drivers/USB/Core/AVR8/Template/Template_Endpoint_Control_W.c **** 		if (Endpoint_IsINReady())
 2212               		.loc 4 57 0
 2213 004a 80FF      		sbrs r24,0
 2214 004c 00C0      		rjmp .L177
 2215               	.LBB339:
 2216               	.LBB340:
 2217               	.LBB341:
 295:LUFA-111009/LUFA/Drivers/USB/Core/AVR8/../AVR8/../AVR8/Endpoint_AVR8.h **** 					return (((uint16_t)UEBCHX << 8) | UEBCLX);
 2218               		.loc 2 295 0
 2219 004e 9091 F300 		lds r25,243
 2220 0052 8091 F200 		lds r24,242
 2221 0056 392F      		mov r19,r25
 2222 0058 20E0      		ldi r18,0
 2223 005a A901      		movw r20,r18
 2224               	.LVL231:
 2225 005c 482B      		or r20,r24
 2226 005e CA01      		movw r24,r20
 2227               	.LBE341:
 2228               	.LBE340:
  58:LUFA-111009/LUFA/Drivers/USB/Core/AVR8/Template/Template_Endpoint_Control_W.c **** 		{
  59:LUFA-111009/LUFA/Drivers/USB/Core/AVR8/Template/Template_Endpoint_Control_W.c **** 			uint16_t BytesInEndpoint = Endpoint_BytesInEndpoint();
  60:LUFA-111009/LUFA/Drivers/USB/Core/AVR8/Template/Template_Endpoint_Control_W.c **** 
  61:LUFA-111009/LUFA/Drivers/USB/Core/AVR8/Template/Template_Endpoint_Control_W.c **** 			while (Length && (BytesInEndpoint < USB_Device_ControlEndpointSize))
 2229               		.loc 4 61 0
 2230 0060 00C0      		rjmp .L153
 2231               	.LVL232:
 2232               	.L155:
  62:LUFA-111009/LUFA/Drivers/USB/Core/AVR8/Template/Template_Endpoint_Control_W.c **** 			{
  63:LUFA-111009/LUFA/Drivers/USB/Core/AVR8/Template/Template_Endpoint_Control_W.c **** 				TEMPLATE_TRANSFER_BYTE(DataStream);
 2233               		.loc 4 63 0
 2234 0062 4191      		ld r20,Z+
 2235               	.LVL233:
 2236               	.LBB342:
 2237               	.LBB343:
 624:LUFA-111009/LUFA/Drivers/USB/Core/AVR8/../AVR8/../AVR8/Endpoint_AVR8.h **** 				UEDATX = Data;
 2238               		.loc 2 624 0
 2239 0064 4093 F100 		sts 241,r20
 2240               	.LVL234:
 2241               	.LBE343:
 2242               	.LBE342:
  64:LUFA-111009/LUFA/Drivers/USB/Core/AVR8/Template/Template_Endpoint_Control_W.c **** 				TEMPLATE_BUFFER_MOVE(DataStream, 1);
  65:LUFA-111009/LUFA/Drivers/USB/Core/AVR8/Template/Template_Endpoint_Control_W.c **** 				Length--;
 2243               		.loc 4 65 0
 2244 0068 6150      		subi r22,1
 2245 006a 7109      		sbc r23,__zero_reg__
 2246               	.LVL235:
  66:LUFA-111009/LUFA/Drivers/USB/Core/AVR8/Template/Template_Endpoint_Control_W.c **** 				BytesInEndpoint++;
 2247               		.loc 4 66 0
 2248 006c 0196      		adiw r24,1
 2249               	.LVL236:
 2250               	.L153:
  61:LUFA-111009/LUFA/Drivers/USB/Core/AVR8/Template/Template_Endpoint_Control_W.c **** 			while (Length && (BytesInEndpoint < USB_Device_ControlEndpointSize))
 2251               		.loc 4 61 0 discriminator 1
 2252 006e 6115      		cp r22,__zero_reg__
 2253 0070 7105      		cpc r23,__zero_reg__
 2254 0072 01F0      		breq .L154
  61:LUFA-111009/LUFA/Drivers/USB/Core/AVR8/Template/Template_Endpoint_Control_W.c **** 			while (Length && (BytesInEndpoint < USB_Device_ControlEndpointSize))
 2255               		.loc 4 61 0 is_stmt 0 discriminator 2
 2256 0074 8830      		cpi r24,8
 2257 0076 9105      		cpc r25,__zero_reg__
 2258 0078 00F0      		brlo .L155
 2259               	.L154:
  67:LUFA-111009/LUFA/Drivers/USB/Core/AVR8/Template/Template_Endpoint_Control_W.c **** 			}
  68:LUFA-111009/LUFA/Drivers/USB/Core/AVR8/Template/Template_Endpoint_Control_W.c **** 
  69:LUFA-111009/LUFA/Drivers/USB/Core/AVR8/Template/Template_Endpoint_Control_W.c **** 			LastPacketFull = (BytesInEndpoint == USB_Device_ControlEndpointSize);
 2260               		.loc 4 69 0 is_stmt 1
 2261 007a 41E0      		ldi r20,lo8(1)
 2262 007c 0897      		sbiw r24,8
 2263 007e 01F0      		breq .L156
 2264 0080 40E0      		ldi r20,0
 2265               	.L156:
 2266               	.LVL237:
 2267               	.LBB344:
 2268               	.LBB345:
 516:LUFA-111009/LUFA/Drivers/USB/Core/AVR8/../AVR8/../AVR8/Endpoint_AVR8.h **** 					UEINTX &= ~((1 << TXINI) | (1 << FIFOCON));
 2269               		.loc 2 516 0
 2270 0082 8091 E800 		lds r24,232
 2271               	.LVL238:
 2272 0086 8E77      		andi r24,lo8(126)
 2273 0088 8093 E800 		sts 232,r24
 2274               	.LVL239:
 2275               	.L177:
 2276               	.LBE345:
 2277               	.LBE344:
 2278               	.LBE339:
 2279               	.LBE332:
  44:LUFA-111009/LUFA/Drivers/USB/Core/AVR8/Template/Template_Endpoint_Control_W.c **** 	while (Length || LastPacketFull)
 2280               		.loc 4 44 0 discriminator 1
 2281 008c 6115      		cp r22,__zero_reg__
 2282 008e 7105      		cpc r23,__zero_reg__
 2283 0090 01F4      		brne .L157
  44:LUFA-111009/LUFA/Drivers/USB/Core/AVR8/Template/Template_Endpoint_Control_W.c **** 	while (Length || LastPacketFull)
 2284               		.loc 4 44 0 is_stmt 0 discriminator 2
 2285 0092 4111      		cpse r20,__zero_reg__
 2286 0094 00C0      		rjmp .L157
 2287 0096 00C0      		rjmp .L172
 2288               	.L158:
 2289               	.LBB346:
  70:LUFA-111009/LUFA/Drivers/USB/Core/AVR8/Template/Template_Endpoint_Control_W.c **** 			Endpoint_ClearIN();
  71:LUFA-111009/LUFA/Drivers/USB/Core/AVR8/Template/Template_Endpoint_Control_W.c **** 		}
  72:LUFA-111009/LUFA/Drivers/USB/Core/AVR8/Template/Template_Endpoint_Control_W.c **** 	}
  73:LUFA-111009/LUFA/Drivers/USB/Core/AVR8/Template/Template_Endpoint_Control_W.c **** 
  74:LUFA-111009/LUFA/Drivers/USB/Core/AVR8/Template/Template_Endpoint_Control_W.c **** 	while (!(Endpoint_IsOUTReceived()))
  75:LUFA-111009/LUFA/Drivers/USB/Core/AVR8/Template/Template_Endpoint_Control_W.c **** 	{
  76:LUFA-111009/LUFA/Drivers/USB/Core/AVR8/Template/Template_Endpoint_Control_W.c **** 		uint8_t USB_DeviceState_LCL = USB_DeviceState;
 2290               		.loc 4 76 0 is_stmt 1
 2291 0098 8EB3      		in r24,0x1e
 2292               	.LVL240:
  77:LUFA-111009/LUFA/Drivers/USB/Core/AVR8/Template/Template_Endpoint_Control_W.c **** 
  78:LUFA-111009/LUFA/Drivers/USB/Core/AVR8/Template/Template_Endpoint_Control_W.c **** 		if (USB_DeviceState_LCL == DEVICE_STATE_Unattached)
 2293               		.loc 4 78 0
 2294 009a 8823      		tst r24
 2295 009c 01F0      		breq .L163
  79:LUFA-111009/LUFA/Drivers/USB/Core/AVR8/Template/Template_Endpoint_Control_W.c **** 		  return ENDPOINT_RWCSTREAM_DeviceDisconnected;
  80:LUFA-111009/LUFA/Drivers/USB/Core/AVR8/Template/Template_Endpoint_Control_W.c **** 		else if (USB_DeviceState_LCL == DEVICE_STATE_Suspended)
 2296               		.loc 4 80 0
 2297 009e 8530      		cpi r24,lo8(5)
 2298 00a0 01F0      		breq .L164
 2299               	.LVL241:
 2300               	.L172:
 2301               	.LBE346:
 2302               	.LBB347:
 2303               	.LBB348:
 479:LUFA-111009/LUFA/Drivers/USB/Core/AVR8/../AVR8/../AVR8/Endpoint_AVR8.h **** 				return ((UEINTX & (1 << RXOUTI)) ? true : false);
 2304               		.loc 2 479 0 discriminator 1
 2305 00a2 8091 E800 		lds r24,232
 2306               	.LBE348:
 2307               	.LBE347:
  74:LUFA-111009/LUFA/Drivers/USB/Core/AVR8/Template/Template_Endpoint_Control_W.c **** 	while (!(Endpoint_IsOUTReceived()))
 2308               		.loc 4 74 0 discriminator 1
 2309 00a6 82FF      		sbrs r24,2
 2310 00a8 00C0      		rjmp .L158
  81:LUFA-111009/LUFA/Drivers/USB/Core/AVR8/Template/Template_Endpoint_Control_W.c **** 		  return ENDPOINT_RWCSTREAM_BusSuspended;
  82:LUFA-111009/LUFA/Drivers/USB/Core/AVR8/Template/Template_Endpoint_Control_W.c **** 	}
  83:LUFA-111009/LUFA/Drivers/USB/Core/AVR8/Template/Template_Endpoint_Control_W.c **** 
  84:LUFA-111009/LUFA/Drivers/USB/Core/AVR8/Template/Template_Endpoint_Control_W.c **** 	return ENDPOINT_RWCSTREAM_NoError;
 2311               		.loc 4 84 0
 2312 00aa 80E0      		ldi r24,0
 2313 00ac 0895      		ret
 2314               	.L162:
 2315               	.LBB349:
  53:LUFA-111009/LUFA/Drivers/USB/Core/AVR8/Template/Template_Endpoint_Control_W.c **** 		  return ENDPOINT_RWCSTREAM_HostAborted;
 2316               		.loc 4 53 0
 2317 00ae 81E0      		ldi r24,lo8(1)
 2318 00b0 0895      		ret
 2319               	.L163:
 2320               	.LBE349:
 2321               	.LBB350:
  49:LUFA-111009/LUFA/Drivers/USB/Core/AVR8/Template/Template_Endpoint_Control_W.c **** 		  return ENDPOINT_RWCSTREAM_DeviceDisconnected;
 2322               		.loc 4 49 0
 2323 00b2 82E0      		ldi r24,lo8(2)
 2324 00b4 0895      		ret
 2325               	.L164:
  51:LUFA-111009/LUFA/Drivers/USB/Core/AVR8/Template/Template_Endpoint_Control_W.c **** 		  return ENDPOINT_RWCSTREAM_BusSuspended;
 2326               		.loc 4 51 0
 2327 00b6 83E0      		ldi r24,lo8(3)
 2328               	.LBE350:
  85:LUFA-111009/LUFA/Drivers/USB/Core/AVR8/Template/Template_Endpoint_Control_W.c **** }
 2329               		.loc 4 85 0
 2330 00b8 0895      		ret
 2331               		.cfi_endproc
 2332               	.LFE93:
 2334               		.section	.text.Endpoint_Write_Control_Stream_BE,"ax",@progbits
 2335               	.global	Endpoint_Write_Control_Stream_BE
 2337               	Endpoint_Write_Control_Stream_BE:
 2338               	.LFB94:
  35:LUFA-111009/LUFA/Drivers/USB/Core/AVR8/Template/Template_Endpoint_Control_W.c **** {
 2339               		.loc 4 35 0
 2340               		.cfi_startproc
 2341               	.LVL242:
 2342               	/* prologue: function */
 2343               	/* frame size = 0 */
 2344               	/* stack size = 0 */
 2345               	.L__stack_usage = 0
  36:LUFA-111009/LUFA/Drivers/USB/Core/AVR8/Template/Template_Endpoint_Control_W.c **** 	uint8_t* DataStream     = ((uint8_t*)Buffer + TEMPLATE_BUFFER_OFFSET(Length));
 2346               		.loc 4 36 0
 2347 0000 FB01      		movw r30,r22
 2348 0002 3197      		sbiw r30,1
 2349 0004 E80F      		add r30,r24
 2350 0006 F91F      		adc r31,r25
 2351               	.LVL243:
  39:LUFA-111009/LUFA/Drivers/USB/Core/AVR8/Template/Template_Endpoint_Control_W.c **** 	if (Length > USB_ControlRequest.wLength)
 2352               		.loc 4 39 0
 2353 0008 8091 0000 		lds r24,USB_ControlRequest+6
 2354 000c 9091 0000 		lds r25,USB_ControlRequest+6+1
 2355               	.LVL244:
 2356 0010 8617      		cp r24,r22
 2357 0012 9707      		cpc r25,r23
 2358 0014 00F0      		brlo .L190
  41:LUFA-111009/LUFA/Drivers/USB/Core/AVR8/Template/Template_Endpoint_Control_W.c **** 	else if (!(Length))
 2359               		.loc 4 41 0
 2360 0016 6115      		cp r22,__zero_reg__
 2361 0018 7105      		cpc r23,__zero_reg__
 2362 001a 01F4      		brne .L179
 2363               	.LBB351:
 2364               	.LBB352:
 516:LUFA-111009/LUFA/Drivers/USB/Core/AVR8/../AVR8/../AVR8/Endpoint_AVR8.h **** 					UEINTX &= ~((1 << TXINI) | (1 << FIFOCON));
 2365               		.loc 2 516 0
 2366 001c 8091 E800 		lds r24,232
 2367 0020 8E77      		andi r24,lo8(126)
 2368 0022 8093 E800 		sts 232,r24
 2369 0026 00C0      		rjmp .L179
 2370               	.L190:
 2371               	.LBE352:
 2372               	.LBE351:
  39:LUFA-111009/LUFA/Drivers/USB/Core/AVR8/Template/Template_Endpoint_Control_W.c **** 	if (Length > USB_ControlRequest.wLength)
 2373               		.loc 4 39 0
 2374 0028 BC01      		movw r22,r24
 2375               	.LVL245:
 2376               	.L179:
  39:LUFA-111009/LUFA/Drivers/USB/Core/AVR8/Template/Template_Endpoint_Control_W.c **** 	if (Length > USB_ControlRequest.wLength)
 2377               		.loc 4 39 0 is_stmt 0 discriminator 1
 2378 002a 40E0      		ldi r20,0
 2379 002c 00C0      		rjmp .L208
 2380               	.LVL246:
 2381               	.L188:
 2382               	.LBB353:
  46:LUFA-111009/LUFA/Drivers/USB/Core/AVR8/Template/Template_Endpoint_Control_W.c **** 		uint8_t USB_DeviceState_LCL = USB_DeviceState;
 2383               		.loc 4 46 0 is_stmt 1
 2384 002e 8EB3      		in r24,0x1e
 2385               	.LVL247:
  48:LUFA-111009/LUFA/Drivers/USB/Core/AVR8/Template/Template_Endpoint_Control_W.c **** 		if (USB_DeviceState_LCL == DEVICE_STATE_Unattached)
 2386               		.loc 4 48 0
 2387 0030 8823      		tst r24
 2388 0032 01F4      		brne .+2
 2389 0034 00C0      		rjmp .L194
  50:LUFA-111009/LUFA/Drivers/USB/Core/AVR8/Template/Template_Endpoint_Control_W.c **** 		else if (USB_DeviceState_LCL == DEVICE_STATE_Suspended)
 2390               		.loc 4 50 0
 2391 0036 8530      		cpi r24,lo8(5)
 2392 0038 01F4      		brne .+2
 2393 003a 00C0      		rjmp .L195
 2394               	.LBB354:
 2395               	.LBB355:
 491:LUFA-111009/LUFA/Drivers/USB/Core/AVR8/../AVR8/../AVR8/Endpoint_AVR8.h **** 				return ((UEINTX & (1 << RXSTPI)) ? true : false);
 2396               		.loc 2 491 0
 2397 003c 8091 E800 		lds r24,232
 2398               	.LVL248:
 2399               	.LBE355:
 2400               	.LBE354:
  52:LUFA-111009/LUFA/Drivers/USB/Core/AVR8/Template/Template_Endpoint_Control_W.c **** 		else if (Endpoint_IsSETUPReceived())
 2401               		.loc 4 52 0
 2402 0040 83FD      		sbrc r24,3
 2403 0042 00C0      		rjmp .L193
 2404               	.LBB356:
 2405               	.LBB357:
 479:LUFA-111009/LUFA/Drivers/USB/Core/AVR8/../AVR8/../AVR8/Endpoint_AVR8.h **** 				return ((UEINTX & (1 << RXOUTI)) ? true : false);
 2406               		.loc 2 479 0
 2407 0044 8091 E800 		lds r24,232
 2408               	.LBE357:
 2409               	.LBE356:
  54:LUFA-111009/LUFA/Drivers/USB/Core/AVR8/Template/Template_Endpoint_Control_W.c **** 		else if (Endpoint_IsOUTReceived())
 2410               		.loc 4 54 0
 2411 0048 82FD      		sbrc r24,2
 2412 004a 00C0      		rjmp .L203
 2413               	.LBB358:
 2414               	.LBB359:
 467:LUFA-111009/LUFA/Drivers/USB/Core/AVR8/../AVR8/../AVR8/Endpoint_AVR8.h **** 				return ((UEINTX & (1 << TXINI)) ? true : false);
 2415               		.loc 2 467 0
 2416 004c 8091 E800 		lds r24,232
 2417               	.LBE359:
 2418               	.LBE358:
  57:LUFA-111009/LUFA/Drivers/USB/Core/AVR8/Template/Template_Endpoint_Control_W.c **** 		if (Endpoint_IsINReady())
 2419               		.loc 4 57 0
 2420 0050 80FF      		sbrs r24,0
 2421 0052 00C0      		rjmp .L208
 2422               	.LBB360:
 2423               	.LBB361:
 2424               	.LBB362:
 295:LUFA-111009/LUFA/Drivers/USB/Core/AVR8/../AVR8/../AVR8/Endpoint_AVR8.h **** 					return (((uint16_t)UEBCHX << 8) | UEBCLX);
 2425               		.loc 2 295 0
 2426 0054 9091 F300 		lds r25,243
 2427 0058 8091 F200 		lds r24,242
 2428 005c 392F      		mov r19,r25
 2429 005e 20E0      		ldi r18,0
 2430 0060 A901      		movw r20,r18
 2431               	.LVL249:
 2432 0062 482B      		or r20,r24
 2433 0064 CA01      		movw r24,r20
 2434               	.LBE362:
 2435               	.LBE361:
  61:LUFA-111009/LUFA/Drivers/USB/Core/AVR8/Template/Template_Endpoint_Control_W.c **** 			while (Length && (BytesInEndpoint < USB_Device_ControlEndpointSize))
 2436               		.loc 4 61 0
 2437 0066 00C0      		rjmp .L184
 2438               	.LVL250:
 2439               	.L186:
  63:LUFA-111009/LUFA/Drivers/USB/Core/AVR8/Template/Template_Endpoint_Control_W.c **** 				TEMPLATE_TRANSFER_BYTE(DataStream);
 2440               		.loc 4 63 0
 2441 0068 4081      		ld r20,Z
 2442               	.LVL251:
 2443               	.LBB363:
 2444               	.LBB364:
 624:LUFA-111009/LUFA/Drivers/USB/Core/AVR8/../AVR8/../AVR8/Endpoint_AVR8.h **** 				UEDATX = Data;
 2445               		.loc 2 624 0
 2446 006a 4093 F100 		sts 241,r20
 2447               	.LBE364:
 2448               	.LBE363:
  64:LUFA-111009/LUFA/Drivers/USB/Core/AVR8/Template/Template_Endpoint_Control_W.c **** 				TEMPLATE_BUFFER_MOVE(DataStream, 1);
 2449               		.loc 4 64 0
 2450 006e 3197      		sbiw r30,1
 2451               	.LVL252:
  65:LUFA-111009/LUFA/Drivers/USB/Core/AVR8/Template/Template_Endpoint_Control_W.c **** 				Length--;
 2452               		.loc 4 65 0
 2453 0070 6150      		subi r22,1
 2454 0072 7109      		sbc r23,__zero_reg__
 2455               	.LVL253:
  66:LUFA-111009/LUFA/Drivers/USB/Core/AVR8/Template/Template_Endpoint_Control_W.c **** 				BytesInEndpoint++;
 2456               		.loc 4 66 0
 2457 0074 0196      		adiw r24,1
 2458               	.LVL254:
 2459               	.L184:
  61:LUFA-111009/LUFA/Drivers/USB/Core/AVR8/Template/Template_Endpoint_Control_W.c **** 			while (Length && (BytesInEndpoint < USB_Device_ControlEndpointSize))
 2460               		.loc 4 61 0 discriminator 1
 2461 0076 6115      		cp r22,__zero_reg__
 2462 0078 7105      		cpc r23,__zero_reg__
 2463 007a 01F0      		breq .L185
  61:LUFA-111009/LUFA/Drivers/USB/Core/AVR8/Template/Template_Endpoint_Control_W.c **** 			while (Length && (BytesInEndpoint < USB_Device_ControlEndpointSize))
 2464               		.loc 4 61 0 is_stmt 0 discriminator 2
 2465 007c 8830      		cpi r24,8
 2466 007e 9105      		cpc r25,__zero_reg__
 2467 0080 00F0      		brlo .L186
 2468               	.L185:
  69:LUFA-111009/LUFA/Drivers/USB/Core/AVR8/Template/Template_Endpoint_Control_W.c **** 			LastPacketFull = (BytesInEndpoint == USB_Device_ControlEndpointSize);
 2469               		.loc 4 69 0 is_stmt 1
 2470 0082 41E0      		ldi r20,lo8(1)
 2471 0084 0897      		sbiw r24,8
 2472 0086 01F0      		breq .L187
 2473 0088 40E0      		ldi r20,0
 2474               	.L187:
 2475               	.LVL255:
 2476               	.LBB365:
 2477               	.LBB366:
 516:LUFA-111009/LUFA/Drivers/USB/Core/AVR8/../AVR8/../AVR8/Endpoint_AVR8.h **** 					UEINTX &= ~((1 << TXINI) | (1 << FIFOCON));
 2478               		.loc 2 516 0
 2479 008a 8091 E800 		lds r24,232
 2480               	.LVL256:
 2481 008e 8E77      		andi r24,lo8(126)
 2482 0090 8093 E800 		sts 232,r24
 2483               	.LVL257:
 2484               	.L208:
 2485               	.LBE366:
 2486               	.LBE365:
 2487               	.LBE360:
 2488               	.LBE353:
  44:LUFA-111009/LUFA/Drivers/USB/Core/AVR8/Template/Template_Endpoint_Control_W.c **** 	while (Length || LastPacketFull)
 2489               		.loc 4 44 0 discriminator 1
 2490 0094 6115      		cp r22,__zero_reg__
 2491 0096 7105      		cpc r23,__zero_reg__
 2492 0098 01F4      		brne .L188
  44:LUFA-111009/LUFA/Drivers/USB/Core/AVR8/Template/Template_Endpoint_Control_W.c **** 	while (Length || LastPacketFull)
 2493               		.loc 4 44 0 is_stmt 0 discriminator 2
 2494 009a 4111      		cpse r20,__zero_reg__
 2495 009c 00C0      		rjmp .L188
 2496 009e 00C0      		rjmp .L203
 2497               	.L189:
 2498               	.LBB367:
  76:LUFA-111009/LUFA/Drivers/USB/Core/AVR8/Template/Template_Endpoint_Control_W.c **** 		uint8_t USB_DeviceState_LCL = USB_DeviceState;
 2499               		.loc 4 76 0 is_stmt 1
 2500 00a0 8EB3      		in r24,0x1e
 2501               	.LVL258:
  78:LUFA-111009/LUFA/Drivers/USB/Core/AVR8/Template/Template_Endpoint_Control_W.c **** 		if (USB_DeviceState_LCL == DEVICE_STATE_Unattached)
 2502               		.loc 4 78 0
 2503 00a2 8823      		tst r24
 2504 00a4 01F0      		breq .L194
  80:LUFA-111009/LUFA/Drivers/USB/Core/AVR8/Template/Template_Endpoint_Control_W.c **** 		else if (USB_DeviceState_LCL == DEVICE_STATE_Suspended)
 2505               		.loc 4 80 0
 2506 00a6 8530      		cpi r24,lo8(5)
 2507 00a8 01F0      		breq .L195
 2508               	.LVL259:
 2509               	.L203:
 2510               	.LBE367:
 2511               	.LBB368:
 2512               	.LBB369:
 479:LUFA-111009/LUFA/Drivers/USB/Core/AVR8/../AVR8/../AVR8/Endpoint_AVR8.h **** 				return ((UEINTX & (1 << RXOUTI)) ? true : false);
 2513               		.loc 2 479 0 discriminator 1
 2514 00aa 8091 E800 		lds r24,232
 2515               	.LBE369:
 2516               	.LBE368:
  74:LUFA-111009/LUFA/Drivers/USB/Core/AVR8/Template/Template_Endpoint_Control_W.c **** 	while (!(Endpoint_IsOUTReceived()))
 2517               		.loc 4 74 0 discriminator 1
 2518 00ae 82FF      		sbrs r24,2
 2519 00b0 00C0      		rjmp .L189
  84:LUFA-111009/LUFA/Drivers/USB/Core/AVR8/Template/Template_Endpoint_Control_W.c **** 	return ENDPOINT_RWCSTREAM_NoError;
 2520               		.loc 4 84 0
 2521 00b2 80E0      		ldi r24,0
 2522 00b4 0895      		ret
 2523               	.L193:
 2524               	.LBB370:
  53:LUFA-111009/LUFA/Drivers/USB/Core/AVR8/Template/Template_Endpoint_Control_W.c **** 		  return ENDPOINT_RWCSTREAM_HostAborted;
 2525               		.loc 4 53 0
 2526 00b6 81E0      		ldi r24,lo8(1)
 2527 00b8 0895      		ret
 2528               	.L194:
 2529               	.LBE370:
 2530               	.LBB371:
  49:LUFA-111009/LUFA/Drivers/USB/Core/AVR8/Template/Template_Endpoint_Control_W.c **** 		  return ENDPOINT_RWCSTREAM_DeviceDisconnected;
 2531               		.loc 4 49 0
 2532 00ba 82E0      		ldi r24,lo8(2)
 2533 00bc 0895      		ret
 2534               	.L195:
  51:LUFA-111009/LUFA/Drivers/USB/Core/AVR8/Template/Template_Endpoint_Control_W.c **** 		  return ENDPOINT_RWCSTREAM_BusSuspended;
 2535               		.loc 4 51 0
 2536 00be 83E0      		ldi r24,lo8(3)
 2537               	.LBE371:
 2538               		.loc 4 85 0
 2539 00c0 0895      		ret
 2540               		.cfi_endproc
 2541               	.LFE94:
 2543               		.section	.text.Endpoint_Read_Control_Stream_LE,"ax",@progbits
 2544               	.global	Endpoint_Read_Control_Stream_LE
 2546               	Endpoint_Read_Control_Stream_LE:
 2547               	.LFB95:
 2548               		.file 5 "LUFA-111009/LUFA/Drivers/USB/Core/AVR8/Template/Template_Endpoint_Control_R.c"
   1:LUFA-111009/LUFA/Drivers/USB/Core/AVR8/Template/Template_Endpoint_Control_R.c **** /*
   2:LUFA-111009/LUFA/Drivers/USB/Core/AVR8/Template/Template_Endpoint_Control_R.c ****              LUFA Library
   3:LUFA-111009/LUFA/Drivers/USB/Core/AVR8/Template/Template_Endpoint_Control_R.c ****      Copyright (C) Dean Camera, 2011.
   4:LUFA-111009/LUFA/Drivers/USB/Core/AVR8/Template/Template_Endpoint_Control_R.c **** 
   5:LUFA-111009/LUFA/Drivers/USB/Core/AVR8/Template/Template_Endpoint_Control_R.c ****   dean [at] fourwalledcubicle [dot] com
   6:LUFA-111009/LUFA/Drivers/USB/Core/AVR8/Template/Template_Endpoint_Control_R.c ****            www.lufa-lib.org
   7:LUFA-111009/LUFA/Drivers/USB/Core/AVR8/Template/Template_Endpoint_Control_R.c **** */
   8:LUFA-111009/LUFA/Drivers/USB/Core/AVR8/Template/Template_Endpoint_Control_R.c **** 
   9:LUFA-111009/LUFA/Drivers/USB/Core/AVR8/Template/Template_Endpoint_Control_R.c **** /*
  10:LUFA-111009/LUFA/Drivers/USB/Core/AVR8/Template/Template_Endpoint_Control_R.c ****   Copyright 2011  Dean Camera (dean [at] fourwalledcubicle [dot] com)
  11:LUFA-111009/LUFA/Drivers/USB/Core/AVR8/Template/Template_Endpoint_Control_R.c **** 
  12:LUFA-111009/LUFA/Drivers/USB/Core/AVR8/Template/Template_Endpoint_Control_R.c ****   Permission to use, copy, modify, distribute, and sell this
  13:LUFA-111009/LUFA/Drivers/USB/Core/AVR8/Template/Template_Endpoint_Control_R.c ****   software and its documentation for any purpose is hereby granted
  14:LUFA-111009/LUFA/Drivers/USB/Core/AVR8/Template/Template_Endpoint_Control_R.c ****   without fee, provided that the above copyright notice appear in
  15:LUFA-111009/LUFA/Drivers/USB/Core/AVR8/Template/Template_Endpoint_Control_R.c ****   all copies and that both that the copyright notice and this
  16:LUFA-111009/LUFA/Drivers/USB/Core/AVR8/Template/Template_Endpoint_Control_R.c ****   permission notice and warranty disclaimer appear in supporting
  17:LUFA-111009/LUFA/Drivers/USB/Core/AVR8/Template/Template_Endpoint_Control_R.c ****   documentation, and that the name of the author not be used in
  18:LUFA-111009/LUFA/Drivers/USB/Core/AVR8/Template/Template_Endpoint_Control_R.c ****   advertising or publicity pertaining to distribution of the
  19:LUFA-111009/LUFA/Drivers/USB/Core/AVR8/Template/Template_Endpoint_Control_R.c ****   software without specific, written prior permission.
  20:LUFA-111009/LUFA/Drivers/USB/Core/AVR8/Template/Template_Endpoint_Control_R.c **** 
  21:LUFA-111009/LUFA/Drivers/USB/Core/AVR8/Template/Template_Endpoint_Control_R.c ****   The author disclaim all warranties with regard to this
  22:LUFA-111009/LUFA/Drivers/USB/Core/AVR8/Template/Template_Endpoint_Control_R.c ****   software, including all implied warranties of merchantability
  23:LUFA-111009/LUFA/Drivers/USB/Core/AVR8/Template/Template_Endpoint_Control_R.c ****   and fitness.  In no event shall the author be liable for any
  24:LUFA-111009/LUFA/Drivers/USB/Core/AVR8/Template/Template_Endpoint_Control_R.c ****   special, indirect or consequential damages or any damages
  25:LUFA-111009/LUFA/Drivers/USB/Core/AVR8/Template/Template_Endpoint_Control_R.c ****   whatsoever resulting from loss of use, data or profits, whether
  26:LUFA-111009/LUFA/Drivers/USB/Core/AVR8/Template/Template_Endpoint_Control_R.c ****   in an action of contract, negligence or other tortious action,
  27:LUFA-111009/LUFA/Drivers/USB/Core/AVR8/Template/Template_Endpoint_Control_R.c ****   arising out of or in connection with the use or performance of
  28:LUFA-111009/LUFA/Drivers/USB/Core/AVR8/Template/Template_Endpoint_Control_R.c ****   this software.
  29:LUFA-111009/LUFA/Drivers/USB/Core/AVR8/Template/Template_Endpoint_Control_R.c **** */
  30:LUFA-111009/LUFA/Drivers/USB/Core/AVR8/Template/Template_Endpoint_Control_R.c **** 
  31:LUFA-111009/LUFA/Drivers/USB/Core/AVR8/Template/Template_Endpoint_Control_R.c **** #if defined(TEMPLATE_FUNC_NAME)
  32:LUFA-111009/LUFA/Drivers/USB/Core/AVR8/Template/Template_Endpoint_Control_R.c **** 
  33:LUFA-111009/LUFA/Drivers/USB/Core/AVR8/Template/Template_Endpoint_Control_R.c **** uint8_t TEMPLATE_FUNC_NAME (void* const Buffer,
  34:LUFA-111009/LUFA/Drivers/USB/Core/AVR8/Template/Template_Endpoint_Control_R.c ****                             uint16_t Length)
  35:LUFA-111009/LUFA/Drivers/USB/Core/AVR8/Template/Template_Endpoint_Control_R.c **** {
 2549               		.loc 5 35 0
 2550               		.cfi_startproc
 2551               	.LVL260:
 2552               	/* prologue: function */
 2553               	/* frame size = 0 */
 2554               	/* stack size = 0 */
 2555               	.L__stack_usage = 0
  36:LUFA-111009/LUFA/Drivers/USB/Core/AVR8/Template/Template_Endpoint_Control_R.c **** 	uint8_t* DataStream = ((uint8_t*)Buffer + TEMPLATE_BUFFER_OFFSET(Length));
  37:LUFA-111009/LUFA/Drivers/USB/Core/AVR8/Template/Template_Endpoint_Control_R.c **** 
  38:LUFA-111009/LUFA/Drivers/USB/Core/AVR8/Template/Template_Endpoint_Control_R.c **** 	if (!(Length))
 2556               		.loc 5 38 0
 2557 0000 6115      		cp r22,__zero_reg__
 2558 0002 7105      		cpc r23,__zero_reg__
 2559 0004 01F4      		brne .L210
 2560               	.LBB372:
 2561               	.LBB373:
 531:LUFA-111009/LUFA/Drivers/USB/Core/AVR8/../AVR8/../AVR8/Endpoint_AVR8.h **** 					UEINTX &= ~((1 << RXOUTI) | (1 << FIFOCON));
 2562               		.loc 2 531 0
 2563 0006 4091 E800 		lds r20,232
 2564 000a 4B77      		andi r20,lo8(123)
 2565 000c 4093 E800 		sts 232,r20
 2566               	.L210:
 2567               	.LBE373:
 2568               	.LBE372:
  35:LUFA-111009/LUFA/Drivers/USB/Core/AVR8/Template/Template_Endpoint_Control_R.c **** {
 2569               		.loc 5 35 0 discriminator 1
 2570 0010 AC01      		movw r20,r24
 2571 0012 00C0      		rjmp .L211
 2572               	.LVL261:
 2573               	.L228:
 2574               	.LBB374:
  39:LUFA-111009/LUFA/Drivers/USB/Core/AVR8/Template/Template_Endpoint_Control_R.c **** 	  Endpoint_ClearOUT();
  40:LUFA-111009/LUFA/Drivers/USB/Core/AVR8/Template/Template_Endpoint_Control_R.c **** 
  41:LUFA-111009/LUFA/Drivers/USB/Core/AVR8/Template/Template_Endpoint_Control_R.c **** 	while (Length)
  42:LUFA-111009/LUFA/Drivers/USB/Core/AVR8/Template/Template_Endpoint_Control_R.c **** 	{
  43:LUFA-111009/LUFA/Drivers/USB/Core/AVR8/Template/Template_Endpoint_Control_R.c **** 		uint8_t USB_DeviceState_LCL = USB_DeviceState;
 2575               		.loc 5 43 0
 2576 0014 8EB3      		in r24,0x1e
 2577               	.LVL262:
  44:LUFA-111009/LUFA/Drivers/USB/Core/AVR8/Template/Template_Endpoint_Control_R.c **** 
  45:LUFA-111009/LUFA/Drivers/USB/Core/AVR8/Template/Template_Endpoint_Control_R.c **** 		if (USB_DeviceState_LCL == DEVICE_STATE_Unattached)
 2578               		.loc 5 45 0
 2579 0016 8823      		tst r24
 2580 0018 01F0      		breq .L222
  46:LUFA-111009/LUFA/Drivers/USB/Core/AVR8/Template/Template_Endpoint_Control_R.c **** 		  return ENDPOINT_RWCSTREAM_DeviceDisconnected;
  47:LUFA-111009/LUFA/Drivers/USB/Core/AVR8/Template/Template_Endpoint_Control_R.c **** 		else if (USB_DeviceState_LCL == DEVICE_STATE_Suspended)
 2581               		.loc 5 47 0
 2582 001a 8530      		cpi r24,lo8(5)
 2583 001c 01F0      		breq .L219
 2584               	.LBB375:
 2585               	.LBB376:
 491:LUFA-111009/LUFA/Drivers/USB/Core/AVR8/../AVR8/../AVR8/Endpoint_AVR8.h **** 				return ((UEINTX & (1 << RXSTPI)) ? true : false);
 2586               		.loc 2 491 0
 2587 001e 8091 E800 		lds r24,232
 2588               	.LVL263:
 2589               	.LBE376:
 2590               	.LBE375:
  48:LUFA-111009/LUFA/Drivers/USB/Core/AVR8/Template/Template_Endpoint_Control_R.c **** 		  return ENDPOINT_RWCSTREAM_BusSuspended;
  49:LUFA-111009/LUFA/Drivers/USB/Core/AVR8/Template/Template_Endpoint_Control_R.c **** 		else if (Endpoint_IsSETUPReceived())
 2591               		.loc 5 49 0
 2592 0022 83FD      		sbrc r24,3
 2593 0024 00C0      		rjmp .L220
 2594               	.LBB377:
 2595               	.LBB378:
 479:LUFA-111009/LUFA/Drivers/USB/Core/AVR8/../AVR8/../AVR8/Endpoint_AVR8.h **** 				return ((UEINTX & (1 << RXOUTI)) ? true : false);
 2596               		.loc 2 479 0
 2597 0026 8091 E800 		lds r24,232
 2598               	.LBE378:
 2599               	.LBE377:
  50:LUFA-111009/LUFA/Drivers/USB/Core/AVR8/Template/Template_Endpoint_Control_R.c **** 		  return ENDPOINT_RWCSTREAM_HostAborted;
  51:LUFA-111009/LUFA/Drivers/USB/Core/AVR8/Template/Template_Endpoint_Control_R.c **** 
  52:LUFA-111009/LUFA/Drivers/USB/Core/AVR8/Template/Template_Endpoint_Control_R.c **** 		if (Endpoint_IsOUTReceived())
 2600               		.loc 5 52 0
 2601 002a 82FF      		sbrs r24,2
 2602 002c 00C0      		rjmp .L228
 2603 002e FA01      		movw r30,r20
 2604 0030 00C0      		rjmp .L214
 2605               	.LVL264:
 2606               	.L216:
 2607               	.LBB379:
 2608               	.LBB380:
 612:LUFA-111009/LUFA/Drivers/USB/Core/AVR8/../AVR8/../AVR8/Endpoint_AVR8.h **** 				return UEDATX;
 2609               		.loc 2 612 0
 2610 0032 8091 F100 		lds r24,241
 2611               	.LBE380:
 2612               	.LBE379:
  53:LUFA-111009/LUFA/Drivers/USB/Core/AVR8/Template/Template_Endpoint_Control_R.c **** 		{
  54:LUFA-111009/LUFA/Drivers/USB/Core/AVR8/Template/Template_Endpoint_Control_R.c **** 			while (Length && Endpoint_BytesInEndpoint())
  55:LUFA-111009/LUFA/Drivers/USB/Core/AVR8/Template/Template_Endpoint_Control_R.c **** 			{
  56:LUFA-111009/LUFA/Drivers/USB/Core/AVR8/Template/Template_Endpoint_Control_R.c **** 				TEMPLATE_TRANSFER_BYTE(DataStream);
 2613               		.loc 5 56 0
 2614 0036 8193      		st Z+,r24
  57:LUFA-111009/LUFA/Drivers/USB/Core/AVR8/Template/Template_Endpoint_Control_R.c **** 				TEMPLATE_BUFFER_MOVE(DataStream, 1);
 2615               		.loc 5 57 0
 2616 0038 AF01      		movw r20,r30
 2617               	.LVL265:
  58:LUFA-111009/LUFA/Drivers/USB/Core/AVR8/Template/Template_Endpoint_Control_R.c **** 				Length--;
 2618               		.loc 5 58 0
 2619 003a 6150      		subi r22,1
 2620 003c 7109      		sbc r23,__zero_reg__
 2621               	.LVL266:
  54:LUFA-111009/LUFA/Drivers/USB/Core/AVR8/Template/Template_Endpoint_Control_R.c **** 			while (Length && Endpoint_BytesInEndpoint())
 2622               		.loc 5 54 0
 2623 003e 01F0      		breq .L215
 2624               	.LVL267:
 2625               	.L214:
 2626 0040 AF01      		movw r20,r30
 2627               	.LBB381:
 2628               	.LBB382:
 295:LUFA-111009/LUFA/Drivers/USB/Core/AVR8/../AVR8/../AVR8/Endpoint_AVR8.h **** 					return (((uint16_t)UEBCHX << 8) | UEBCLX);
 2629               		.loc 2 295 0
 2630 0042 9091 F300 		lds r25,243
 2631 0046 8091 F200 		lds r24,242
 2632 004a 392F      		mov r19,r25
 2633 004c 20E0      		ldi r18,0
 2634 004e D901      		movw r26,r18
 2635 0050 A82B      		or r26,r24
 2636 0052 CD01      		movw r24,r26
 2637               	.LBE382:
 2638               	.LBE381:
  54:LUFA-111009/LUFA/Drivers/USB/Core/AVR8/Template/Template_Endpoint_Control_R.c **** 			while (Length && Endpoint_BytesInEndpoint())
 2639               		.loc 5 54 0
 2640 0054 892B      		or r24,r25
 2641 0056 01F4      		brne .L216
 2642               	.L215:
 2643               	.LBB383:
 2644               	.LBB384:
 531:LUFA-111009/LUFA/Drivers/USB/Core/AVR8/../AVR8/../AVR8/Endpoint_AVR8.h **** 					UEINTX &= ~((1 << RXOUTI) | (1 << FIFOCON));
 2645               		.loc 2 531 0
 2646 0058 8091 E800 		lds r24,232
 2647 005c 8B77      		andi r24,lo8(123)
 2648 005e 8093 E800 		sts 232,r24
 2649               	.L211:
 2650               	.LVL268:
 2651               	.LBE384:
 2652               	.LBE383:
 2653               	.LBE374:
  41:LUFA-111009/LUFA/Drivers/USB/Core/AVR8/Template/Template_Endpoint_Control_R.c **** 	while (Length)
 2654               		.loc 5 41 0 discriminator 1
 2655 0062 6115      		cp r22,__zero_reg__
 2656 0064 7105      		cpc r23,__zero_reg__
 2657 0066 01F4      		brne .L228
 2658               	.L227:
 2659               	.LBB385:
 2660               	.LBB386:
 467:LUFA-111009/LUFA/Drivers/USB/Core/AVR8/../AVR8/../AVR8/Endpoint_AVR8.h **** 				return ((UEINTX & (1 << TXINI)) ? true : false);
 2661               		.loc 2 467 0
 2662 0068 8091 E800 		lds r24,232
 2663               	.LBE386:
 2664               	.LBE385:
  59:LUFA-111009/LUFA/Drivers/USB/Core/AVR8/Template/Template_Endpoint_Control_R.c **** 			}
  60:LUFA-111009/LUFA/Drivers/USB/Core/AVR8/Template/Template_Endpoint_Control_R.c **** 
  61:LUFA-111009/LUFA/Drivers/USB/Core/AVR8/Template/Template_Endpoint_Control_R.c **** 			Endpoint_ClearOUT();
  62:LUFA-111009/LUFA/Drivers/USB/Core/AVR8/Template/Template_Endpoint_Control_R.c **** 		}
  63:LUFA-111009/LUFA/Drivers/USB/Core/AVR8/Template/Template_Endpoint_Control_R.c **** 	}
  64:LUFA-111009/LUFA/Drivers/USB/Core/AVR8/Template/Template_Endpoint_Control_R.c **** 
  65:LUFA-111009/LUFA/Drivers/USB/Core/AVR8/Template/Template_Endpoint_Control_R.c **** 	while (!(Endpoint_IsINReady()))
 2665               		.loc 5 65 0
 2666 006c 80FD      		sbrc r24,0
 2667 006e 00C0      		rjmp .L221
 2668               	.LBB387:
  66:LUFA-111009/LUFA/Drivers/USB/Core/AVR8/Template/Template_Endpoint_Control_R.c **** 	{
  67:LUFA-111009/LUFA/Drivers/USB/Core/AVR8/Template/Template_Endpoint_Control_R.c **** 		uint8_t USB_DeviceState_LCL = USB_DeviceState;
 2669               		.loc 5 67 0
 2670 0070 8EB3      		in r24,0x1e
 2671               	.LVL269:
  68:LUFA-111009/LUFA/Drivers/USB/Core/AVR8/Template/Template_Endpoint_Control_R.c **** 
  69:LUFA-111009/LUFA/Drivers/USB/Core/AVR8/Template/Template_Endpoint_Control_R.c **** 		if (USB_DeviceState_LCL == DEVICE_STATE_Unattached)
 2672               		.loc 5 69 0
 2673 0072 8823      		tst r24
 2674 0074 01F0      		breq .L222
  70:LUFA-111009/LUFA/Drivers/USB/Core/AVR8/Template/Template_Endpoint_Control_R.c **** 		  return ENDPOINT_RWCSTREAM_DeviceDisconnected;
  71:LUFA-111009/LUFA/Drivers/USB/Core/AVR8/Template/Template_Endpoint_Control_R.c **** 		else if (USB_DeviceState_LCL == DEVICE_STATE_Suspended)
 2675               		.loc 5 71 0
 2676 0076 8530      		cpi r24,lo8(5)
 2677 0078 01F4      		brne .L227
 2678               	.LVL270:
 2679               	.L219:
 2680               	.LBE387:
 2681               	.LBB388:
  48:LUFA-111009/LUFA/Drivers/USB/Core/AVR8/Template/Template_Endpoint_Control_R.c **** 		  return ENDPOINT_RWCSTREAM_BusSuspended;
 2682               		.loc 5 48 0
 2683 007a 83E0      		ldi r24,lo8(3)
 2684 007c 0895      		ret
 2685               	.L220:
  50:LUFA-111009/LUFA/Drivers/USB/Core/AVR8/Template/Template_Endpoint_Control_R.c **** 		  return ENDPOINT_RWCSTREAM_HostAborted;
 2686               		.loc 5 50 0
 2687 007e 81E0      		ldi r24,lo8(1)
 2688 0080 0895      		ret
 2689               	.L221:
 2690               	.LBE388:
  72:LUFA-111009/LUFA/Drivers/USB/Core/AVR8/Template/Template_Endpoint_Control_R.c **** 		  return ENDPOINT_RWCSTREAM_BusSuspended;
  73:LUFA-111009/LUFA/Drivers/USB/Core/AVR8/Template/Template_Endpoint_Control_R.c **** 	}
  74:LUFA-111009/LUFA/Drivers/USB/Core/AVR8/Template/Template_Endpoint_Control_R.c **** 
  75:LUFA-111009/LUFA/Drivers/USB/Core/AVR8/Template/Template_Endpoint_Control_R.c **** 	return ENDPOINT_RWCSTREAM_NoError;
 2691               		.loc 5 75 0
 2692 0082 80E0      		ldi r24,0
 2693 0084 0895      		ret
 2694               	.L222:
 2695               	.LBB389:
  46:LUFA-111009/LUFA/Drivers/USB/Core/AVR8/Template/Template_Endpoint_Control_R.c **** 		  return ENDPOINT_RWCSTREAM_DeviceDisconnected;
 2696               		.loc 5 46 0
 2697 0086 82E0      		ldi r24,lo8(2)
 2698               	.LBE389:
  76:LUFA-111009/LUFA/Drivers/USB/Core/AVR8/Template/Template_Endpoint_Control_R.c **** }
 2699               		.loc 5 76 0
 2700 0088 0895      		ret
 2701               		.cfi_endproc
 2702               	.LFE95:
 2704               		.section	.text.Endpoint_Read_Control_Stream_BE,"ax",@progbits
 2705               	.global	Endpoint_Read_Control_Stream_BE
 2707               	Endpoint_Read_Control_Stream_BE:
 2708               	.LFB96:
  35:LUFA-111009/LUFA/Drivers/USB/Core/AVR8/Template/Template_Endpoint_Control_R.c **** {
 2709               		.loc 5 35 0
 2710               		.cfi_startproc
 2711               	.LVL271:
 2712               	/* prologue: function */
 2713               	/* frame size = 0 */
 2714               	/* stack size = 0 */
 2715               	.L__stack_usage = 0
  36:LUFA-111009/LUFA/Drivers/USB/Core/AVR8/Template/Template_Endpoint_Control_R.c **** 	uint8_t* DataStream = ((uint8_t*)Buffer + TEMPLATE_BUFFER_OFFSET(Length));
 2716               		.loc 5 36 0
 2717 0000 FB01      		movw r30,r22
 2718 0002 3197      		sbiw r30,1
 2719 0004 E80F      		add r30,r24
 2720 0006 F91F      		adc r31,r25
 2721               	.LVL272:
  38:LUFA-111009/LUFA/Drivers/USB/Core/AVR8/Template/Template_Endpoint_Control_R.c **** 	if (!(Length))
 2722               		.loc 5 38 0
 2723 0008 6115      		cp r22,__zero_reg__
 2724 000a 7105      		cpc r23,__zero_reg__
 2725 000c 01F4      		brne .L252
 2726 000e 00C0      		rjmp .L240
 2727               	.LVL273:
 2728               	.L253:
 2729               	.LBB390:
  43:LUFA-111009/LUFA/Drivers/USB/Core/AVR8/Template/Template_Endpoint_Control_R.c **** 		uint8_t USB_DeviceState_LCL = USB_DeviceState;
 2730               		.loc 5 43 0
 2731 0010 8EB3      		in r24,0x1e
 2732               	.LVL274:
  45:LUFA-111009/LUFA/Drivers/USB/Core/AVR8/Template/Template_Endpoint_Control_R.c **** 		if (USB_DeviceState_LCL == DEVICE_STATE_Unattached)
 2733               		.loc 5 45 0
 2734 0012 8823      		tst r24
 2735 0014 01F0      		breq .L247
  47:LUFA-111009/LUFA/Drivers/USB/Core/AVR8/Template/Template_Endpoint_Control_R.c **** 		else if (USB_DeviceState_LCL == DEVICE_STATE_Suspended)
 2736               		.loc 5 47 0
 2737 0016 8530      		cpi r24,lo8(5)
 2738 0018 01F0      		breq .L244
 2739               	.LBB391:
 2740               	.LBB392:
 491:LUFA-111009/LUFA/Drivers/USB/Core/AVR8/../AVR8/../AVR8/Endpoint_AVR8.h **** 				return ((UEINTX & (1 << RXSTPI)) ? true : false);
 2741               		.loc 2 491 0
 2742 001a 8091 E800 		lds r24,232
 2743               	.LVL275:
 2744               	.LBE392:
 2745               	.LBE391:
  49:LUFA-111009/LUFA/Drivers/USB/Core/AVR8/Template/Template_Endpoint_Control_R.c **** 		else if (Endpoint_IsSETUPReceived())
 2746               		.loc 5 49 0
 2747 001e 83FD      		sbrc r24,3
 2748 0020 00C0      		rjmp .L245
 2749               	.LBB393:
 2750               	.LBB394:
 479:LUFA-111009/LUFA/Drivers/USB/Core/AVR8/../AVR8/../AVR8/Endpoint_AVR8.h **** 				return ((UEINTX & (1 << RXOUTI)) ? true : false);
 2751               		.loc 2 479 0
 2752 0022 8091 E800 		lds r24,232
 2753               	.LBE394:
 2754               	.LBE393:
  52:LUFA-111009/LUFA/Drivers/USB/Core/AVR8/Template/Template_Endpoint_Control_R.c **** 		if (Endpoint_IsOUTReceived())
 2755               		.loc 5 52 0
 2756 0026 82FF      		sbrs r24,2
 2757 0028 00C0      		rjmp .L253
 2758 002a 00C0      		rjmp .L249
 2759               	.L241:
 2760               	.LBB395:
 2761               	.LBB396:
 612:LUFA-111009/LUFA/Drivers/USB/Core/AVR8/../AVR8/../AVR8/Endpoint_AVR8.h **** 				return UEDATX;
 2762               		.loc 2 612 0
 2763 002c 8091 F100 		lds r24,241
 2764               	.LBE396:
 2765               	.LBE395:
  56:LUFA-111009/LUFA/Drivers/USB/Core/AVR8/Template/Template_Endpoint_Control_R.c **** 				TEMPLATE_TRANSFER_BYTE(DataStream);
 2766               		.loc 5 56 0
 2767 0030 8083      		st Z,r24
  57:LUFA-111009/LUFA/Drivers/USB/Core/AVR8/Template/Template_Endpoint_Control_R.c **** 				TEMPLATE_BUFFER_MOVE(DataStream, 1);
 2768               		.loc 5 57 0
 2769 0032 3197      		sbiw r30,1
 2770               	.LVL276:
  58:LUFA-111009/LUFA/Drivers/USB/Core/AVR8/Template/Template_Endpoint_Control_R.c **** 				Length--;
 2771               		.loc 5 58 0
 2772 0034 6150      		subi r22,1
 2773 0036 7109      		sbc r23,__zero_reg__
 2774               	.LVL277:
  54:LUFA-111009/LUFA/Drivers/USB/Core/AVR8/Template/Template_Endpoint_Control_R.c **** 			while (Length && Endpoint_BytesInEndpoint())
 2775               		.loc 5 54 0
 2776 0038 01F0      		breq .L240
 2777               	.L249:
 2778               	.LBB397:
 2779               	.LBB398:
 295:LUFA-111009/LUFA/Drivers/USB/Core/AVR8/../AVR8/../AVR8/Endpoint_AVR8.h **** 					return (((uint16_t)UEBCHX << 8) | UEBCLX);
 2780               		.loc 2 295 0
 2781 003a 9091 F300 		lds r25,243
 2782 003e 8091 F200 		lds r24,242
 2783 0042 392F      		mov r19,r25
 2784 0044 20E0      		ldi r18,0
 2785 0046 A901      		movw r20,r18
 2786 0048 482B      		or r20,r24
 2787 004a CA01      		movw r24,r20
 2788               	.LBE398:
 2789               	.LBE397:
  54:LUFA-111009/LUFA/Drivers/USB/Core/AVR8/Template/Template_Endpoint_Control_R.c **** 			while (Length && Endpoint_BytesInEndpoint())
 2790               		.loc 5 54 0
 2791 004c 892B      		or r24,r25
 2792 004e 01F4      		brne .L241
 2793               	.L240:
 2794               	.LBB399:
 2795               	.LBB400:
 531:LUFA-111009/LUFA/Drivers/USB/Core/AVR8/../AVR8/../AVR8/Endpoint_AVR8.h **** 					UEINTX &= ~((1 << RXOUTI) | (1 << FIFOCON));
 2796               		.loc 2 531 0
 2797 0050 8091 E800 		lds r24,232
 2798 0054 8B77      		andi r24,lo8(123)
 2799 0056 8093 E800 		sts 232,r24
 2800               	.L252:
 2801               	.LBE400:
 2802               	.LBE399:
 2803               	.LBE390:
  41:LUFA-111009/LUFA/Drivers/USB/Core/AVR8/Template/Template_Endpoint_Control_R.c **** 	while (Length)
 2804               		.loc 5 41 0 discriminator 1
 2805 005a 6115      		cp r22,__zero_reg__
 2806 005c 7105      		cpc r23,__zero_reg__
 2807 005e 01F4      		brne .L253
 2808               	.L248:
 2809               	.LBB401:
 2810               	.LBB402:
 467:LUFA-111009/LUFA/Drivers/USB/Core/AVR8/../AVR8/../AVR8/Endpoint_AVR8.h **** 				return ((UEINTX & (1 << TXINI)) ? true : false);
 2811               		.loc 2 467 0
 2812 0060 8091 E800 		lds r24,232
 2813               	.LBE402:
 2814               	.LBE401:
  65:LUFA-111009/LUFA/Drivers/USB/Core/AVR8/Template/Template_Endpoint_Control_R.c **** 	while (!(Endpoint_IsINReady()))
 2815               		.loc 5 65 0
 2816 0064 80FD      		sbrc r24,0
 2817 0066 00C0      		rjmp .L246
 2818               	.LBB403:
  67:LUFA-111009/LUFA/Drivers/USB/Core/AVR8/Template/Template_Endpoint_Control_R.c **** 		uint8_t USB_DeviceState_LCL = USB_DeviceState;
