   1               		.file	"USBInterrupt_AVR8.c"
   2               	__SP_H__ = 0x3e
   3               	__SP_L__ = 0x3d
   4               	__SREG__ = 0x3f
   5               	__tmp_reg__ = 0
   6               	__zero_reg__ = 1
   7               		.text
   8               	.Ltext0:
   9               		.cfi_sections	.debug_frame
  10               		.section	.text.USB_INT_DisableAllInterrupts,"ax",@progbits
  11               	.global	USB_INT_DisableAllInterrupts
  13               	USB_INT_DisableAllInterrupts:
  14               	.LFB81:
  15               		.file 1 "LUFA-111009/LUFA/Drivers/USB/Core/AVR8/USBInterrupt_AVR8.c"
   1:LUFA-111009/LUFA/Drivers/USB/Core/AVR8/USBInterrupt_AVR8.c **** /*
   2:LUFA-111009/LUFA/Drivers/USB/Core/AVR8/USBInterrupt_AVR8.c ****              LUFA Library
   3:LUFA-111009/LUFA/Drivers/USB/Core/AVR8/USBInterrupt_AVR8.c ****      Copyright (C) Dean Camera, 2011.
   4:LUFA-111009/LUFA/Drivers/USB/Core/AVR8/USBInterrupt_AVR8.c **** 
   5:LUFA-111009/LUFA/Drivers/USB/Core/AVR8/USBInterrupt_AVR8.c ****   dean [at] fourwalledcubicle [dot] com
   6:LUFA-111009/LUFA/Drivers/USB/Core/AVR8/USBInterrupt_AVR8.c ****            www.lufa-lib.org
   7:LUFA-111009/LUFA/Drivers/USB/Core/AVR8/USBInterrupt_AVR8.c **** */
   8:LUFA-111009/LUFA/Drivers/USB/Core/AVR8/USBInterrupt_AVR8.c **** 
   9:LUFA-111009/LUFA/Drivers/USB/Core/AVR8/USBInterrupt_AVR8.c **** /*
  10:LUFA-111009/LUFA/Drivers/USB/Core/AVR8/USBInterrupt_AVR8.c ****   Copyright 2011  Dean Camera (dean [at] fourwalledcubicle [dot] com)
  11:LUFA-111009/LUFA/Drivers/USB/Core/AVR8/USBInterrupt_AVR8.c **** 
  12:LUFA-111009/LUFA/Drivers/USB/Core/AVR8/USBInterrupt_AVR8.c ****   Permission to use, copy, modify, distribute, and sell this
  13:LUFA-111009/LUFA/Drivers/USB/Core/AVR8/USBInterrupt_AVR8.c ****   software and its documentation for any purpose is hereby granted
  14:LUFA-111009/LUFA/Drivers/USB/Core/AVR8/USBInterrupt_AVR8.c ****   without fee, provided that the above copyright notice appear in
  15:LUFA-111009/LUFA/Drivers/USB/Core/AVR8/USBInterrupt_AVR8.c ****   all copies and that both that the copyright notice and this
  16:LUFA-111009/LUFA/Drivers/USB/Core/AVR8/USBInterrupt_AVR8.c ****   permission notice and warranty disclaimer appear in supporting
  17:LUFA-111009/LUFA/Drivers/USB/Core/AVR8/USBInterrupt_AVR8.c ****   documentation, and that the name of the author not be used in
  18:LUFA-111009/LUFA/Drivers/USB/Core/AVR8/USBInterrupt_AVR8.c ****   advertising or publicity pertaining to distribution of the
  19:LUFA-111009/LUFA/Drivers/USB/Core/AVR8/USBInterrupt_AVR8.c ****   software without specific, written prior permission.
  20:LUFA-111009/LUFA/Drivers/USB/Core/AVR8/USBInterrupt_AVR8.c **** 
  21:LUFA-111009/LUFA/Drivers/USB/Core/AVR8/USBInterrupt_AVR8.c ****   The author disclaim all warranties with regard to this
  22:LUFA-111009/LUFA/Drivers/USB/Core/AVR8/USBInterrupt_AVR8.c ****   software, including all implied warranties of merchantability
  23:LUFA-111009/LUFA/Drivers/USB/Core/AVR8/USBInterrupt_AVR8.c ****   and fitness.  In no event shall the author be liable for any
  24:LUFA-111009/LUFA/Drivers/USB/Core/AVR8/USBInterrupt_AVR8.c ****   special, indirect or consequential damages or any damages
  25:LUFA-111009/LUFA/Drivers/USB/Core/AVR8/USBInterrupt_AVR8.c ****   whatsoever resulting from loss of use, data or profits, whether
  26:LUFA-111009/LUFA/Drivers/USB/Core/AVR8/USBInterrupt_AVR8.c ****   in an action of contract, negligence or other tortious action,
  27:LUFA-111009/LUFA/Drivers/USB/Core/AVR8/USBInterrupt_AVR8.c ****   arising out of or in connection with the use or performance of
  28:LUFA-111009/LUFA/Drivers/USB/Core/AVR8/USBInterrupt_AVR8.c ****   this software.
  29:LUFA-111009/LUFA/Drivers/USB/Core/AVR8/USBInterrupt_AVR8.c **** */
  30:LUFA-111009/LUFA/Drivers/USB/Core/AVR8/USBInterrupt_AVR8.c **** 
  31:LUFA-111009/LUFA/Drivers/USB/Core/AVR8/USBInterrupt_AVR8.c **** #define  __INCLUDE_FROM_USB_DRIVER
  32:LUFA-111009/LUFA/Drivers/USB/Core/AVR8/USBInterrupt_AVR8.c **** #include "../USBInterrupt.h"
  33:LUFA-111009/LUFA/Drivers/USB/Core/AVR8/USBInterrupt_AVR8.c **** 
  34:LUFA-111009/LUFA/Drivers/USB/Core/AVR8/USBInterrupt_AVR8.c **** void USB_INT_DisableAllInterrupts(void)
  35:LUFA-111009/LUFA/Drivers/USB/Core/AVR8/USBInterrupt_AVR8.c **** {
  16               		.loc 1 35 0
  17               		.cfi_startproc
  18               	/* prologue: function */
  19               	/* frame size = 0 */
  20               	/* stack size = 0 */
  21               	.L__stack_usage = 0
  36:LUFA-111009/LUFA/Drivers/USB/Core/AVR8/USBInterrupt_AVR8.c **** 	#if defined(USB_SERIES_6_AVR) || defined(USB_SERIES_7_AVR)
  37:LUFA-111009/LUFA/Drivers/USB/Core/AVR8/USBInterrupt_AVR8.c **** 	USBCON &= ~((1 << VBUSTE) | (1 << IDTE));
  38:LUFA-111009/LUFA/Drivers/USB/Core/AVR8/USBInterrupt_AVR8.c **** 	#elif defined(USB_SERIES_4_AVR)
  39:LUFA-111009/LUFA/Drivers/USB/Core/AVR8/USBInterrupt_AVR8.c **** 	USBCON &= ~(1 << VBUSTE);
  22               		.loc 1 39 0
  23 0000 E8ED      		ldi r30,lo8(-40)
  24 0002 F0E0      		ldi r31,0
  25 0004 8081      		ld r24,Z
  26 0006 8E7F      		andi r24,lo8(-2)
  27 0008 8083      		st Z,r24
  40:LUFA-111009/LUFA/Drivers/USB/Core/AVR8/USBInterrupt_AVR8.c **** 	#endif
  41:LUFA-111009/LUFA/Drivers/USB/Core/AVR8/USBInterrupt_AVR8.c **** 
  42:LUFA-111009/LUFA/Drivers/USB/Core/AVR8/USBInterrupt_AVR8.c **** 	#if defined(USB_CAN_BE_BOTH)
  43:LUFA-111009/LUFA/Drivers/USB/Core/AVR8/USBInterrupt_AVR8.c **** 	OTGIEN  = 0;
  44:LUFA-111009/LUFA/Drivers/USB/Core/AVR8/USBInterrupt_AVR8.c **** 	#endif
  45:LUFA-111009/LUFA/Drivers/USB/Core/AVR8/USBInterrupt_AVR8.c **** 
  46:LUFA-111009/LUFA/Drivers/USB/Core/AVR8/USBInterrupt_AVR8.c **** 	#if defined(USB_CAN_BE_HOST)
  47:LUFA-111009/LUFA/Drivers/USB/Core/AVR8/USBInterrupt_AVR8.c **** 	UHIEN   = 0;
  48:LUFA-111009/LUFA/Drivers/USB/Core/AVR8/USBInterrupt_AVR8.c **** 	#endif
  49:LUFA-111009/LUFA/Drivers/USB/Core/AVR8/USBInterrupt_AVR8.c **** 
  50:LUFA-111009/LUFA/Drivers/USB/Core/AVR8/USBInterrupt_AVR8.c **** 	#if defined(USB_CAN_BE_DEVICE)
  51:LUFA-111009/LUFA/Drivers/USB/Core/AVR8/USBInterrupt_AVR8.c **** 	UDIEN   = 0;
  28               		.loc 1 51 0
  29 000a 1092 E200 		sts 226,__zero_reg__
  30 000e 0895      		ret
  31               		.cfi_endproc
  32               	.LFE81:
  34               		.section	.text.USB_INT_ClearAllInterrupts,"ax",@progbits
  35               	.global	USB_INT_ClearAllInterrupts
  37               	USB_INT_ClearAllInterrupts:
  38               	.LFB82:
  52:LUFA-111009/LUFA/Drivers/USB/Core/AVR8/USBInterrupt_AVR8.c **** 	#endif
  53:LUFA-111009/LUFA/Drivers/USB/Core/AVR8/USBInterrupt_AVR8.c **** }
  54:LUFA-111009/LUFA/Drivers/USB/Core/AVR8/USBInterrupt_AVR8.c **** 
  55:LUFA-111009/LUFA/Drivers/USB/Core/AVR8/USBInterrupt_AVR8.c **** void USB_INT_ClearAllInterrupts(void)
  56:LUFA-111009/LUFA/Drivers/USB/Core/AVR8/USBInterrupt_AVR8.c **** {
  39               		.loc 1 56 0
  40               		.cfi_startproc
  41               	/* prologue: function */
  42               	/* frame size = 0 */
  43               	/* stack size = 0 */
  44               	.L__stack_usage = 0
  57:LUFA-111009/LUFA/Drivers/USB/Core/AVR8/USBInterrupt_AVR8.c **** 	#if defined(USB_SERIES_4_AVR) || defined(USB_SERIES_6_AVR) || defined(USB_SERIES_7_AVR)
  58:LUFA-111009/LUFA/Drivers/USB/Core/AVR8/USBInterrupt_AVR8.c **** 	USBINT = 0;
  45               		.loc 1 58 0
  46 0000 1092 DA00 		sts 218,__zero_reg__
  59:LUFA-111009/LUFA/Drivers/USB/Core/AVR8/USBInterrupt_AVR8.c **** 	#endif
  60:LUFA-111009/LUFA/Drivers/USB/Core/AVR8/USBInterrupt_AVR8.c **** 
  61:LUFA-111009/LUFA/Drivers/USB/Core/AVR8/USBInterrupt_AVR8.c **** 	#if defined(USB_CAN_BE_BOTH)
  62:LUFA-111009/LUFA/Drivers/USB/Core/AVR8/USBInterrupt_AVR8.c **** 	OTGINT = 0;
  63:LUFA-111009/LUFA/Drivers/USB/Core/AVR8/USBInterrupt_AVR8.c **** 	#endif
  64:LUFA-111009/LUFA/Drivers/USB/Core/AVR8/USBInterrupt_AVR8.c **** 
  65:LUFA-111009/LUFA/Drivers/USB/Core/AVR8/USBInterrupt_AVR8.c **** 	#if defined(USB_CAN_BE_HOST)
  66:LUFA-111009/LUFA/Drivers/USB/Core/AVR8/USBInterrupt_AVR8.c **** 	UHINT  = 0;
  67:LUFA-111009/LUFA/Drivers/USB/Core/AVR8/USBInterrupt_AVR8.c **** 	#endif
  68:LUFA-111009/LUFA/Drivers/USB/Core/AVR8/USBInterrupt_AVR8.c **** 
  69:LUFA-111009/LUFA/Drivers/USB/Core/AVR8/USBInterrupt_AVR8.c **** 	#if defined(USB_CAN_BE_DEVICE)
  70:LUFA-111009/LUFA/Drivers/USB/Core/AVR8/USBInterrupt_AVR8.c **** 	UDINT  = 0;
  47               		.loc 1 70 0
  48 0004 1092 E100 		sts 225,__zero_reg__
  49 0008 0895      		ret
  50               		.cfi_endproc
  51               	.LFE82:
  53               		.section	.text.__vector_10,"ax",@progbits
  54               	.global	__vector_10
  56               	__vector_10:
  57               	.LFB83:
  71:LUFA-111009/LUFA/Drivers/USB/Core/AVR8/USBInterrupt_AVR8.c **** 	#endif
  72:LUFA-111009/LUFA/Drivers/USB/Core/AVR8/USBInterrupt_AVR8.c **** }
  73:LUFA-111009/LUFA/Drivers/USB/Core/AVR8/USBInterrupt_AVR8.c **** 
  74:LUFA-111009/LUFA/Drivers/USB/Core/AVR8/USBInterrupt_AVR8.c **** ISR(USB_GEN_vect, ISR_BLOCK)
  75:LUFA-111009/LUFA/Drivers/USB/Core/AVR8/USBInterrupt_AVR8.c **** {
  58               		.loc 1 75 0
  59               		.cfi_startproc
  60 0000 1F92      		push r1
  61               	.LCFI0:
  62               		.cfi_def_cfa_offset 3
  63               		.cfi_offset 1, -2
  64 0002 0F92      		push r0
  65               	.LCFI1:
  66               		.cfi_def_cfa_offset 4
  67               		.cfi_offset 0, -3
  68 0004 0FB6      		in r0,__SREG__
  69 0006 0F92      		push r0
  70 0008 1124      		clr __zero_reg__
  71 000a 2F93      		push r18
  72               	.LCFI2:
  73               		.cfi_def_cfa_offset 5
  74               		.cfi_offset 18, -4
  75 000c 3F93      		push r19
  76               	.LCFI3:
  77               		.cfi_def_cfa_offset 6
  78               		.cfi_offset 19, -5
  79 000e 4F93      		push r20
  80               	.LCFI4:
  81               		.cfi_def_cfa_offset 7
  82               		.cfi_offset 20, -6
  83 0010 5F93      		push r21
  84               	.LCFI5:
  85               		.cfi_def_cfa_offset 8
  86               		.cfi_offset 21, -7
  87 0012 6F93      		push r22
  88               	.LCFI6:
  89               		.cfi_def_cfa_offset 9
  90               		.cfi_offset 22, -8
  91 0014 7F93      		push r23
  92               	.LCFI7:
  93               		.cfi_def_cfa_offset 10
  94               		.cfi_offset 23, -9
  95 0016 8F93      		push r24
  96               	.LCFI8:
  97               		.cfi_def_cfa_offset 11
  98               		.cfi_offset 24, -10
  99 0018 9F93      		push r25
 100               	.LCFI9:
 101               		.cfi_def_cfa_offset 12
 102               		.cfi_offset 25, -11
 103 001a AF93      		push r26
 104               	.LCFI10:
 105               		.cfi_def_cfa_offset 13
 106               		.cfi_offset 26, -12
 107 001c BF93      		push r27
 108               	.LCFI11:
 109               		.cfi_def_cfa_offset 14
 110               		.cfi_offset 27, -13
 111 001e EF93      		push r30
 112               	.LCFI12:
 113               		.cfi_def_cfa_offset 15
 114               		.cfi_offset 30, -14
 115 0020 FF93      		push r31
 116               	.LCFI13:
 117               		.cfi_def_cfa_offset 16
 118               		.cfi_offset 31, -15
 119               	/* prologue: Signal */
 120               	/* frame size = 0 */
 121               	/* stack size = 15 */
 122               	.L__stack_usage = 15
 123               	.LVL0:
 124               	.LBB64:
 125               	.LBB65:
 126               		.file 2 "LUFA-111009/LUFA/Drivers/USB/Core/AVR8/../AVR8/USBInterrupt_AVR8.h"
   1:LUFA-111009/LUFA/Drivers/USB/Core/AVR8/../AVR8/USBInterrupt_AVR8.h **** /*
   2:LUFA-111009/LUFA/Drivers/USB/Core/AVR8/../AVR8/USBInterrupt_AVR8.h ****              LUFA Library
   3:LUFA-111009/LUFA/Drivers/USB/Core/AVR8/../AVR8/USBInterrupt_AVR8.h ****      Copyright (C) Dean Camera, 2011.
   4:LUFA-111009/LUFA/Drivers/USB/Core/AVR8/../AVR8/USBInterrupt_AVR8.h **** 
   5:LUFA-111009/LUFA/Drivers/USB/Core/AVR8/../AVR8/USBInterrupt_AVR8.h ****   dean [at] fourwalledcubicle [dot] com
   6:LUFA-111009/LUFA/Drivers/USB/Core/AVR8/../AVR8/USBInterrupt_AVR8.h ****            www.lufa-lib.org
   7:LUFA-111009/LUFA/Drivers/USB/Core/AVR8/../AVR8/USBInterrupt_AVR8.h **** */
   8:LUFA-111009/LUFA/Drivers/USB/Core/AVR8/../AVR8/USBInterrupt_AVR8.h **** 
   9:LUFA-111009/LUFA/Drivers/USB/Core/AVR8/../AVR8/USBInterrupt_AVR8.h **** /*
  10:LUFA-111009/LUFA/Drivers/USB/Core/AVR8/../AVR8/USBInterrupt_AVR8.h ****   Copyright 2011  Dean Camera (dean [at] fourwalledcubicle [dot] com)
  11:LUFA-111009/LUFA/Drivers/USB/Core/AVR8/../AVR8/USBInterrupt_AVR8.h **** 
  12:LUFA-111009/LUFA/Drivers/USB/Core/AVR8/../AVR8/USBInterrupt_AVR8.h ****   Permission to use, copy, modify, distribute, and sell this
  13:LUFA-111009/LUFA/Drivers/USB/Core/AVR8/../AVR8/USBInterrupt_AVR8.h ****   software and its documentation for any purpose is hereby granted
  14:LUFA-111009/LUFA/Drivers/USB/Core/AVR8/../AVR8/USBInterrupt_AVR8.h ****   without fee, provided that the above copyright notice appear in
  15:LUFA-111009/LUFA/Drivers/USB/Core/AVR8/../AVR8/USBInterrupt_AVR8.h ****   all copies and that both that the copyright notice and this
  16:LUFA-111009/LUFA/Drivers/USB/Core/AVR8/../AVR8/USBInterrupt_AVR8.h ****   permission notice and warranty disclaimer appear in supporting
  17:LUFA-111009/LUFA/Drivers/USB/Core/AVR8/../AVR8/USBInterrupt_AVR8.h ****   documentation, and that the name of the author not be used in
  18:LUFA-111009/LUFA/Drivers/USB/Core/AVR8/../AVR8/USBInterrupt_AVR8.h ****   advertising or publicity pertaining to distribution of the
  19:LUFA-111009/LUFA/Drivers/USB/Core/AVR8/../AVR8/USBInterrupt_AVR8.h ****   software without specific, written prior permission.
  20:LUFA-111009/LUFA/Drivers/USB/Core/AVR8/../AVR8/USBInterrupt_AVR8.h **** 
  21:LUFA-111009/LUFA/Drivers/USB/Core/AVR8/../AVR8/USBInterrupt_AVR8.h ****   The author disclaim all warranties with regard to this
  22:LUFA-111009/LUFA/Drivers/USB/Core/AVR8/../AVR8/USBInterrupt_AVR8.h ****   software, including all implied warranties of merchantability
  23:LUFA-111009/LUFA/Drivers/USB/Core/AVR8/../AVR8/USBInterrupt_AVR8.h ****   and fitness.  In no event shall the author be liable for any
  24:LUFA-111009/LUFA/Drivers/USB/Core/AVR8/../AVR8/USBInterrupt_AVR8.h ****   special, indirect or consequential damages or any damages
  25:LUFA-111009/LUFA/Drivers/USB/Core/AVR8/../AVR8/USBInterrupt_AVR8.h ****   whatsoever resulting from loss of use, data or profits, whether
  26:LUFA-111009/LUFA/Drivers/USB/Core/AVR8/../AVR8/USBInterrupt_AVR8.h ****   in an action of contract, negligence or other tortious action,
  27:LUFA-111009/LUFA/Drivers/USB/Core/AVR8/../AVR8/USBInterrupt_AVR8.h ****   arising out of or in connection with the use or performance of
  28:LUFA-111009/LUFA/Drivers/USB/Core/AVR8/../AVR8/USBInterrupt_AVR8.h ****   this software.
  29:LUFA-111009/LUFA/Drivers/USB/Core/AVR8/../AVR8/USBInterrupt_AVR8.h **** */
  30:LUFA-111009/LUFA/Drivers/USB/Core/AVR8/../AVR8/USBInterrupt_AVR8.h **** 
  31:LUFA-111009/LUFA/Drivers/USB/Core/AVR8/../AVR8/USBInterrupt_AVR8.h **** /** \file
  32:LUFA-111009/LUFA/Drivers/USB/Core/AVR8/../AVR8/USBInterrupt_AVR8.h ****  *  \brief USB Controller Interrupt definitions for the AVR8 microcontrollers.
  33:LUFA-111009/LUFA/Drivers/USB/Core/AVR8/../AVR8/USBInterrupt_AVR8.h ****  *
  34:LUFA-111009/LUFA/Drivers/USB/Core/AVR8/../AVR8/USBInterrupt_AVR8.h ****  *  This file contains definitions required for the correct handling of low level USB service routi
  35:LUFA-111009/LUFA/Drivers/USB/Core/AVR8/../AVR8/USBInterrupt_AVR8.h ****  *  from the USB controller.
  36:LUFA-111009/LUFA/Drivers/USB/Core/AVR8/../AVR8/USBInterrupt_AVR8.h ****  *
  37:LUFA-111009/LUFA/Drivers/USB/Core/AVR8/../AVR8/USBInterrupt_AVR8.h ****  *  \note This file should not be included directly. It is automatically included as needed by the 
  38:LUFA-111009/LUFA/Drivers/USB/Core/AVR8/../AVR8/USBInterrupt_AVR8.h ****  *        dispatch header located in LUFA/Drivers/USB/USB.h.
  39:LUFA-111009/LUFA/Drivers/USB/Core/AVR8/../AVR8/USBInterrupt_AVR8.h ****  */
  40:LUFA-111009/LUFA/Drivers/USB/Core/AVR8/../AVR8/USBInterrupt_AVR8.h **** 
  41:LUFA-111009/LUFA/Drivers/USB/Core/AVR8/../AVR8/USBInterrupt_AVR8.h **** #ifndef __USBINTERRUPT_AVR8_H__
  42:LUFA-111009/LUFA/Drivers/USB/Core/AVR8/../AVR8/USBInterrupt_AVR8.h **** #define __USBINTERRUPT_AVR8_H__
  43:LUFA-111009/LUFA/Drivers/USB/Core/AVR8/../AVR8/USBInterrupt_AVR8.h **** 
  44:LUFA-111009/LUFA/Drivers/USB/Core/AVR8/../AVR8/USBInterrupt_AVR8.h **** 	/* Includes: */
  45:LUFA-111009/LUFA/Drivers/USB/Core/AVR8/../AVR8/USBInterrupt_AVR8.h **** 		#include "../../../../Common/Common.h"
  46:LUFA-111009/LUFA/Drivers/USB/Core/AVR8/../AVR8/USBInterrupt_AVR8.h **** 
  47:LUFA-111009/LUFA/Drivers/USB/Core/AVR8/../AVR8/USBInterrupt_AVR8.h **** 	/* Enable C linkage for C++ Compilers: */
  48:LUFA-111009/LUFA/Drivers/USB/Core/AVR8/../AVR8/USBInterrupt_AVR8.h **** 		#if defined(__cplusplus)
  49:LUFA-111009/LUFA/Drivers/USB/Core/AVR8/../AVR8/USBInterrupt_AVR8.h **** 			extern "C" {
  50:LUFA-111009/LUFA/Drivers/USB/Core/AVR8/../AVR8/USBInterrupt_AVR8.h **** 		#endif
  51:LUFA-111009/LUFA/Drivers/USB/Core/AVR8/../AVR8/USBInterrupt_AVR8.h **** 
  52:LUFA-111009/LUFA/Drivers/USB/Core/AVR8/../AVR8/USBInterrupt_AVR8.h **** 	/* Preprocessor Checks: */
  53:LUFA-111009/LUFA/Drivers/USB/Core/AVR8/../AVR8/USBInterrupt_AVR8.h **** 		#if !defined(__INCLUDE_FROM_USB_DRIVER)
  54:LUFA-111009/LUFA/Drivers/USB/Core/AVR8/../AVR8/USBInterrupt_AVR8.h **** 			#error Do not include this file directly. Include LUFA/Drivers/USB/USB.h instead.
  55:LUFA-111009/LUFA/Drivers/USB/Core/AVR8/../AVR8/USBInterrupt_AVR8.h **** 		#endif
  56:LUFA-111009/LUFA/Drivers/USB/Core/AVR8/../AVR8/USBInterrupt_AVR8.h **** 
  57:LUFA-111009/LUFA/Drivers/USB/Core/AVR8/../AVR8/USBInterrupt_AVR8.h **** 	/* Private Interface - For use in library only: */
  58:LUFA-111009/LUFA/Drivers/USB/Core/AVR8/../AVR8/USBInterrupt_AVR8.h **** 	#if !defined(__DOXYGEN__)
  59:LUFA-111009/LUFA/Drivers/USB/Core/AVR8/../AVR8/USBInterrupt_AVR8.h **** 		/* Enums: */
  60:LUFA-111009/LUFA/Drivers/USB/Core/AVR8/../AVR8/USBInterrupt_AVR8.h **** 			enum USB_Interrupts_t
  61:LUFA-111009/LUFA/Drivers/USB/Core/AVR8/../AVR8/USBInterrupt_AVR8.h **** 			{
  62:LUFA-111009/LUFA/Drivers/USB/Core/AVR8/../AVR8/USBInterrupt_AVR8.h **** 				#if (defined(USB_SERIES_4_AVR) || defined(USB_SERIES_6_AVR) || defined(USB_SERIES_7_AVR) || def
  63:LUFA-111009/LUFA/Drivers/USB/Core/AVR8/../AVR8/USBInterrupt_AVR8.h **** 				USB_INT_VBUSTI  = 0,
  64:LUFA-111009/LUFA/Drivers/USB/Core/AVR8/../AVR8/USBInterrupt_AVR8.h **** 				#endif
  65:LUFA-111009/LUFA/Drivers/USB/Core/AVR8/../AVR8/USBInterrupt_AVR8.h **** 				#if (defined(USB_CAN_BE_BOTH) || defined(__DOXYGEN__))
  66:LUFA-111009/LUFA/Drivers/USB/Core/AVR8/../AVR8/USBInterrupt_AVR8.h **** 				USB_INT_IDTI    = 1,
  67:LUFA-111009/LUFA/Drivers/USB/Core/AVR8/../AVR8/USBInterrupt_AVR8.h **** 				#endif
  68:LUFA-111009/LUFA/Drivers/USB/Core/AVR8/../AVR8/USBInterrupt_AVR8.h **** 				#if (defined(USB_CAN_BE_DEVICE) || defined(__DOXYGEN__))
  69:LUFA-111009/LUFA/Drivers/USB/Core/AVR8/../AVR8/USBInterrupt_AVR8.h **** 				USB_INT_WAKEUPI = 2,
  70:LUFA-111009/LUFA/Drivers/USB/Core/AVR8/../AVR8/USBInterrupt_AVR8.h **** 				USB_INT_SUSPI   = 3,
  71:LUFA-111009/LUFA/Drivers/USB/Core/AVR8/../AVR8/USBInterrupt_AVR8.h **** 				USB_INT_EORSTI  = 4,
  72:LUFA-111009/LUFA/Drivers/USB/Core/AVR8/../AVR8/USBInterrupt_AVR8.h **** 				USB_INT_SOFI    = 5,
  73:LUFA-111009/LUFA/Drivers/USB/Core/AVR8/../AVR8/USBInterrupt_AVR8.h **** 				USB_INT_RXSTPI  = 6,
  74:LUFA-111009/LUFA/Drivers/USB/Core/AVR8/../AVR8/USBInterrupt_AVR8.h **** 				#endif
  75:LUFA-111009/LUFA/Drivers/USB/Core/AVR8/../AVR8/USBInterrupt_AVR8.h **** 				#if (defined(USB_CAN_BE_HOST) || defined(__DOXYGEN__))
  76:LUFA-111009/LUFA/Drivers/USB/Core/AVR8/../AVR8/USBInterrupt_AVR8.h **** 				USB_INT_HSOFI   = 7,
  77:LUFA-111009/LUFA/Drivers/USB/Core/AVR8/../AVR8/USBInterrupt_AVR8.h **** 				USB_INT_DCONNI  = 8,
  78:LUFA-111009/LUFA/Drivers/USB/Core/AVR8/../AVR8/USBInterrupt_AVR8.h **** 				USB_INT_DDISCI  = 9,
  79:LUFA-111009/LUFA/Drivers/USB/Core/AVR8/../AVR8/USBInterrupt_AVR8.h **** 				USB_INT_RSTI    = 10,
  80:LUFA-111009/LUFA/Drivers/USB/Core/AVR8/../AVR8/USBInterrupt_AVR8.h **** 				USB_INT_BCERRI  = 11,
  81:LUFA-111009/LUFA/Drivers/USB/Core/AVR8/../AVR8/USBInterrupt_AVR8.h **** 				USB_INT_VBERRI  = 12,
  82:LUFA-111009/LUFA/Drivers/USB/Core/AVR8/../AVR8/USBInterrupt_AVR8.h **** 				USB_INT_SRPI    = 13,
  83:LUFA-111009/LUFA/Drivers/USB/Core/AVR8/../AVR8/USBInterrupt_AVR8.h **** 				#endif
  84:LUFA-111009/LUFA/Drivers/USB/Core/AVR8/../AVR8/USBInterrupt_AVR8.h **** 			};
  85:LUFA-111009/LUFA/Drivers/USB/Core/AVR8/../AVR8/USBInterrupt_AVR8.h **** 
  86:LUFA-111009/LUFA/Drivers/USB/Core/AVR8/../AVR8/USBInterrupt_AVR8.h **** 		/* Inline Functions: */
  87:LUFA-111009/LUFA/Drivers/USB/Core/AVR8/../AVR8/USBInterrupt_AVR8.h **** 			static inline void USB_INT_Enable(const uint8_t Interrupt) ATTR_ALWAYS_INLINE;
  88:LUFA-111009/LUFA/Drivers/USB/Core/AVR8/../AVR8/USBInterrupt_AVR8.h **** 			static inline void USB_INT_Enable(const uint8_t Interrupt)
  89:LUFA-111009/LUFA/Drivers/USB/Core/AVR8/../AVR8/USBInterrupt_AVR8.h **** 			{
  90:LUFA-111009/LUFA/Drivers/USB/Core/AVR8/../AVR8/USBInterrupt_AVR8.h **** 				switch (Interrupt)
  91:LUFA-111009/LUFA/Drivers/USB/Core/AVR8/../AVR8/USBInterrupt_AVR8.h **** 				{
  92:LUFA-111009/LUFA/Drivers/USB/Core/AVR8/../AVR8/USBInterrupt_AVR8.h **** 					#if (defined(USB_SERIES_4_AVR) || defined(USB_SERIES_6_AVR) || defined(USB_SERIES_7_AVR))
  93:LUFA-111009/LUFA/Drivers/USB/Core/AVR8/../AVR8/USBInterrupt_AVR8.h **** 					case USB_INT_VBUSTI:
  94:LUFA-111009/LUFA/Drivers/USB/Core/AVR8/../AVR8/USBInterrupt_AVR8.h **** 						USBCON |= (1 << VBUSTE);
  95:LUFA-111009/LUFA/Drivers/USB/Core/AVR8/../AVR8/USBInterrupt_AVR8.h **** 						break;
  96:LUFA-111009/LUFA/Drivers/USB/Core/AVR8/../AVR8/USBInterrupt_AVR8.h **** 					#endif
  97:LUFA-111009/LUFA/Drivers/USB/Core/AVR8/../AVR8/USBInterrupt_AVR8.h **** 					#if defined(USB_CAN_BE_BOTH)
  98:LUFA-111009/LUFA/Drivers/USB/Core/AVR8/../AVR8/USBInterrupt_AVR8.h **** 					case USB_INT_IDTI:
  99:LUFA-111009/LUFA/Drivers/USB/Core/AVR8/../AVR8/USBInterrupt_AVR8.h **** 						USBCON |= (1 << IDTE);
 100:LUFA-111009/LUFA/Drivers/USB/Core/AVR8/../AVR8/USBInterrupt_AVR8.h **** 						break;
 101:LUFA-111009/LUFA/Drivers/USB/Core/AVR8/../AVR8/USBInterrupt_AVR8.h **** 					#endif
 102:LUFA-111009/LUFA/Drivers/USB/Core/AVR8/../AVR8/USBInterrupt_AVR8.h **** 					#if defined(USB_CAN_BE_DEVICE)
 103:LUFA-111009/LUFA/Drivers/USB/Core/AVR8/../AVR8/USBInterrupt_AVR8.h **** 					case USB_INT_WAKEUPI:
 104:LUFA-111009/LUFA/Drivers/USB/Core/AVR8/../AVR8/USBInterrupt_AVR8.h **** 						UDIEN  |= (1 << WAKEUPE);
 105:LUFA-111009/LUFA/Drivers/USB/Core/AVR8/../AVR8/USBInterrupt_AVR8.h **** 						break;
 106:LUFA-111009/LUFA/Drivers/USB/Core/AVR8/../AVR8/USBInterrupt_AVR8.h **** 					case USB_INT_SUSPI:
 107:LUFA-111009/LUFA/Drivers/USB/Core/AVR8/../AVR8/USBInterrupt_AVR8.h **** 						UDIEN  |= (1 << SUSPE);
 108:LUFA-111009/LUFA/Drivers/USB/Core/AVR8/../AVR8/USBInterrupt_AVR8.h **** 						break;
 109:LUFA-111009/LUFA/Drivers/USB/Core/AVR8/../AVR8/USBInterrupt_AVR8.h **** 					case USB_INT_EORSTI:
 110:LUFA-111009/LUFA/Drivers/USB/Core/AVR8/../AVR8/USBInterrupt_AVR8.h **** 						UDIEN  |= (1 << EORSTE);
 111:LUFA-111009/LUFA/Drivers/USB/Core/AVR8/../AVR8/USBInterrupt_AVR8.h **** 						break;
 112:LUFA-111009/LUFA/Drivers/USB/Core/AVR8/../AVR8/USBInterrupt_AVR8.h **** 					case USB_INT_SOFI:
 113:LUFA-111009/LUFA/Drivers/USB/Core/AVR8/../AVR8/USBInterrupt_AVR8.h **** 						UDIEN  |= (1 << SOFE);
 114:LUFA-111009/LUFA/Drivers/USB/Core/AVR8/../AVR8/USBInterrupt_AVR8.h **** 						break;
 115:LUFA-111009/LUFA/Drivers/USB/Core/AVR8/../AVR8/USBInterrupt_AVR8.h **** 					case USB_INT_RXSTPI:
 116:LUFA-111009/LUFA/Drivers/USB/Core/AVR8/../AVR8/USBInterrupt_AVR8.h **** 						UEIENX |= (1 << RXSTPE);
 117:LUFA-111009/LUFA/Drivers/USB/Core/AVR8/../AVR8/USBInterrupt_AVR8.h **** 						break;
 118:LUFA-111009/LUFA/Drivers/USB/Core/AVR8/../AVR8/USBInterrupt_AVR8.h **** 					#endif
 119:LUFA-111009/LUFA/Drivers/USB/Core/AVR8/../AVR8/USBInterrupt_AVR8.h **** 					#if defined(USB_CAN_BE_HOST)
 120:LUFA-111009/LUFA/Drivers/USB/Core/AVR8/../AVR8/USBInterrupt_AVR8.h **** 					case USB_INT_HSOFI:
 121:LUFA-111009/LUFA/Drivers/USB/Core/AVR8/../AVR8/USBInterrupt_AVR8.h **** 						UHIEN  |= (1 << HSOFE);
 122:LUFA-111009/LUFA/Drivers/USB/Core/AVR8/../AVR8/USBInterrupt_AVR8.h **** 						break;
 123:LUFA-111009/LUFA/Drivers/USB/Core/AVR8/../AVR8/USBInterrupt_AVR8.h **** 					case USB_INT_DCONNI:
 124:LUFA-111009/LUFA/Drivers/USB/Core/AVR8/../AVR8/USBInterrupt_AVR8.h **** 						UHIEN  |= (1 << DCONNE);
 125:LUFA-111009/LUFA/Drivers/USB/Core/AVR8/../AVR8/USBInterrupt_AVR8.h **** 						break;
 126:LUFA-111009/LUFA/Drivers/USB/Core/AVR8/../AVR8/USBInterrupt_AVR8.h **** 					case USB_INT_DDISCI:
 127:LUFA-111009/LUFA/Drivers/USB/Core/AVR8/../AVR8/USBInterrupt_AVR8.h **** 						UHIEN  |= (1 << DDISCE);
 128:LUFA-111009/LUFA/Drivers/USB/Core/AVR8/../AVR8/USBInterrupt_AVR8.h **** 						break;
 129:LUFA-111009/LUFA/Drivers/USB/Core/AVR8/../AVR8/USBInterrupt_AVR8.h **** 					case USB_INT_RSTI:
 130:LUFA-111009/LUFA/Drivers/USB/Core/AVR8/../AVR8/USBInterrupt_AVR8.h **** 						UHIEN  |= (1 << RSTE);
 131:LUFA-111009/LUFA/Drivers/USB/Core/AVR8/../AVR8/USBInterrupt_AVR8.h **** 						break;
 132:LUFA-111009/LUFA/Drivers/USB/Core/AVR8/../AVR8/USBInterrupt_AVR8.h **** 					case USB_INT_BCERRI:
 133:LUFA-111009/LUFA/Drivers/USB/Core/AVR8/../AVR8/USBInterrupt_AVR8.h **** 						OTGIEN |= (1 << BCERRE);
 134:LUFA-111009/LUFA/Drivers/USB/Core/AVR8/../AVR8/USBInterrupt_AVR8.h **** 						break;
 135:LUFA-111009/LUFA/Drivers/USB/Core/AVR8/../AVR8/USBInterrupt_AVR8.h **** 					case USB_INT_VBERRI:
 136:LUFA-111009/LUFA/Drivers/USB/Core/AVR8/../AVR8/USBInterrupt_AVR8.h **** 						OTGIEN |= (1 << VBERRE);
 137:LUFA-111009/LUFA/Drivers/USB/Core/AVR8/../AVR8/USBInterrupt_AVR8.h **** 						break;
 138:LUFA-111009/LUFA/Drivers/USB/Core/AVR8/../AVR8/USBInterrupt_AVR8.h **** 					case USB_INT_SRPI:
 139:LUFA-111009/LUFA/Drivers/USB/Core/AVR8/../AVR8/USBInterrupt_AVR8.h **** 						OTGIEN |= (1 << SRPE);						
 140:LUFA-111009/LUFA/Drivers/USB/Core/AVR8/../AVR8/USBInterrupt_AVR8.h **** 						break;
 141:LUFA-111009/LUFA/Drivers/USB/Core/AVR8/../AVR8/USBInterrupt_AVR8.h **** 					#endif
 142:LUFA-111009/LUFA/Drivers/USB/Core/AVR8/../AVR8/USBInterrupt_AVR8.h **** 				}
 143:LUFA-111009/LUFA/Drivers/USB/Core/AVR8/../AVR8/USBInterrupt_AVR8.h **** 			}
 144:LUFA-111009/LUFA/Drivers/USB/Core/AVR8/../AVR8/USBInterrupt_AVR8.h **** 
 145:LUFA-111009/LUFA/Drivers/USB/Core/AVR8/../AVR8/USBInterrupt_AVR8.h **** 			static inline void USB_INT_Disable(const uint8_t Interrupt) ATTR_ALWAYS_INLINE;
 146:LUFA-111009/LUFA/Drivers/USB/Core/AVR8/../AVR8/USBInterrupt_AVR8.h **** 			static inline void USB_INT_Disable(const uint8_t Interrupt)
 147:LUFA-111009/LUFA/Drivers/USB/Core/AVR8/../AVR8/USBInterrupt_AVR8.h **** 			{
 148:LUFA-111009/LUFA/Drivers/USB/Core/AVR8/../AVR8/USBInterrupt_AVR8.h **** 				switch (Interrupt)
 149:LUFA-111009/LUFA/Drivers/USB/Core/AVR8/../AVR8/USBInterrupt_AVR8.h **** 				{
 150:LUFA-111009/LUFA/Drivers/USB/Core/AVR8/../AVR8/USBInterrupt_AVR8.h **** 					#if (defined(USB_SERIES_4_AVR) || defined(USB_SERIES_6_AVR) || defined(USB_SERIES_7_AVR))
 151:LUFA-111009/LUFA/Drivers/USB/Core/AVR8/../AVR8/USBInterrupt_AVR8.h **** 					case USB_INT_VBUSTI:
 152:LUFA-111009/LUFA/Drivers/USB/Core/AVR8/../AVR8/USBInterrupt_AVR8.h **** 						USBCON &= ~(1 << VBUSTE);
 153:LUFA-111009/LUFA/Drivers/USB/Core/AVR8/../AVR8/USBInterrupt_AVR8.h **** 						break;
 154:LUFA-111009/LUFA/Drivers/USB/Core/AVR8/../AVR8/USBInterrupt_AVR8.h **** 					#endif
 155:LUFA-111009/LUFA/Drivers/USB/Core/AVR8/../AVR8/USBInterrupt_AVR8.h **** 					#if defined(USB_CAN_BE_BOTH)
 156:LUFA-111009/LUFA/Drivers/USB/Core/AVR8/../AVR8/USBInterrupt_AVR8.h **** 					case USB_INT_IDTI:
 157:LUFA-111009/LUFA/Drivers/USB/Core/AVR8/../AVR8/USBInterrupt_AVR8.h **** 						USBCON &= ~(1 << IDTE);
 158:LUFA-111009/LUFA/Drivers/USB/Core/AVR8/../AVR8/USBInterrupt_AVR8.h **** 						break;
 159:LUFA-111009/LUFA/Drivers/USB/Core/AVR8/../AVR8/USBInterrupt_AVR8.h **** 					#endif
 160:LUFA-111009/LUFA/Drivers/USB/Core/AVR8/../AVR8/USBInterrupt_AVR8.h **** 					#if defined(USB_CAN_BE_DEVICE)
 161:LUFA-111009/LUFA/Drivers/USB/Core/AVR8/../AVR8/USBInterrupt_AVR8.h **** 					case USB_INT_WAKEUPI:
 162:LUFA-111009/LUFA/Drivers/USB/Core/AVR8/../AVR8/USBInterrupt_AVR8.h **** 						UDIEN  &= ~(1 << WAKEUPE);
 163:LUFA-111009/LUFA/Drivers/USB/Core/AVR8/../AVR8/USBInterrupt_AVR8.h **** 						break;
 164:LUFA-111009/LUFA/Drivers/USB/Core/AVR8/../AVR8/USBInterrupt_AVR8.h **** 					case USB_INT_SUSPI:
 165:LUFA-111009/LUFA/Drivers/USB/Core/AVR8/../AVR8/USBInterrupt_AVR8.h **** 						UDIEN  &= ~(1 << SUSPE);
 166:LUFA-111009/LUFA/Drivers/USB/Core/AVR8/../AVR8/USBInterrupt_AVR8.h **** 						break;
 167:LUFA-111009/LUFA/Drivers/USB/Core/AVR8/../AVR8/USBInterrupt_AVR8.h **** 					case USB_INT_EORSTI:
 168:LUFA-111009/LUFA/Drivers/USB/Core/AVR8/../AVR8/USBInterrupt_AVR8.h **** 						UDIEN  &= ~(1 << EORSTE);
 169:LUFA-111009/LUFA/Drivers/USB/Core/AVR8/../AVR8/USBInterrupt_AVR8.h **** 						break;
 170:LUFA-111009/LUFA/Drivers/USB/Core/AVR8/../AVR8/USBInterrupt_AVR8.h **** 					case USB_INT_SOFI:
 171:LUFA-111009/LUFA/Drivers/USB/Core/AVR8/../AVR8/USBInterrupt_AVR8.h **** 						UDIEN  &= ~(1 << SOFE);
 172:LUFA-111009/LUFA/Drivers/USB/Core/AVR8/../AVR8/USBInterrupt_AVR8.h **** 						break;
 173:LUFA-111009/LUFA/Drivers/USB/Core/AVR8/../AVR8/USBInterrupt_AVR8.h **** 					case USB_INT_RXSTPI:
 174:LUFA-111009/LUFA/Drivers/USB/Core/AVR8/../AVR8/USBInterrupt_AVR8.h **** 						UEIENX &= ~(1 << RXSTPE);
 175:LUFA-111009/LUFA/Drivers/USB/Core/AVR8/../AVR8/USBInterrupt_AVR8.h **** 						break;
 176:LUFA-111009/LUFA/Drivers/USB/Core/AVR8/../AVR8/USBInterrupt_AVR8.h **** 					#endif
 177:LUFA-111009/LUFA/Drivers/USB/Core/AVR8/../AVR8/USBInterrupt_AVR8.h **** 					#if defined(USB_CAN_BE_HOST)
 178:LUFA-111009/LUFA/Drivers/USB/Core/AVR8/../AVR8/USBInterrupt_AVR8.h **** 					case USB_INT_HSOFI:
 179:LUFA-111009/LUFA/Drivers/USB/Core/AVR8/../AVR8/USBInterrupt_AVR8.h **** 						UHIEN  &= ~(1 << HSOFE);
 180:LUFA-111009/LUFA/Drivers/USB/Core/AVR8/../AVR8/USBInterrupt_AVR8.h **** 						break;
 181:LUFA-111009/LUFA/Drivers/USB/Core/AVR8/../AVR8/USBInterrupt_AVR8.h **** 					case USB_INT_DCONNI:
 182:LUFA-111009/LUFA/Drivers/USB/Core/AVR8/../AVR8/USBInterrupt_AVR8.h **** 						UHIEN  &= ~(1 << DCONNE);
 183:LUFA-111009/LUFA/Drivers/USB/Core/AVR8/../AVR8/USBInterrupt_AVR8.h **** 						break;
 184:LUFA-111009/LUFA/Drivers/USB/Core/AVR8/../AVR8/USBInterrupt_AVR8.h **** 					case USB_INT_DDISCI:
 185:LUFA-111009/LUFA/Drivers/USB/Core/AVR8/../AVR8/USBInterrupt_AVR8.h **** 						UHIEN  &= ~(1 << DDISCE);
 186:LUFA-111009/LUFA/Drivers/USB/Core/AVR8/../AVR8/USBInterrupt_AVR8.h **** 						break;
 187:LUFA-111009/LUFA/Drivers/USB/Core/AVR8/../AVR8/USBInterrupt_AVR8.h **** 					case USB_INT_RSTI:
 188:LUFA-111009/LUFA/Drivers/USB/Core/AVR8/../AVR8/USBInterrupt_AVR8.h **** 						UHIEN  &= ~(1 << RSTE);
 189:LUFA-111009/LUFA/Drivers/USB/Core/AVR8/../AVR8/USBInterrupt_AVR8.h **** 						break;
 190:LUFA-111009/LUFA/Drivers/USB/Core/AVR8/../AVR8/USBInterrupt_AVR8.h **** 					case USB_INT_BCERRI:
 191:LUFA-111009/LUFA/Drivers/USB/Core/AVR8/../AVR8/USBInterrupt_AVR8.h **** 						OTGIEN &= ~(1 << BCERRE);
 192:LUFA-111009/LUFA/Drivers/USB/Core/AVR8/../AVR8/USBInterrupt_AVR8.h **** 						break;
 193:LUFA-111009/LUFA/Drivers/USB/Core/AVR8/../AVR8/USBInterrupt_AVR8.h **** 					case USB_INT_VBERRI:
 194:LUFA-111009/LUFA/Drivers/USB/Core/AVR8/../AVR8/USBInterrupt_AVR8.h **** 						OTGIEN &= ~(1 << VBERRE);
 195:LUFA-111009/LUFA/Drivers/USB/Core/AVR8/../AVR8/USBInterrupt_AVR8.h **** 						break;
 196:LUFA-111009/LUFA/Drivers/USB/Core/AVR8/../AVR8/USBInterrupt_AVR8.h **** 					case USB_INT_SRPI:
 197:LUFA-111009/LUFA/Drivers/USB/Core/AVR8/../AVR8/USBInterrupt_AVR8.h **** 						OTGIEN &= ~(1 << SRPE);						
 198:LUFA-111009/LUFA/Drivers/USB/Core/AVR8/../AVR8/USBInterrupt_AVR8.h **** 						break;
 199:LUFA-111009/LUFA/Drivers/USB/Core/AVR8/../AVR8/USBInterrupt_AVR8.h **** 					#endif
 200:LUFA-111009/LUFA/Drivers/USB/Core/AVR8/../AVR8/USBInterrupt_AVR8.h **** 				}
 201:LUFA-111009/LUFA/Drivers/USB/Core/AVR8/../AVR8/USBInterrupt_AVR8.h **** 			}
 202:LUFA-111009/LUFA/Drivers/USB/Core/AVR8/../AVR8/USBInterrupt_AVR8.h **** 			
 203:LUFA-111009/LUFA/Drivers/USB/Core/AVR8/../AVR8/USBInterrupt_AVR8.h **** 			static inline void USB_INT_Clear(const uint8_t Interrupt) ATTR_ALWAYS_INLINE;
 204:LUFA-111009/LUFA/Drivers/USB/Core/AVR8/../AVR8/USBInterrupt_AVR8.h **** 			static inline void USB_INT_Clear(const uint8_t Interrupt)
 205:LUFA-111009/LUFA/Drivers/USB/Core/AVR8/../AVR8/USBInterrupt_AVR8.h **** 			{
 206:LUFA-111009/LUFA/Drivers/USB/Core/AVR8/../AVR8/USBInterrupt_AVR8.h **** 				switch (Interrupt)
 207:LUFA-111009/LUFA/Drivers/USB/Core/AVR8/../AVR8/USBInterrupt_AVR8.h **** 				{
 208:LUFA-111009/LUFA/Drivers/USB/Core/AVR8/../AVR8/USBInterrupt_AVR8.h **** 					#if (defined(USB_SERIES_4_AVR) || defined(USB_SERIES_6_AVR) || defined(USB_SERIES_7_AVR))
 209:LUFA-111009/LUFA/Drivers/USB/Core/AVR8/../AVR8/USBInterrupt_AVR8.h **** 					case USB_INT_VBUSTI:
 210:LUFA-111009/LUFA/Drivers/USB/Core/AVR8/../AVR8/USBInterrupt_AVR8.h **** 						USBINT &= ~(1 << VBUSTI);
 211:LUFA-111009/LUFA/Drivers/USB/Core/AVR8/../AVR8/USBInterrupt_AVR8.h **** 						break;
 212:LUFA-111009/LUFA/Drivers/USB/Core/AVR8/../AVR8/USBInterrupt_AVR8.h **** 					#endif
 213:LUFA-111009/LUFA/Drivers/USB/Core/AVR8/../AVR8/USBInterrupt_AVR8.h **** 					#if defined(USB_CAN_BE_BOTH)
 214:LUFA-111009/LUFA/Drivers/USB/Core/AVR8/../AVR8/USBInterrupt_AVR8.h **** 					case USB_INT_IDTI:
 215:LUFA-111009/LUFA/Drivers/USB/Core/AVR8/../AVR8/USBInterrupt_AVR8.h **** 						USBINT &= ~(1 << IDTI);
 216:LUFA-111009/LUFA/Drivers/USB/Core/AVR8/../AVR8/USBInterrupt_AVR8.h **** 						break;
 217:LUFA-111009/LUFA/Drivers/USB/Core/AVR8/../AVR8/USBInterrupt_AVR8.h **** 					#endif
 218:LUFA-111009/LUFA/Drivers/USB/Core/AVR8/../AVR8/USBInterrupt_AVR8.h **** 					#if defined(USB_CAN_BE_DEVICE)
 219:LUFA-111009/LUFA/Drivers/USB/Core/AVR8/../AVR8/USBInterrupt_AVR8.h **** 					case USB_INT_WAKEUPI:
 220:LUFA-111009/LUFA/Drivers/USB/Core/AVR8/../AVR8/USBInterrupt_AVR8.h **** 						UDINT  &= ~(1 << WAKEUPI);
 221:LUFA-111009/LUFA/Drivers/USB/Core/AVR8/../AVR8/USBInterrupt_AVR8.h **** 						break;
 222:LUFA-111009/LUFA/Drivers/USB/Core/AVR8/../AVR8/USBInterrupt_AVR8.h **** 					case USB_INT_SUSPI:
 223:LUFA-111009/LUFA/Drivers/USB/Core/AVR8/../AVR8/USBInterrupt_AVR8.h **** 						UDINT  &= ~(1 << SUSPI);
 224:LUFA-111009/LUFA/Drivers/USB/Core/AVR8/../AVR8/USBInterrupt_AVR8.h **** 						break;
 225:LUFA-111009/LUFA/Drivers/USB/Core/AVR8/../AVR8/USBInterrupt_AVR8.h **** 					case USB_INT_EORSTI:
 226:LUFA-111009/LUFA/Drivers/USB/Core/AVR8/../AVR8/USBInterrupt_AVR8.h **** 						UDINT  &= ~(1 << EORSTI);
 227:LUFA-111009/LUFA/Drivers/USB/Core/AVR8/../AVR8/USBInterrupt_AVR8.h **** 						break;
 228:LUFA-111009/LUFA/Drivers/USB/Core/AVR8/../AVR8/USBInterrupt_AVR8.h **** 					case USB_INT_SOFI:
 229:LUFA-111009/LUFA/Drivers/USB/Core/AVR8/../AVR8/USBInterrupt_AVR8.h **** 						UDINT  &= ~(1 << SOFI);
 230:LUFA-111009/LUFA/Drivers/USB/Core/AVR8/../AVR8/USBInterrupt_AVR8.h **** 						break;
 231:LUFA-111009/LUFA/Drivers/USB/Core/AVR8/../AVR8/USBInterrupt_AVR8.h **** 					case USB_INT_RXSTPI:
 232:LUFA-111009/LUFA/Drivers/USB/Core/AVR8/../AVR8/USBInterrupt_AVR8.h **** 						UEINTX &= ~(1 << RXSTPI);
 233:LUFA-111009/LUFA/Drivers/USB/Core/AVR8/../AVR8/USBInterrupt_AVR8.h **** 						break;
 234:LUFA-111009/LUFA/Drivers/USB/Core/AVR8/../AVR8/USBInterrupt_AVR8.h **** 					#endif
 235:LUFA-111009/LUFA/Drivers/USB/Core/AVR8/../AVR8/USBInterrupt_AVR8.h **** 					#if defined(USB_CAN_BE_HOST)
 236:LUFA-111009/LUFA/Drivers/USB/Core/AVR8/../AVR8/USBInterrupt_AVR8.h **** 					case USB_INT_HSOFI:
 237:LUFA-111009/LUFA/Drivers/USB/Core/AVR8/../AVR8/USBInterrupt_AVR8.h **** 						UHINT  &= ~(1 << HSOFI);
 238:LUFA-111009/LUFA/Drivers/USB/Core/AVR8/../AVR8/USBInterrupt_AVR8.h **** 						break;
 239:LUFA-111009/LUFA/Drivers/USB/Core/AVR8/../AVR8/USBInterrupt_AVR8.h **** 					case USB_INT_DCONNI:
 240:LUFA-111009/LUFA/Drivers/USB/Core/AVR8/../AVR8/USBInterrupt_AVR8.h **** 						UHINT  &= ~(1 << DCONNI);
 241:LUFA-111009/LUFA/Drivers/USB/Core/AVR8/../AVR8/USBInterrupt_AVR8.h **** 						break;
 242:LUFA-111009/LUFA/Drivers/USB/Core/AVR8/../AVR8/USBInterrupt_AVR8.h **** 					case USB_INT_DDISCI:
 243:LUFA-111009/LUFA/Drivers/USB/Core/AVR8/../AVR8/USBInterrupt_AVR8.h **** 						UHINT  &= ~(1 << DDISCI);
 244:LUFA-111009/LUFA/Drivers/USB/Core/AVR8/../AVR8/USBInterrupt_AVR8.h **** 						break;
 245:LUFA-111009/LUFA/Drivers/USB/Core/AVR8/../AVR8/USBInterrupt_AVR8.h **** 					case USB_INT_RSTI:
 246:LUFA-111009/LUFA/Drivers/USB/Core/AVR8/../AVR8/USBInterrupt_AVR8.h **** 						UHINT  &= ~(1 << RSTI);
 247:LUFA-111009/LUFA/Drivers/USB/Core/AVR8/../AVR8/USBInterrupt_AVR8.h **** 						break;
 248:LUFA-111009/LUFA/Drivers/USB/Core/AVR8/../AVR8/USBInterrupt_AVR8.h **** 					case USB_INT_BCERRI:
 249:LUFA-111009/LUFA/Drivers/USB/Core/AVR8/../AVR8/USBInterrupt_AVR8.h **** 						OTGINT &= ~(1 << BCERRI);
 250:LUFA-111009/LUFA/Drivers/USB/Core/AVR8/../AVR8/USBInterrupt_AVR8.h **** 						break;
 251:LUFA-111009/LUFA/Drivers/USB/Core/AVR8/../AVR8/USBInterrupt_AVR8.h **** 					case USB_INT_VBERRI:
 252:LUFA-111009/LUFA/Drivers/USB/Core/AVR8/../AVR8/USBInterrupt_AVR8.h **** 						OTGINT &= ~(1 << VBERRI);
 253:LUFA-111009/LUFA/Drivers/USB/Core/AVR8/../AVR8/USBInterrupt_AVR8.h **** 						break;
 254:LUFA-111009/LUFA/Drivers/USB/Core/AVR8/../AVR8/USBInterrupt_AVR8.h **** 					case USB_INT_SRPI:
 255:LUFA-111009/LUFA/Drivers/USB/Core/AVR8/../AVR8/USBInterrupt_AVR8.h **** 						OTGINT &= ~(1 << SRPI);
 256:LUFA-111009/LUFA/Drivers/USB/Core/AVR8/../AVR8/USBInterrupt_AVR8.h **** 						break;
 257:LUFA-111009/LUFA/Drivers/USB/Core/AVR8/../AVR8/USBInterrupt_AVR8.h **** 					#endif
 258:LUFA-111009/LUFA/Drivers/USB/Core/AVR8/../AVR8/USBInterrupt_AVR8.h **** 				}
 259:LUFA-111009/LUFA/Drivers/USB/Core/AVR8/../AVR8/USBInterrupt_AVR8.h **** 			}
 260:LUFA-111009/LUFA/Drivers/USB/Core/AVR8/../AVR8/USBInterrupt_AVR8.h **** 			
 261:LUFA-111009/LUFA/Drivers/USB/Core/AVR8/../AVR8/USBInterrupt_AVR8.h **** 			static inline bool USB_INT_IsEnabled(const uint8_t Interrupt) ATTR_ALWAYS_INLINE ATTR_WARN_UNUSE
 262:LUFA-111009/LUFA/Drivers/USB/Core/AVR8/../AVR8/USBInterrupt_AVR8.h **** 			static inline bool USB_INT_IsEnabled(const uint8_t Interrupt)
 263:LUFA-111009/LUFA/Drivers/USB/Core/AVR8/../AVR8/USBInterrupt_AVR8.h **** 			{
 264:LUFA-111009/LUFA/Drivers/USB/Core/AVR8/../AVR8/USBInterrupt_AVR8.h **** 				switch (Interrupt)
 265:LUFA-111009/LUFA/Drivers/USB/Core/AVR8/../AVR8/USBInterrupt_AVR8.h **** 				{
 266:LUFA-111009/LUFA/Drivers/USB/Core/AVR8/../AVR8/USBInterrupt_AVR8.h **** 					#if (defined(USB_SERIES_4_AVR) || defined(USB_SERIES_6_AVR) || defined(USB_SERIES_7_AVR))
 267:LUFA-111009/LUFA/Drivers/USB/Core/AVR8/../AVR8/USBInterrupt_AVR8.h **** 					case USB_INT_VBUSTI:
 268:LUFA-111009/LUFA/Drivers/USB/Core/AVR8/../AVR8/USBInterrupt_AVR8.h **** 						return (USBCON & (1 << VBUSTE));
 269:LUFA-111009/LUFA/Drivers/USB/Core/AVR8/../AVR8/USBInterrupt_AVR8.h **** 					#endif
 270:LUFA-111009/LUFA/Drivers/USB/Core/AVR8/../AVR8/USBInterrupt_AVR8.h **** 					#if defined(USB_CAN_BE_BOTH)
 271:LUFA-111009/LUFA/Drivers/USB/Core/AVR8/../AVR8/USBInterrupt_AVR8.h **** 					case USB_INT_IDTI:
 272:LUFA-111009/LUFA/Drivers/USB/Core/AVR8/../AVR8/USBInterrupt_AVR8.h **** 						return (USBCON & (1 << IDTE));
 273:LUFA-111009/LUFA/Drivers/USB/Core/AVR8/../AVR8/USBInterrupt_AVR8.h **** 					#endif
 274:LUFA-111009/LUFA/Drivers/USB/Core/AVR8/../AVR8/USBInterrupt_AVR8.h **** 					#if defined(USB_CAN_BE_DEVICE)
 275:LUFA-111009/LUFA/Drivers/USB/Core/AVR8/../AVR8/USBInterrupt_AVR8.h **** 					case USB_INT_WAKEUPI:
 276:LUFA-111009/LUFA/Drivers/USB/Core/AVR8/../AVR8/USBInterrupt_AVR8.h **** 						return (UDIEN  & (1 << WAKEUPE));
 277:LUFA-111009/LUFA/Drivers/USB/Core/AVR8/../AVR8/USBInterrupt_AVR8.h **** 					case USB_INT_SUSPI:
 278:LUFA-111009/LUFA/Drivers/USB/Core/AVR8/../AVR8/USBInterrupt_AVR8.h **** 						return (UDIEN  & (1 << SUSPE));
 279:LUFA-111009/LUFA/Drivers/USB/Core/AVR8/../AVR8/USBInterrupt_AVR8.h **** 					case USB_INT_EORSTI:
 280:LUFA-111009/LUFA/Drivers/USB/Core/AVR8/../AVR8/USBInterrupt_AVR8.h **** 						return (UDIEN  & (1 << EORSTE));
 281:LUFA-111009/LUFA/Drivers/USB/Core/AVR8/../AVR8/USBInterrupt_AVR8.h **** 					case USB_INT_SOFI:
 282:LUFA-111009/LUFA/Drivers/USB/Core/AVR8/../AVR8/USBInterrupt_AVR8.h **** 						return (UDIEN  & (1 << SOFE));
 283:LUFA-111009/LUFA/Drivers/USB/Core/AVR8/../AVR8/USBInterrupt_AVR8.h **** 					case USB_INT_RXSTPI:
 284:LUFA-111009/LUFA/Drivers/USB/Core/AVR8/../AVR8/USBInterrupt_AVR8.h **** 						return (UEIENX & (1 << RXSTPE));
 285:LUFA-111009/LUFA/Drivers/USB/Core/AVR8/../AVR8/USBInterrupt_AVR8.h **** 					#endif
 286:LUFA-111009/LUFA/Drivers/USB/Core/AVR8/../AVR8/USBInterrupt_AVR8.h **** 					#if defined(USB_CAN_BE_HOST)
 287:LUFA-111009/LUFA/Drivers/USB/Core/AVR8/../AVR8/USBInterrupt_AVR8.h **** 					case USB_INT_HSOFI:
 288:LUFA-111009/LUFA/Drivers/USB/Core/AVR8/../AVR8/USBInterrupt_AVR8.h **** 						return (UHIEN  & (1 << HSOFE));
 289:LUFA-111009/LUFA/Drivers/USB/Core/AVR8/../AVR8/USBInterrupt_AVR8.h **** 					case USB_INT_DCONNI:
 290:LUFA-111009/LUFA/Drivers/USB/Core/AVR8/../AVR8/USBInterrupt_AVR8.h **** 						return (UHIEN  & (1 << DCONNE));
 291:LUFA-111009/LUFA/Drivers/USB/Core/AVR8/../AVR8/USBInterrupt_AVR8.h **** 					case USB_INT_DDISCI:
 292:LUFA-111009/LUFA/Drivers/USB/Core/AVR8/../AVR8/USBInterrupt_AVR8.h **** 						return (UHIEN  & (1 << DDISCE));
 293:LUFA-111009/LUFA/Drivers/USB/Core/AVR8/../AVR8/USBInterrupt_AVR8.h **** 					case USB_INT_RSTI:
 294:LUFA-111009/LUFA/Drivers/USB/Core/AVR8/../AVR8/USBInterrupt_AVR8.h **** 						return (UHIEN  & (1 << RSTE));
 295:LUFA-111009/LUFA/Drivers/USB/Core/AVR8/../AVR8/USBInterrupt_AVR8.h **** 					case USB_INT_BCERRI:
 296:LUFA-111009/LUFA/Drivers/USB/Core/AVR8/../AVR8/USBInterrupt_AVR8.h **** 						return (OTGIEN & (1 << BCERRE));
 297:LUFA-111009/LUFA/Drivers/USB/Core/AVR8/../AVR8/USBInterrupt_AVR8.h **** 					case USB_INT_VBERRI:
 298:LUFA-111009/LUFA/Drivers/USB/Core/AVR8/../AVR8/USBInterrupt_AVR8.h **** 						return (OTGIEN & (1 << VBERRE));
 299:LUFA-111009/LUFA/Drivers/USB/Core/AVR8/../AVR8/USBInterrupt_AVR8.h **** 					case USB_INT_SRPI:
 300:LUFA-111009/LUFA/Drivers/USB/Core/AVR8/../AVR8/USBInterrupt_AVR8.h **** 						return (OTGIEN & (1 << SRPE));
 301:LUFA-111009/LUFA/Drivers/USB/Core/AVR8/../AVR8/USBInterrupt_AVR8.h **** 					#endif
 302:LUFA-111009/LUFA/Drivers/USB/Core/AVR8/../AVR8/USBInterrupt_AVR8.h **** 				}
 303:LUFA-111009/LUFA/Drivers/USB/Core/AVR8/../AVR8/USBInterrupt_AVR8.h **** 				
 304:LUFA-111009/LUFA/Drivers/USB/Core/AVR8/../AVR8/USBInterrupt_AVR8.h **** 				return false;
 305:LUFA-111009/LUFA/Drivers/USB/Core/AVR8/../AVR8/USBInterrupt_AVR8.h **** 			}
 306:LUFA-111009/LUFA/Drivers/USB/Core/AVR8/../AVR8/USBInterrupt_AVR8.h **** 		
 307:LUFA-111009/LUFA/Drivers/USB/Core/AVR8/../AVR8/USBInterrupt_AVR8.h **** 			static inline bool USB_INT_HasOccurred(const uint8_t Interrupt) ATTR_ALWAYS_INLINE ATTR_WARN_UNU
 308:LUFA-111009/LUFA/Drivers/USB/Core/AVR8/../AVR8/USBInterrupt_AVR8.h **** 			static inline bool USB_INT_HasOccurred(const uint8_t Interrupt)
 309:LUFA-111009/LUFA/Drivers/USB/Core/AVR8/../AVR8/USBInterrupt_AVR8.h **** 			{
 310:LUFA-111009/LUFA/Drivers/USB/Core/AVR8/../AVR8/USBInterrupt_AVR8.h **** 				switch (Interrupt)
 311:LUFA-111009/LUFA/Drivers/USB/Core/AVR8/../AVR8/USBInterrupt_AVR8.h **** 				{
 312:LUFA-111009/LUFA/Drivers/USB/Core/AVR8/../AVR8/USBInterrupt_AVR8.h **** 					#if (defined(USB_SERIES_4_AVR) || defined(USB_SERIES_6_AVR) || defined(USB_SERIES_7_AVR))
 313:LUFA-111009/LUFA/Drivers/USB/Core/AVR8/../AVR8/USBInterrupt_AVR8.h **** 					case USB_INT_VBUSTI:
 314:LUFA-111009/LUFA/Drivers/USB/Core/AVR8/../AVR8/USBInterrupt_AVR8.h **** 						return (USBINT & (1 << VBUSTI));
 127               		.loc 2 314 0
 128 0022 8091 DA00 		lds r24,218
 129               	.LBE65:
 130               	.LBE64:
  76:LUFA-111009/LUFA/Drivers/USB/Core/AVR8/USBInterrupt_AVR8.c **** 	#if defined(USB_CAN_BE_DEVICE)
  77:LUFA-111009/LUFA/Drivers/USB/Core/AVR8/USBInterrupt_AVR8.c **** 	#if !defined(NO_SOF_EVENTS)
  78:LUFA-111009/LUFA/Drivers/USB/Core/AVR8/USBInterrupt_AVR8.c **** 	if (USB_INT_HasOccurred(USB_INT_SOFI) && USB_INT_IsEnabled(USB_INT_SOFI))
  79:LUFA-111009/LUFA/Drivers/USB/Core/AVR8/USBInterrupt_AVR8.c **** 	{
  80:LUFA-111009/LUFA/Drivers/USB/Core/AVR8/USBInterrupt_AVR8.c **** 		USB_INT_Clear(USB_INT_SOFI);
  81:LUFA-111009/LUFA/Drivers/USB/Core/AVR8/USBInterrupt_AVR8.c **** 
  82:LUFA-111009/LUFA/Drivers/USB/Core/AVR8/USBInterrupt_AVR8.c **** 		EVENT_USB_Device_StartOfFrame();
  83:LUFA-111009/LUFA/Drivers/USB/Core/AVR8/USBInterrupt_AVR8.c **** 	}
  84:LUFA-111009/LUFA/Drivers/USB/Core/AVR8/USBInterrupt_AVR8.c **** 	#endif
  85:LUFA-111009/LUFA/Drivers/USB/Core/AVR8/USBInterrupt_AVR8.c **** 
  86:LUFA-111009/LUFA/Drivers/USB/Core/AVR8/USBInterrupt_AVR8.c **** 	#if defined(USB_SERIES_4_AVR) || defined(USB_SERIES_6_AVR) || defined(USB_SERIES_7_AVR)
  87:LUFA-111009/LUFA/Drivers/USB/Core/AVR8/USBInterrupt_AVR8.c **** 	if (USB_INT_HasOccurred(USB_INT_VBUSTI) && USB_INT_IsEnabled(USB_INT_VBUSTI))
 131               		.loc 1 87 0
 132 0026 80FF      		sbrs r24,0
 133 0028 00C0      		rjmp .L4
 134               	.LVL1:
 135               	.LBB66:
 136               	.LBB67:
 268:LUFA-111009/LUFA/Drivers/USB/Core/AVR8/../AVR8/USBInterrupt_AVR8.h **** 						return (USBCON & (1 << VBUSTE));
 137               		.loc 2 268 0
 138 002a 8091 D800 		lds r24,216
 139               	.LBE67:
 140               	.LBE66:
 141               		.loc 1 87 0
 142 002e 80FF      		sbrs r24,0
 143 0030 00C0      		rjmp .L4
 144               	.LVL2:
 145               	.LBB68:
 146               	.LBB69:
 210:LUFA-111009/LUFA/Drivers/USB/Core/AVR8/../AVR8/USBInterrupt_AVR8.h **** 						USBINT &= ~(1 << VBUSTI);
 147               		.loc 2 210 0
 148 0032 8091 DA00 		lds r24,218
 149 0036 8E7F      		andi r24,lo8(-2)
 150 0038 8093 DA00 		sts 218,r24
 151               	.LBE69:
 152               	.LBE68:
 153               	.LBB70:
 154               	.LBB71:
 155               		.file 3 "LUFA-111009/LUFA/Drivers/USB/Core/AVR8/../AVR8/../AVR8/USBController_AVR8.h"
   1:LUFA-111009/LUFA/Drivers/USB/Core/AVR8/../AVR8/../AVR8/USBController_AVR8.h **** /*
   2:LUFA-111009/LUFA/Drivers/USB/Core/AVR8/../AVR8/../AVR8/USBController_AVR8.h ****              LUFA Library
   3:LUFA-111009/LUFA/Drivers/USB/Core/AVR8/../AVR8/../AVR8/USBController_AVR8.h ****      Copyright (C) Dean Camera, 2011.
   4:LUFA-111009/LUFA/Drivers/USB/Core/AVR8/../AVR8/../AVR8/USBController_AVR8.h **** 
   5:LUFA-111009/LUFA/Drivers/USB/Core/AVR8/../AVR8/../AVR8/USBController_AVR8.h ****   dean [at] fourwalledcubicle [dot] com
   6:LUFA-111009/LUFA/Drivers/USB/Core/AVR8/../AVR8/../AVR8/USBController_AVR8.h ****            www.lufa-lib.org
   7:LUFA-111009/LUFA/Drivers/USB/Core/AVR8/../AVR8/../AVR8/USBController_AVR8.h **** */
   8:LUFA-111009/LUFA/Drivers/USB/Core/AVR8/../AVR8/../AVR8/USBController_AVR8.h **** 
   9:LUFA-111009/LUFA/Drivers/USB/Core/AVR8/../AVR8/../AVR8/USBController_AVR8.h **** /*
  10:LUFA-111009/LUFA/Drivers/USB/Core/AVR8/../AVR8/../AVR8/USBController_AVR8.h ****   Copyright 2011  Dean Camera (dean [at] fourwalledcubicle [dot] com)
  11:LUFA-111009/LUFA/Drivers/USB/Core/AVR8/../AVR8/../AVR8/USBController_AVR8.h **** 
  12:LUFA-111009/LUFA/Drivers/USB/Core/AVR8/../AVR8/../AVR8/USBController_AVR8.h ****   Permission to use, copy, modify, distribute, and sell this
  13:LUFA-111009/LUFA/Drivers/USB/Core/AVR8/../AVR8/../AVR8/USBController_AVR8.h ****   software and its documentation for any purpose is hereby granted
  14:LUFA-111009/LUFA/Drivers/USB/Core/AVR8/../AVR8/../AVR8/USBController_AVR8.h ****   without fee, provided that the above copyright notice appear in
  15:LUFA-111009/LUFA/Drivers/USB/Core/AVR8/../AVR8/../AVR8/USBController_AVR8.h ****   all copies and that both that the copyright notice and this
  16:LUFA-111009/LUFA/Drivers/USB/Core/AVR8/../AVR8/../AVR8/USBController_AVR8.h ****   permission notice and warranty disclaimer appear in supporting
  17:LUFA-111009/LUFA/Drivers/USB/Core/AVR8/../AVR8/../AVR8/USBController_AVR8.h ****   documentation, and that the name of the author not be used in
  18:LUFA-111009/LUFA/Drivers/USB/Core/AVR8/../AVR8/../AVR8/USBController_AVR8.h ****   advertising or publicity pertaining to distribution of the
  19:LUFA-111009/LUFA/Drivers/USB/Core/AVR8/../AVR8/../AVR8/USBController_AVR8.h ****   software without specific, written prior permission.
  20:LUFA-111009/LUFA/Drivers/USB/Core/AVR8/../AVR8/../AVR8/USBController_AVR8.h **** 
  21:LUFA-111009/LUFA/Drivers/USB/Core/AVR8/../AVR8/../AVR8/USBController_AVR8.h ****   The author disclaim all warranties with regard to this
  22:LUFA-111009/LUFA/Drivers/USB/Core/AVR8/../AVR8/../AVR8/USBController_AVR8.h ****   software, including all implied warranties of merchantability
  23:LUFA-111009/LUFA/Drivers/USB/Core/AVR8/../AVR8/../AVR8/USBController_AVR8.h ****   and fitness.  In no event shall the author be liable for any
  24:LUFA-111009/LUFA/Drivers/USB/Core/AVR8/../AVR8/../AVR8/USBController_AVR8.h ****   special, indirect or consequential damages or any damages
  25:LUFA-111009/LUFA/Drivers/USB/Core/AVR8/../AVR8/../AVR8/USBController_AVR8.h ****   whatsoever resulting from loss of use, data or profits, whether
  26:LUFA-111009/LUFA/Drivers/USB/Core/AVR8/../AVR8/../AVR8/USBController_AVR8.h ****   in an action of contract, negligence or other tortious action,
  27:LUFA-111009/LUFA/Drivers/USB/Core/AVR8/../AVR8/../AVR8/USBController_AVR8.h ****   arising out of or in connection with the use or performance of
  28:LUFA-111009/LUFA/Drivers/USB/Core/AVR8/../AVR8/../AVR8/USBController_AVR8.h ****   this software.
  29:LUFA-111009/LUFA/Drivers/USB/Core/AVR8/../AVR8/../AVR8/USBController_AVR8.h **** */
  30:LUFA-111009/LUFA/Drivers/USB/Core/AVR8/../AVR8/../AVR8/USBController_AVR8.h **** 
  31:LUFA-111009/LUFA/Drivers/USB/Core/AVR8/../AVR8/../AVR8/USBController_AVR8.h **** /** \file
  32:LUFA-111009/LUFA/Drivers/USB/Core/AVR8/../AVR8/../AVR8/USBController_AVR8.h ****  *  \brief USB Controller definitions for the AVR8 microcontrollers.
  33:LUFA-111009/LUFA/Drivers/USB/Core/AVR8/../AVR8/../AVR8/USBController_AVR8.h ****  *  \copydetails Group_USBManagement_AVR8
  34:LUFA-111009/LUFA/Drivers/USB/Core/AVR8/../AVR8/../AVR8/USBController_AVR8.h ****  *
  35:LUFA-111009/LUFA/Drivers/USB/Core/AVR8/../AVR8/../AVR8/USBController_AVR8.h ****  *  \note This file should not be included directly. It is automatically included as needed by the 
  36:LUFA-111009/LUFA/Drivers/USB/Core/AVR8/../AVR8/../AVR8/USBController_AVR8.h ****  *        dispatch header located in LUFA/Drivers/USB/USB.h.
  37:LUFA-111009/LUFA/Drivers/USB/Core/AVR8/../AVR8/../AVR8/USBController_AVR8.h ****  */
  38:LUFA-111009/LUFA/Drivers/USB/Core/AVR8/../AVR8/../AVR8/USBController_AVR8.h **** 
  39:LUFA-111009/LUFA/Drivers/USB/Core/AVR8/../AVR8/../AVR8/USBController_AVR8.h **** /** \ingroup Group_USBManagement
  40:LUFA-111009/LUFA/Drivers/USB/Core/AVR8/../AVR8/../AVR8/USBController_AVR8.h ****  *  \defgroup Group_USBManagement_AVR8 USB Interface Management (AVR8)
  41:LUFA-111009/LUFA/Drivers/USB/Core/AVR8/../AVR8/../AVR8/USBController_AVR8.h ****  *  \brief USB Controller definitions for the AVR8 microcontrollers.
  42:LUFA-111009/LUFA/Drivers/USB/Core/AVR8/../AVR8/../AVR8/USBController_AVR8.h ****  *
  43:LUFA-111009/LUFA/Drivers/USB/Core/AVR8/../AVR8/../AVR8/USBController_AVR8.h ****  *  Functions, macros, variables, enums and types related to the setup and management of the USB in
  44:LUFA-111009/LUFA/Drivers/USB/Core/AVR8/../AVR8/../AVR8/USBController_AVR8.h ****  *
  45:LUFA-111009/LUFA/Drivers/USB/Core/AVR8/../AVR8/../AVR8/USBController_AVR8.h ****  *  @{
  46:LUFA-111009/LUFA/Drivers/USB/Core/AVR8/../AVR8/../AVR8/USBController_AVR8.h ****  */
  47:LUFA-111009/LUFA/Drivers/USB/Core/AVR8/../AVR8/../AVR8/USBController_AVR8.h **** 
  48:LUFA-111009/LUFA/Drivers/USB/Core/AVR8/../AVR8/../AVR8/USBController_AVR8.h **** #ifndef __USBCONTROLLER_AVR8_H__
  49:LUFA-111009/LUFA/Drivers/USB/Core/AVR8/../AVR8/../AVR8/USBController_AVR8.h **** #define __USBCONTROLLER_AVR8_H__
  50:LUFA-111009/LUFA/Drivers/USB/Core/AVR8/../AVR8/../AVR8/USBController_AVR8.h **** 
  51:LUFA-111009/LUFA/Drivers/USB/Core/AVR8/../AVR8/../AVR8/USBController_AVR8.h **** 	/* Includes: */
  52:LUFA-111009/LUFA/Drivers/USB/Core/AVR8/../AVR8/../AVR8/USBController_AVR8.h **** 		#include "../../../../Common/Common.h"
  53:LUFA-111009/LUFA/Drivers/USB/Core/AVR8/../AVR8/../AVR8/USBController_AVR8.h **** 		#include "../USBMode.h"
  54:LUFA-111009/LUFA/Drivers/USB/Core/AVR8/../AVR8/../AVR8/USBController_AVR8.h **** 		#include "../Events.h"
  55:LUFA-111009/LUFA/Drivers/USB/Core/AVR8/../AVR8/../AVR8/USBController_AVR8.h **** 		#include "../USBTask.h"
  56:LUFA-111009/LUFA/Drivers/USB/Core/AVR8/../AVR8/../AVR8/USBController_AVR8.h **** 		#include "../USBInterrupt.h"
  57:LUFA-111009/LUFA/Drivers/USB/Core/AVR8/../AVR8/../AVR8/USBController_AVR8.h **** 
  58:LUFA-111009/LUFA/Drivers/USB/Core/AVR8/../AVR8/../AVR8/USBController_AVR8.h **** 		#if defined(USB_CAN_BE_HOST) || defined(__DOXYGEN__)
  59:LUFA-111009/LUFA/Drivers/USB/Core/AVR8/../AVR8/../AVR8/USBController_AVR8.h **** 			#include "../Host.h"
  60:LUFA-111009/LUFA/Drivers/USB/Core/AVR8/../AVR8/../AVR8/USBController_AVR8.h **** 			#include "../OTG.h"
  61:LUFA-111009/LUFA/Drivers/USB/Core/AVR8/../AVR8/../AVR8/USBController_AVR8.h **** 			#include "../Pipe.h"
  62:LUFA-111009/LUFA/Drivers/USB/Core/AVR8/../AVR8/../AVR8/USBController_AVR8.h **** 			#include "../HostStandardReq.h"
  63:LUFA-111009/LUFA/Drivers/USB/Core/AVR8/../AVR8/../AVR8/USBController_AVR8.h **** 			#include "../PipeStream.h"
  64:LUFA-111009/LUFA/Drivers/USB/Core/AVR8/../AVR8/../AVR8/USBController_AVR8.h **** 		#endif
  65:LUFA-111009/LUFA/Drivers/USB/Core/AVR8/../AVR8/../AVR8/USBController_AVR8.h **** 
  66:LUFA-111009/LUFA/Drivers/USB/Core/AVR8/../AVR8/../AVR8/USBController_AVR8.h **** 		#if defined(USB_CAN_BE_DEVICE) || defined(__DOXYGEN__)
  67:LUFA-111009/LUFA/Drivers/USB/Core/AVR8/../AVR8/../AVR8/USBController_AVR8.h **** 			#include "../Device.h"
  68:LUFA-111009/LUFA/Drivers/USB/Core/AVR8/../AVR8/../AVR8/USBController_AVR8.h **** 			#include "../Endpoint.h"
  69:LUFA-111009/LUFA/Drivers/USB/Core/AVR8/../AVR8/../AVR8/USBController_AVR8.h **** 			#include "../DeviceStandardReq.h"
  70:LUFA-111009/LUFA/Drivers/USB/Core/AVR8/../AVR8/../AVR8/USBController_AVR8.h **** 			#include "../EndpointStream.h"
  71:LUFA-111009/LUFA/Drivers/USB/Core/AVR8/../AVR8/../AVR8/USBController_AVR8.h **** 		#endif
  72:LUFA-111009/LUFA/Drivers/USB/Core/AVR8/../AVR8/../AVR8/USBController_AVR8.h **** 
  73:LUFA-111009/LUFA/Drivers/USB/Core/AVR8/../AVR8/../AVR8/USBController_AVR8.h **** 	/* Enable C linkage for C++ Compilers: */
  74:LUFA-111009/LUFA/Drivers/USB/Core/AVR8/../AVR8/../AVR8/USBController_AVR8.h **** 		#if defined(__cplusplus)
  75:LUFA-111009/LUFA/Drivers/USB/Core/AVR8/../AVR8/../AVR8/USBController_AVR8.h **** 			extern "C" {
  76:LUFA-111009/LUFA/Drivers/USB/Core/AVR8/../AVR8/../AVR8/USBController_AVR8.h **** 		#endif
  77:LUFA-111009/LUFA/Drivers/USB/Core/AVR8/../AVR8/../AVR8/USBController_AVR8.h **** 
  78:LUFA-111009/LUFA/Drivers/USB/Core/AVR8/../AVR8/../AVR8/USBController_AVR8.h **** 	/* Preprocessor Checks and Defines: */
  79:LUFA-111009/LUFA/Drivers/USB/Core/AVR8/../AVR8/../AVR8/USBController_AVR8.h **** 		#if !defined(__INCLUDE_FROM_USB_DRIVER)
  80:LUFA-111009/LUFA/Drivers/USB/Core/AVR8/../AVR8/../AVR8/USBController_AVR8.h **** 			#error Do not include this file directly. Include LUFA/Drivers/USB/USB.h instead.
  81:LUFA-111009/LUFA/Drivers/USB/Core/AVR8/../AVR8/../AVR8/USBController_AVR8.h **** 		#endif
  82:LUFA-111009/LUFA/Drivers/USB/Core/AVR8/../AVR8/../AVR8/USBController_AVR8.h **** 
  83:LUFA-111009/LUFA/Drivers/USB/Core/AVR8/../AVR8/../AVR8/USBController_AVR8.h **** 		#if !defined(F_USB)
  84:LUFA-111009/LUFA/Drivers/USB/Core/AVR8/../AVR8/../AVR8/USBController_AVR8.h **** 			#error F_USB is not defined. You must define F_USB to the frequency of the unprescaled USB contr
  85:LUFA-111009/LUFA/Drivers/USB/Core/AVR8/../AVR8/../AVR8/USBController_AVR8.h **** 		#endif
  86:LUFA-111009/LUFA/Drivers/USB/Core/AVR8/../AVR8/../AVR8/USBController_AVR8.h **** 
  87:LUFA-111009/LUFA/Drivers/USB/Core/AVR8/../AVR8/../AVR8/USBController_AVR8.h **** 		#if (F_USB == 8000000)
  88:LUFA-111009/LUFA/Drivers/USB/Core/AVR8/../AVR8/../AVR8/USBController_AVR8.h **** 			#if (defined(__AVR_AT90USB82__) || defined(__AVR_AT90USB162__) || \
  89:LUFA-111009/LUFA/Drivers/USB/Core/AVR8/../AVR8/../AVR8/USBController_AVR8.h **** 			     defined(__AVR_ATmega8U2__) || defined(__AVR_ATmega16U2__) || \
  90:LUFA-111009/LUFA/Drivers/USB/Core/AVR8/../AVR8/../AVR8/USBController_AVR8.h **** 			     defined(__AVR_ATmega32U2__))
  91:LUFA-111009/LUFA/Drivers/USB/Core/AVR8/../AVR8/../AVR8/USBController_AVR8.h **** 				#define USB_PLL_PSC                0
  92:LUFA-111009/LUFA/Drivers/USB/Core/AVR8/../AVR8/../AVR8/USBController_AVR8.h **** 			#elif (defined(__AVR_ATmega16U4__) || defined(__AVR_ATmega32U4__))
  93:LUFA-111009/LUFA/Drivers/USB/Core/AVR8/../AVR8/../AVR8/USBController_AVR8.h **** 				#define USB_PLL_PSC                0
  94:LUFA-111009/LUFA/Drivers/USB/Core/AVR8/../AVR8/../AVR8/USBController_AVR8.h **** 			#elif (defined(__AVR_AT90USB646__)  || defined(__AVR_AT90USB1286__) || defined(__AVR_ATmega32U6_
  95:LUFA-111009/LUFA/Drivers/USB/Core/AVR8/../AVR8/../AVR8/USBController_AVR8.h **** 				#define USB_PLL_PSC                ((1 << PLLP1) | (1 << PLLP0))
  96:LUFA-111009/LUFA/Drivers/USB/Core/AVR8/../AVR8/../AVR8/USBController_AVR8.h **** 			#elif (defined(__AVR_AT90USB647__)  || defined(__AVR_AT90USB1287__))
  97:LUFA-111009/LUFA/Drivers/USB/Core/AVR8/../AVR8/../AVR8/USBController_AVR8.h **** 				#define USB_PLL_PSC                ((1 << PLLP1) | (1 << PLLP0))
  98:LUFA-111009/LUFA/Drivers/USB/Core/AVR8/../AVR8/../AVR8/USBController_AVR8.h **** 			#endif
  99:LUFA-111009/LUFA/Drivers/USB/Core/AVR8/../AVR8/../AVR8/USBController_AVR8.h **** 		#elif (F_USB == 16000000)
 100:LUFA-111009/LUFA/Drivers/USB/Core/AVR8/../AVR8/../AVR8/USBController_AVR8.h **** 			#if (defined(__AVR_AT90USB82__) || defined(__AVR_AT90USB162__) || \
 101:LUFA-111009/LUFA/Drivers/USB/Core/AVR8/../AVR8/../AVR8/USBController_AVR8.h **** 			     defined(__AVR_ATmega8U2__) || defined(__AVR_ATmega16U2__) || \
 102:LUFA-111009/LUFA/Drivers/USB/Core/AVR8/../AVR8/../AVR8/USBController_AVR8.h **** 			     defined(__AVR_ATmega32U2__))
 103:LUFA-111009/LUFA/Drivers/USB/Core/AVR8/../AVR8/../AVR8/USBController_AVR8.h **** 				#define USB_PLL_PSC                (1 << PLLP0)
 104:LUFA-111009/LUFA/Drivers/USB/Core/AVR8/../AVR8/../AVR8/USBController_AVR8.h **** 			#elif (defined(__AVR_ATmega16U4__) || defined(__AVR_ATmega32U4__))
 105:LUFA-111009/LUFA/Drivers/USB/Core/AVR8/../AVR8/../AVR8/USBController_AVR8.h **** 				#define USB_PLL_PSC                (1 << PINDIV)
 106:LUFA-111009/LUFA/Drivers/USB/Core/AVR8/../AVR8/../AVR8/USBController_AVR8.h **** 			#elif (defined(__AVR_AT90USB646__) || defined(__AVR_AT90USB647__) || defined(__AVR_ATmega32U6__)
 107:LUFA-111009/LUFA/Drivers/USB/Core/AVR8/../AVR8/../AVR8/USBController_AVR8.h **** 				#define USB_PLL_PSC                ((1 << PLLP2) | (1 << PLLP1))
 108:LUFA-111009/LUFA/Drivers/USB/Core/AVR8/../AVR8/../AVR8/USBController_AVR8.h **** 			#elif (defined(__AVR_AT90USB1286__) || defined(__AVR_AT90USB1287__))
 109:LUFA-111009/LUFA/Drivers/USB/Core/AVR8/../AVR8/../AVR8/USBController_AVR8.h **** 				#define USB_PLL_PSC                ((1 << PLLP2) | (1 << PLLP0))
 110:LUFA-111009/LUFA/Drivers/USB/Core/AVR8/../AVR8/../AVR8/USBController_AVR8.h **** 			#endif
 111:LUFA-111009/LUFA/Drivers/USB/Core/AVR8/../AVR8/../AVR8/USBController_AVR8.h **** 		#endif
 112:LUFA-111009/LUFA/Drivers/USB/Core/AVR8/../AVR8/../AVR8/USBController_AVR8.h **** 
 113:LUFA-111009/LUFA/Drivers/USB/Core/AVR8/../AVR8/../AVR8/USBController_AVR8.h **** 		#if !defined(USB_PLL_PSC)
 114:LUFA-111009/LUFA/Drivers/USB/Core/AVR8/../AVR8/../AVR8/USBController_AVR8.h **** 			#error No PLL prescale value available for chosen F_USB value and AVR model.
 115:LUFA-111009/LUFA/Drivers/USB/Core/AVR8/../AVR8/../AVR8/USBController_AVR8.h **** 		#endif
 116:LUFA-111009/LUFA/Drivers/USB/Core/AVR8/../AVR8/../AVR8/USBController_AVR8.h **** 
 117:LUFA-111009/LUFA/Drivers/USB/Core/AVR8/../AVR8/../AVR8/USBController_AVR8.h **** 	/* Public Interface - May be used in end-application: */
 118:LUFA-111009/LUFA/Drivers/USB/Core/AVR8/../AVR8/../AVR8/USBController_AVR8.h **** 		/* Macros: */
 119:LUFA-111009/LUFA/Drivers/USB/Core/AVR8/../AVR8/../AVR8/USBController_AVR8.h **** 			/** \name USB Controller Option Masks */
 120:LUFA-111009/LUFA/Drivers/USB/Core/AVR8/../AVR8/../AVR8/USBController_AVR8.h **** 			//@{
 121:LUFA-111009/LUFA/Drivers/USB/Core/AVR8/../AVR8/../AVR8/USBController_AVR8.h **** 			/** Regulator disable option mask for \ref USB_Init(). This indicates that the internal 3.3V USB
 122:LUFA-111009/LUFA/Drivers/USB/Core/AVR8/../AVR8/../AVR8/USBController_AVR8.h **** 			 *  regulator should be disabled and the AVR's VCC level used for the data pads.
 123:LUFA-111009/LUFA/Drivers/USB/Core/AVR8/../AVR8/../AVR8/USBController_AVR8.h **** 			 *
 124:LUFA-111009/LUFA/Drivers/USB/Core/AVR8/../AVR8/../AVR8/USBController_AVR8.h **** 			 *  \note See USB AVR data sheet for more information on the internal pad regulator.
 125:LUFA-111009/LUFA/Drivers/USB/Core/AVR8/../AVR8/../AVR8/USBController_AVR8.h **** 			 */
 126:LUFA-111009/LUFA/Drivers/USB/Core/AVR8/../AVR8/../AVR8/USBController_AVR8.h **** 			#define USB_OPT_REG_DISABLED               (1 << 1)
 127:LUFA-111009/LUFA/Drivers/USB/Core/AVR8/../AVR8/../AVR8/USBController_AVR8.h **** 
 128:LUFA-111009/LUFA/Drivers/USB/Core/AVR8/../AVR8/../AVR8/USBController_AVR8.h **** 			/** Regulator enable option mask for \ref USB_Init(). This indicates that the internal 3.3V USB 
 129:LUFA-111009/LUFA/Drivers/USB/Core/AVR8/../AVR8/../AVR8/USBController_AVR8.h **** 			 *  regulator should be enabled to regulate the data pin voltages from the VBUS level down to a 
 130:LUFA-111009/LUFA/Drivers/USB/Core/AVR8/../AVR8/../AVR8/USBController_AVR8.h **** 			 *  the range allowable by the USB standard.
 131:LUFA-111009/LUFA/Drivers/USB/Core/AVR8/../AVR8/../AVR8/USBController_AVR8.h **** 			 *
 132:LUFA-111009/LUFA/Drivers/USB/Core/AVR8/../AVR8/../AVR8/USBController_AVR8.h **** 			 *  \note See USB AVR data sheet for more information on the internal pad regulator.
 133:LUFA-111009/LUFA/Drivers/USB/Core/AVR8/../AVR8/../AVR8/USBController_AVR8.h **** 			 */
 134:LUFA-111009/LUFA/Drivers/USB/Core/AVR8/../AVR8/../AVR8/USBController_AVR8.h **** 			#define USB_OPT_REG_ENABLED                (0 << 1)
 135:LUFA-111009/LUFA/Drivers/USB/Core/AVR8/../AVR8/../AVR8/USBController_AVR8.h **** 
 136:LUFA-111009/LUFA/Drivers/USB/Core/AVR8/../AVR8/../AVR8/USBController_AVR8.h **** 			/** Manual PLL control option mask for \ref USB_Init(). This indicates to the library that the u
 137:LUFA-111009/LUFA/Drivers/USB/Core/AVR8/../AVR8/../AVR8/USBController_AVR8.h **** 			 *  will take full responsibility for controlling the AVR's PLL (used to generate the high frequ
 138:LUFA-111009/LUFA/Drivers/USB/Core/AVR8/../AVR8/../AVR8/USBController_AVR8.h **** 			 *  that the USB controller requires) and ensuring that it is locked at the correct frequency fo
 139:LUFA-111009/LUFA/Drivers/USB/Core/AVR8/../AVR8/../AVR8/USBController_AVR8.h **** 			 */
 140:LUFA-111009/LUFA/Drivers/USB/Core/AVR8/../AVR8/../AVR8/USBController_AVR8.h **** 			#define USB_OPT_MANUAL_PLL                 (1 << 2)
 141:LUFA-111009/LUFA/Drivers/USB/Core/AVR8/../AVR8/../AVR8/USBController_AVR8.h **** 
 142:LUFA-111009/LUFA/Drivers/USB/Core/AVR8/../AVR8/../AVR8/USBController_AVR8.h **** 			/** Automatic PLL control option mask for \ref USB_Init(). This indicates to the library that th
 143:LUFA-111009/LUFA/Drivers/USB/Core/AVR8/../AVR8/../AVR8/USBController_AVR8.h **** 			 *  take full responsibility for controlling the AVR's PLL (used to generate the high frequency 
 144:LUFA-111009/LUFA/Drivers/USB/Core/AVR8/../AVR8/../AVR8/USBController_AVR8.h **** 			 *  that the USB controller requires) and ensuring that it is locked at the correct frequency fo
 145:LUFA-111009/LUFA/Drivers/USB/Core/AVR8/../AVR8/../AVR8/USBController_AVR8.h **** 			 */
 146:LUFA-111009/LUFA/Drivers/USB/Core/AVR8/../AVR8/../AVR8/USBController_AVR8.h **** 			#define USB_OPT_AUTO_PLL                   (0 << 2)
 147:LUFA-111009/LUFA/Drivers/USB/Core/AVR8/../AVR8/../AVR8/USBController_AVR8.h **** 			//@}
 148:LUFA-111009/LUFA/Drivers/USB/Core/AVR8/../AVR8/../AVR8/USBController_AVR8.h **** 
 149:LUFA-111009/LUFA/Drivers/USB/Core/AVR8/../AVR8/../AVR8/USBController_AVR8.h **** 			#if !defined(USB_STREAM_TIMEOUT_MS) || defined(__DOXYGEN__)
 150:LUFA-111009/LUFA/Drivers/USB/Core/AVR8/../AVR8/../AVR8/USBController_AVR8.h **** 				/** Constant for the maximum software timeout period of the USB data stream transfer functions
 151:LUFA-111009/LUFA/Drivers/USB/Core/AVR8/../AVR8/../AVR8/USBController_AVR8.h **** 				 *  (both control and standard) when in either device or host mode. If the next packet of a str
 152:LUFA-111009/LUFA/Drivers/USB/Core/AVR8/../AVR8/../AVR8/USBController_AVR8.h **** 				 *  is not received or acknowledged within this time period, the stream function will fail.
 153:LUFA-111009/LUFA/Drivers/USB/Core/AVR8/../AVR8/../AVR8/USBController_AVR8.h **** 				 *
 154:LUFA-111009/LUFA/Drivers/USB/Core/AVR8/../AVR8/../AVR8/USBController_AVR8.h **** 				 *  This value may be overridden in the user project makefile as the value of the
 155:LUFA-111009/LUFA/Drivers/USB/Core/AVR8/../AVR8/../AVR8/USBController_AVR8.h **** 				 *  \ref USB_STREAM_TIMEOUT_MS token, and passed to the compiler using the -D switch.
 156:LUFA-111009/LUFA/Drivers/USB/Core/AVR8/../AVR8/../AVR8/USBController_AVR8.h **** 				 */
 157:LUFA-111009/LUFA/Drivers/USB/Core/AVR8/../AVR8/../AVR8/USBController_AVR8.h **** 				#define USB_STREAM_TIMEOUT_MS       100
 158:LUFA-111009/LUFA/Drivers/USB/Core/AVR8/../AVR8/../AVR8/USBController_AVR8.h **** 			#endif
 159:LUFA-111009/LUFA/Drivers/USB/Core/AVR8/../AVR8/../AVR8/USBController_AVR8.h **** 
 160:LUFA-111009/LUFA/Drivers/USB/Core/AVR8/../AVR8/../AVR8/USBController_AVR8.h **** 		/* Inline Functions: */
 161:LUFA-111009/LUFA/Drivers/USB/Core/AVR8/../AVR8/../AVR8/USBController_AVR8.h **** 			#if defined(USB_SERIES_4_AVR) || defined(USB_SERIES_6_AVR) || defined(USB_SERIES_7_AVR) || defin
 162:LUFA-111009/LUFA/Drivers/USB/Core/AVR8/../AVR8/../AVR8/USBController_AVR8.h **** 				/** Determines if the VBUS line is currently high (i.e. the USB host is supplying power).
 163:LUFA-111009/LUFA/Drivers/USB/Core/AVR8/../AVR8/../AVR8/USBController_AVR8.h **** 				 *
 164:LUFA-111009/LUFA/Drivers/USB/Core/AVR8/../AVR8/../AVR8/USBController_AVR8.h **** 				 *  \note This function is not available on some AVR models which do not support hardware VBUS 
 165:LUFA-111009/LUFA/Drivers/USB/Core/AVR8/../AVR8/../AVR8/USBController_AVR8.h **** 				 *
 166:LUFA-111009/LUFA/Drivers/USB/Core/AVR8/../AVR8/../AVR8/USBController_AVR8.h **** 				 *  \return Boolean \c true if the VBUS line is currently detecting power from a host, \c false
 167:LUFA-111009/LUFA/Drivers/USB/Core/AVR8/../AVR8/../AVR8/USBController_AVR8.h **** 				 */
 168:LUFA-111009/LUFA/Drivers/USB/Core/AVR8/../AVR8/../AVR8/USBController_AVR8.h **** 				static inline bool USB_VBUS_GetStatus(void) ATTR_WARN_UNUSED_RESULT ATTR_ALWAYS_INLINE;
 169:LUFA-111009/LUFA/Drivers/USB/Core/AVR8/../AVR8/../AVR8/USBController_AVR8.h **** 				static inline bool USB_VBUS_GetStatus(void)
 170:LUFA-111009/LUFA/Drivers/USB/Core/AVR8/../AVR8/../AVR8/USBController_AVR8.h **** 				{
 171:LUFA-111009/LUFA/Drivers/USB/Core/AVR8/../AVR8/../AVR8/USBController_AVR8.h **** 					return ((USBSTA & (1 << VBUS)) ? true : false);
 156               		.loc 3 171 0
 157 003c 8091 D900 		lds r24,217
 158               	.LBE71:
 159               	.LBE70:
  88:LUFA-111009/LUFA/Drivers/USB/Core/AVR8/USBInterrupt_AVR8.c **** 	{
  89:LUFA-111009/LUFA/Drivers/USB/Core/AVR8/USBInterrupt_AVR8.c **** 		USB_INT_Clear(USB_INT_VBUSTI);
  90:LUFA-111009/LUFA/Drivers/USB/Core/AVR8/USBInterrupt_AVR8.c **** 
  91:LUFA-111009/LUFA/Drivers/USB/Core/AVR8/USBInterrupt_AVR8.c **** 		if (USB_VBUS_GetStatus())
 160               		.loc 1 91 0
 161 0040 80FF      		sbrs r24,0
 162 0042 00C0      		rjmp .L5
 163               	.LBB72:
 164               	.LBB73:
 172:LUFA-111009/LUFA/Drivers/USB/Core/AVR8/../AVR8/../AVR8/USBController_AVR8.h **** 				}
 173:LUFA-111009/LUFA/Drivers/USB/Core/AVR8/../AVR8/../AVR8/USBController_AVR8.h **** 			#endif
 174:LUFA-111009/LUFA/Drivers/USB/Core/AVR8/../AVR8/../AVR8/USBController_AVR8.h **** 
 175:LUFA-111009/LUFA/Drivers/USB/Core/AVR8/../AVR8/../AVR8/USBController_AVR8.h **** 			/** Detaches the device from the USB bus. This has the effect of removing the device from any
 176:LUFA-111009/LUFA/Drivers/USB/Core/AVR8/../AVR8/../AVR8/USBController_AVR8.h **** 			 *  attached host, ceasing USB communications. If no host is present, this prevents any host fro
 177:LUFA-111009/LUFA/Drivers/USB/Core/AVR8/../AVR8/../AVR8/USBController_AVR8.h **** 			 *  enumerating the device once attached until \ref USB_Attach() is called.
 178:LUFA-111009/LUFA/Drivers/USB/Core/AVR8/../AVR8/../AVR8/USBController_AVR8.h **** 			 */
 179:LUFA-111009/LUFA/Drivers/USB/Core/AVR8/../AVR8/../AVR8/USBController_AVR8.h **** 			static inline void USB_Detach(void) ATTR_ALWAYS_INLINE;
 180:LUFA-111009/LUFA/Drivers/USB/Core/AVR8/../AVR8/../AVR8/USBController_AVR8.h **** 			static inline void USB_Detach(void)
 181:LUFA-111009/LUFA/Drivers/USB/Core/AVR8/../AVR8/../AVR8/USBController_AVR8.h **** 			{
 182:LUFA-111009/LUFA/Drivers/USB/Core/AVR8/../AVR8/../AVR8/USBController_AVR8.h **** 				UDCON  |=  (1 << DETACH);
 183:LUFA-111009/LUFA/Drivers/USB/Core/AVR8/../AVR8/../AVR8/USBController_AVR8.h **** 			}
 184:LUFA-111009/LUFA/Drivers/USB/Core/AVR8/../AVR8/../AVR8/USBController_AVR8.h **** 
 185:LUFA-111009/LUFA/Drivers/USB/Core/AVR8/../AVR8/../AVR8/USBController_AVR8.h **** 			/** Attaches the device to the USB bus. This announces the device's presence to any attached
 186:LUFA-111009/LUFA/Drivers/USB/Core/AVR8/../AVR8/../AVR8/USBController_AVR8.h **** 			 *  USB host, starting the enumeration process. If no host is present, attaching the device
 187:LUFA-111009/LUFA/Drivers/USB/Core/AVR8/../AVR8/../AVR8/USBController_AVR8.h **** 			 *  will allow for enumeration once a host is connected to the device.
 188:LUFA-111009/LUFA/Drivers/USB/Core/AVR8/../AVR8/../AVR8/USBController_AVR8.h **** 			 *
 189:LUFA-111009/LUFA/Drivers/USB/Core/AVR8/../AVR8/../AVR8/USBController_AVR8.h **** 			 *  This is inexplicably also required for proper operation while in host mode, to enable the
 190:LUFA-111009/LUFA/Drivers/USB/Core/AVR8/../AVR8/../AVR8/USBController_AVR8.h **** 			 *  attachment of a device to the host. This is despite the bit being located in the device-mode
 191:LUFA-111009/LUFA/Drivers/USB/Core/AVR8/../AVR8/../AVR8/USBController_AVR8.h **** 			 *  register and despite the datasheet making no mention of its requirement in host mode.
 192:LUFA-111009/LUFA/Drivers/USB/Core/AVR8/../AVR8/../AVR8/USBController_AVR8.h **** 			 */
 193:LUFA-111009/LUFA/Drivers/USB/Core/AVR8/../AVR8/../AVR8/USBController_AVR8.h **** 			static inline void USB_Attach(void) ATTR_ALWAYS_INLINE;
 194:LUFA-111009/LUFA/Drivers/USB/Core/AVR8/../AVR8/../AVR8/USBController_AVR8.h **** 			static inline void USB_Attach(void)
 195:LUFA-111009/LUFA/Drivers/USB/Core/AVR8/../AVR8/../AVR8/USBController_AVR8.h **** 			{
 196:LUFA-111009/LUFA/Drivers/USB/Core/AVR8/../AVR8/../AVR8/USBController_AVR8.h **** 				UDCON  &= ~(1 << DETACH);
 197:LUFA-111009/LUFA/Drivers/USB/Core/AVR8/../AVR8/../AVR8/USBController_AVR8.h **** 			}
 198:LUFA-111009/LUFA/Drivers/USB/Core/AVR8/../AVR8/../AVR8/USBController_AVR8.h **** 
 199:LUFA-111009/LUFA/Drivers/USB/Core/AVR8/../AVR8/../AVR8/USBController_AVR8.h **** 		/* Function Prototypes: */
 200:LUFA-111009/LUFA/Drivers/USB/Core/AVR8/../AVR8/../AVR8/USBController_AVR8.h **** 			/** Main function to initialize and start the USB interface. Once active, the USB interface will
 201:LUFA-111009/LUFA/Drivers/USB/Core/AVR8/../AVR8/../AVR8/USBController_AVR8.h **** 			 *  allow for device connection to a host when in device mode, or for device enumeration while i
 202:LUFA-111009/LUFA/Drivers/USB/Core/AVR8/../AVR8/../AVR8/USBController_AVR8.h **** 			 *  host mode.
 203:LUFA-111009/LUFA/Drivers/USB/Core/AVR8/../AVR8/../AVR8/USBController_AVR8.h **** 			 *
 204:LUFA-111009/LUFA/Drivers/USB/Core/AVR8/../AVR8/../AVR8/USBController_AVR8.h **** 			 *  As the USB library relies on interrupts for the device and host mode enumeration processes,
 205:LUFA-111009/LUFA/Drivers/USB/Core/AVR8/../AVR8/../AVR8/USBController_AVR8.h **** 			 *  the user must enable global interrupts before or shortly after this function is called. In
 206:LUFA-111009/LUFA/Drivers/USB/Core/AVR8/../AVR8/../AVR8/USBController_AVR8.h **** 			 *  device mode, interrupts must be enabled within 500ms of this function being called to ensure
 207:LUFA-111009/LUFA/Drivers/USB/Core/AVR8/../AVR8/../AVR8/USBController_AVR8.h **** 			 *  that the host does not time out whilst enumerating the device. In host mode, interrupts may 
 208:LUFA-111009/LUFA/Drivers/USB/Core/AVR8/../AVR8/../AVR8/USBController_AVR8.h **** 			 *  enabled at the application's leisure however enumeration will not begin of an attached devic
 209:LUFA-111009/LUFA/Drivers/USB/Core/AVR8/../AVR8/../AVR8/USBController_AVR8.h **** 			 *  until after this has occurred.
 210:LUFA-111009/LUFA/Drivers/USB/Core/AVR8/../AVR8/../AVR8/USBController_AVR8.h **** 			 *
 211:LUFA-111009/LUFA/Drivers/USB/Core/AVR8/../AVR8/../AVR8/USBController_AVR8.h **** 			 *  Calling this function when the USB interface is already initialized will cause a complete US
 212:LUFA-111009/LUFA/Drivers/USB/Core/AVR8/../AVR8/../AVR8/USBController_AVR8.h **** 			 *  interface reset and re-enumeration.
 213:LUFA-111009/LUFA/Drivers/USB/Core/AVR8/../AVR8/../AVR8/USBController_AVR8.h **** 			 *
 214:LUFA-111009/LUFA/Drivers/USB/Core/AVR8/../AVR8/../AVR8/USBController_AVR8.h **** 			 *  \param[in] Mode     This is a mask indicating what mode the USB interface is to be initializ
 215:LUFA-111009/LUFA/Drivers/USB/Core/AVR8/../AVR8/../AVR8/USBController_AVR8.h **** 			 *                      from the \ref USB_Modes_t enum.
 216:LUFA-111009/LUFA/Drivers/USB/Core/AVR8/../AVR8/../AVR8/USBController_AVR8.h **** 			 *
 217:LUFA-111009/LUFA/Drivers/USB/Core/AVR8/../AVR8/../AVR8/USBController_AVR8.h **** 			 *  \param[in] Options  Mask indicating the options which should be used when initializing the U
 218:LUFA-111009/LUFA/Drivers/USB/Core/AVR8/../AVR8/../AVR8/USBController_AVR8.h **** 			 *                      interface to control the USB interface's behaviour. This should be compr
 219:LUFA-111009/LUFA/Drivers/USB/Core/AVR8/../AVR8/../AVR8/USBController_AVR8.h **** 			 *                      a \c USB_OPT_REG_* mask to control the regulator, a \c USB_OPT_*_PLL mas
 220:LUFA-111009/LUFA/Drivers/USB/Core/AVR8/../AVR8/../AVR8/USBController_AVR8.h **** 			 *                      PLL, and a \c USB_DEVICE_OPT_* mask (when the device mode is enabled) to
 221:LUFA-111009/LUFA/Drivers/USB/Core/AVR8/../AVR8/../AVR8/USBController_AVR8.h **** 			 *                      mode speed.
 222:LUFA-111009/LUFA/Drivers/USB/Core/AVR8/../AVR8/../AVR8/USBController_AVR8.h **** 			 *
 223:LUFA-111009/LUFA/Drivers/USB/Core/AVR8/../AVR8/../AVR8/USBController_AVR8.h **** 			 *  \note To reduce the FLASH requirements of the library if only device or host mode is require
 224:LUFA-111009/LUFA/Drivers/USB/Core/AVR8/../AVR8/../AVR8/USBController_AVR8.h **** 			 *        the mode can be statically set in the project makefile by defining the token \c USB_DE
 225:LUFA-111009/LUFA/Drivers/USB/Core/AVR8/../AVR8/../AVR8/USBController_AVR8.h **** 			 *        (for device mode) or \c USB_HOST_ONLY (for host mode), passing the token to the compil
 226:LUFA-111009/LUFA/Drivers/USB/Core/AVR8/../AVR8/../AVR8/USBController_AVR8.h **** 			 *        via the -D switch. If the mode is statically set, this parameter does not exist in the
 227:LUFA-111009/LUFA/Drivers/USB/Core/AVR8/../AVR8/../AVR8/USBController_AVR8.h **** 			 *        function prototype.
 228:LUFA-111009/LUFA/Drivers/USB/Core/AVR8/../AVR8/../AVR8/USBController_AVR8.h **** 			 *        \n\n
 229:LUFA-111009/LUFA/Drivers/USB/Core/AVR8/../AVR8/../AVR8/USBController_AVR8.h **** 			 *
 230:LUFA-111009/LUFA/Drivers/USB/Core/AVR8/../AVR8/../AVR8/USBController_AVR8.h **** 			 *  \note To reduce the FLASH requirements of the library if only fixed settings are are require
 231:LUFA-111009/LUFA/Drivers/USB/Core/AVR8/../AVR8/../AVR8/USBController_AVR8.h **** 			 *        the options may be set statically in the same manner as the mode (see the Mode paramet
 232:LUFA-111009/LUFA/Drivers/USB/Core/AVR8/../AVR8/../AVR8/USBController_AVR8.h **** 			 *        this function). To statically set the USB options, pass in the \c USE_STATIC_OPTIONS t
 233:LUFA-111009/LUFA/Drivers/USB/Core/AVR8/../AVR8/../AVR8/USBController_AVR8.h **** 			 *        defined to the appropriate options masks. When the options are statically set, this
 234:LUFA-111009/LUFA/Drivers/USB/Core/AVR8/../AVR8/../AVR8/USBController_AVR8.h **** 			 *        parameter does not exist in the function prototype.
 235:LUFA-111009/LUFA/Drivers/USB/Core/AVR8/../AVR8/../AVR8/USBController_AVR8.h **** 			 *        \n\n
 236:LUFA-111009/LUFA/Drivers/USB/Core/AVR8/../AVR8/../AVR8/USBController_AVR8.h **** 			 *
 237:LUFA-111009/LUFA/Drivers/USB/Core/AVR8/../AVR8/../AVR8/USBController_AVR8.h **** 			 *  \note The mode parameter does not exist on devices where only one mode is possible, such as 
 238:LUFA-111009/LUFA/Drivers/USB/Core/AVR8/../AVR8/../AVR8/USBController_AVR8.h **** 			 *        AVR models which only implement the USB device mode in hardware.
 239:LUFA-111009/LUFA/Drivers/USB/Core/AVR8/../AVR8/../AVR8/USBController_AVR8.h **** 			 *
 240:LUFA-111009/LUFA/Drivers/USB/Core/AVR8/../AVR8/../AVR8/USBController_AVR8.h **** 			 *  \see \ref Group_Device for the \c USB_DEVICE_OPT_* masks.
 241:LUFA-111009/LUFA/Drivers/USB/Core/AVR8/../AVR8/../AVR8/USBController_AVR8.h **** 			 */
 242:LUFA-111009/LUFA/Drivers/USB/Core/AVR8/../AVR8/../AVR8/USBController_AVR8.h **** 			void USB_Init(
 243:LUFA-111009/LUFA/Drivers/USB/Core/AVR8/../AVR8/../AVR8/USBController_AVR8.h **** 			               #if defined(USB_CAN_BE_BOTH) || defined(__DOXYGEN__)
 244:LUFA-111009/LUFA/Drivers/USB/Core/AVR8/../AVR8/../AVR8/USBController_AVR8.h **** 			               const uint8_t Mode
 245:LUFA-111009/LUFA/Drivers/USB/Core/AVR8/../AVR8/../AVR8/USBController_AVR8.h **** 			               #endif
 246:LUFA-111009/LUFA/Drivers/USB/Core/AVR8/../AVR8/../AVR8/USBController_AVR8.h **** 
 247:LUFA-111009/LUFA/Drivers/USB/Core/AVR8/../AVR8/../AVR8/USBController_AVR8.h **** 			               #if (defined(USB_CAN_BE_BOTH) && !defined(USE_STATIC_OPTIONS)) || defined(__DOXYG
 248:LUFA-111009/LUFA/Drivers/USB/Core/AVR8/../AVR8/../AVR8/USBController_AVR8.h **** 			               ,
 249:LUFA-111009/LUFA/Drivers/USB/Core/AVR8/../AVR8/../AVR8/USBController_AVR8.h **** 			               #elif (!defined(USB_CAN_BE_BOTH) && defined(USE_STATIC_OPTIONS))
 250:LUFA-111009/LUFA/Drivers/USB/Core/AVR8/../AVR8/../AVR8/USBController_AVR8.h **** 			               void
 251:LUFA-111009/LUFA/Drivers/USB/Core/AVR8/../AVR8/../AVR8/USBController_AVR8.h **** 			               #endif
 252:LUFA-111009/LUFA/Drivers/USB/Core/AVR8/../AVR8/../AVR8/USBController_AVR8.h **** 
 253:LUFA-111009/LUFA/Drivers/USB/Core/AVR8/../AVR8/../AVR8/USBController_AVR8.h **** 			               #if !defined(USE_STATIC_OPTIONS) || defined(__DOXYGEN__)
 254:LUFA-111009/LUFA/Drivers/USB/Core/AVR8/../AVR8/../AVR8/USBController_AVR8.h **** 			               const uint8_t Options
 255:LUFA-111009/LUFA/Drivers/USB/Core/AVR8/../AVR8/../AVR8/USBController_AVR8.h **** 			               #endif
 256:LUFA-111009/LUFA/Drivers/USB/Core/AVR8/../AVR8/../AVR8/USBController_AVR8.h **** 			               );
 257:LUFA-111009/LUFA/Drivers/USB/Core/AVR8/../AVR8/../AVR8/USBController_AVR8.h **** 
 258:LUFA-111009/LUFA/Drivers/USB/Core/AVR8/../AVR8/../AVR8/USBController_AVR8.h **** 			/** Shuts down the USB interface. This turns off the USB interface after deallocating all USB FI
 259:LUFA-111009/LUFA/Drivers/USB/Core/AVR8/../AVR8/../AVR8/USBController_AVR8.h **** 			 *  memory, endpoints and pipes. When turned off, no USB functionality can be used until the int
 260:LUFA-111009/LUFA/Drivers/USB/Core/AVR8/../AVR8/../AVR8/USBController_AVR8.h **** 			 *  is restarted with the \ref USB_Init() function.
 261:LUFA-111009/LUFA/Drivers/USB/Core/AVR8/../AVR8/../AVR8/USBController_AVR8.h **** 			 */
 262:LUFA-111009/LUFA/Drivers/USB/Core/AVR8/../AVR8/../AVR8/USBController_AVR8.h **** 			void USB_Disable(void);
 263:LUFA-111009/LUFA/Drivers/USB/Core/AVR8/../AVR8/../AVR8/USBController_AVR8.h **** 
 264:LUFA-111009/LUFA/Drivers/USB/Core/AVR8/../AVR8/../AVR8/USBController_AVR8.h **** 			/** Resets the interface, when already initialized. This will re-enumerate the device if already
 265:LUFA-111009/LUFA/Drivers/USB/Core/AVR8/../AVR8/../AVR8/USBController_AVR8.h **** 			 *  to a host, or re-enumerate an already attached device when in host mode.
 266:LUFA-111009/LUFA/Drivers/USB/Core/AVR8/../AVR8/../AVR8/USBController_AVR8.h **** 			 */
 267:LUFA-111009/LUFA/Drivers/USB/Core/AVR8/../AVR8/../AVR8/USBController_AVR8.h **** 			void USB_ResetInterface(void);
 268:LUFA-111009/LUFA/Drivers/USB/Core/AVR8/../AVR8/../AVR8/USBController_AVR8.h **** 
 269:LUFA-111009/LUFA/Drivers/USB/Core/AVR8/../AVR8/../AVR8/USBController_AVR8.h **** 		/* Global Variables: */
 270:LUFA-111009/LUFA/Drivers/USB/Core/AVR8/../AVR8/../AVR8/USBController_AVR8.h **** 			#if (!defined(USB_HOST_ONLY) && !defined(USB_DEVICE_ONLY)) || defined(__DOXYGEN__)
 271:LUFA-111009/LUFA/Drivers/USB/Core/AVR8/../AVR8/../AVR8/USBController_AVR8.h **** 				/** Indicates the mode that the USB interface is currently initialized to, a value from the
 272:LUFA-111009/LUFA/Drivers/USB/Core/AVR8/../AVR8/../AVR8/USBController_AVR8.h **** 				 *  \ref USB_Modes_t enum.
 273:LUFA-111009/LUFA/Drivers/USB/Core/AVR8/../AVR8/../AVR8/USBController_AVR8.h **** 				 *
 274:LUFA-111009/LUFA/Drivers/USB/Core/AVR8/../AVR8/../AVR8/USBController_AVR8.h **** 				 *  \note This variable should be treated as read-only in the user application, and never manua
 275:LUFA-111009/LUFA/Drivers/USB/Core/AVR8/../AVR8/../AVR8/USBController_AVR8.h **** 				 *        changed in value.
 276:LUFA-111009/LUFA/Drivers/USB/Core/AVR8/../AVR8/../AVR8/USBController_AVR8.h **** 				 *        \n\n
 277:LUFA-111009/LUFA/Drivers/USB/Core/AVR8/../AVR8/../AVR8/USBController_AVR8.h **** 				 *
 278:LUFA-111009/LUFA/Drivers/USB/Core/AVR8/../AVR8/../AVR8/USBController_AVR8.h **** 				 *  \note When the controller is initialized into UID auto-detection mode, this variable will h
 279:LUFA-111009/LUFA/Drivers/USB/Core/AVR8/../AVR8/../AVR8/USBController_AVR8.h **** 				 *        currently selected USB mode (i.e. \ref USB_MODE_Device or \ref USB_MODE_Host). If the
 280:LUFA-111009/LUFA/Drivers/USB/Core/AVR8/../AVR8/../AVR8/USBController_AVR8.h **** 				 *        is fixed into a specific mode (either through the \c USB_DEVICE_ONLY or \c USB_HOST_O
 281:LUFA-111009/LUFA/Drivers/USB/Core/AVR8/../AVR8/../AVR8/USBController_AVR8.h **** 				 *        options, or a limitation of the USB controller in the chosen device model) this will 
 282:LUFA-111009/LUFA/Drivers/USB/Core/AVR8/../AVR8/../AVR8/USBController_AVR8.h **** 				 *        a constant of the appropriate value and will never evaluate to \ref USB_MODE_None eve
 283:LUFA-111009/LUFA/Drivers/USB/Core/AVR8/../AVR8/../AVR8/USBController_AVR8.h **** 				 *        USB interface is not initialized.
 284:LUFA-111009/LUFA/Drivers/USB/Core/AVR8/../AVR8/../AVR8/USBController_AVR8.h **** 				 */
 285:LUFA-111009/LUFA/Drivers/USB/Core/AVR8/../AVR8/../AVR8/USBController_AVR8.h **** 				extern volatile uint8_t USB_CurrentMode;
 286:LUFA-111009/LUFA/Drivers/USB/Core/AVR8/../AVR8/../AVR8/USBController_AVR8.h **** 			#elif defined(USB_HOST_ONLY)
 287:LUFA-111009/LUFA/Drivers/USB/Core/AVR8/../AVR8/../AVR8/USBController_AVR8.h **** 				#define USB_CurrentMode USB_MODE_Host
 288:LUFA-111009/LUFA/Drivers/USB/Core/AVR8/../AVR8/../AVR8/USBController_AVR8.h **** 			#elif defined(USB_DEVICE_ONLY)
 289:LUFA-111009/LUFA/Drivers/USB/Core/AVR8/../AVR8/../AVR8/USBController_AVR8.h **** 				#define USB_CurrentMode USB_MODE_Device
 290:LUFA-111009/LUFA/Drivers/USB/Core/AVR8/../AVR8/../AVR8/USBController_AVR8.h **** 			#endif
 291:LUFA-111009/LUFA/Drivers/USB/Core/AVR8/../AVR8/../AVR8/USBController_AVR8.h **** 
 292:LUFA-111009/LUFA/Drivers/USB/Core/AVR8/../AVR8/../AVR8/USBController_AVR8.h **** 			#if !defined(USE_STATIC_OPTIONS) || defined(__DOXYGEN__)
 293:LUFA-111009/LUFA/Drivers/USB/Core/AVR8/../AVR8/../AVR8/USBController_AVR8.h **** 				/** Indicates the current USB options that the USB interface was initialized with when \ref USB
 294:LUFA-111009/LUFA/Drivers/USB/Core/AVR8/../AVR8/../AVR8/USBController_AVR8.h **** 				 *  was called. This value will be one of the \c USB_MODE_* masks defined elsewhere in this mod
 295:LUFA-111009/LUFA/Drivers/USB/Core/AVR8/../AVR8/../AVR8/USBController_AVR8.h **** 				 *
 296:LUFA-111009/LUFA/Drivers/USB/Core/AVR8/../AVR8/../AVR8/USBController_AVR8.h **** 				 *  \note This variable should be treated as read-only in the user application, and never manua
 297:LUFA-111009/LUFA/Drivers/USB/Core/AVR8/../AVR8/../AVR8/USBController_AVR8.h **** 				 *        changed in value.
 298:LUFA-111009/LUFA/Drivers/USB/Core/AVR8/../AVR8/../AVR8/USBController_AVR8.h **** 				 */
 299:LUFA-111009/LUFA/Drivers/USB/Core/AVR8/../AVR8/../AVR8/USBController_AVR8.h **** 				extern volatile uint8_t USB_Options;
 300:LUFA-111009/LUFA/Drivers/USB/Core/AVR8/../AVR8/../AVR8/USBController_AVR8.h **** 			#elif defined(USE_STATIC_OPTIONS)
 301:LUFA-111009/LUFA/Drivers/USB/Core/AVR8/../AVR8/../AVR8/USBController_AVR8.h **** 				#define USB_Options USE_STATIC_OPTIONS
 302:LUFA-111009/LUFA/Drivers/USB/Core/AVR8/../AVR8/../AVR8/USBController_AVR8.h **** 			#endif
 303:LUFA-111009/LUFA/Drivers/USB/Core/AVR8/../AVR8/../AVR8/USBController_AVR8.h **** 
 304:LUFA-111009/LUFA/Drivers/USB/Core/AVR8/../AVR8/../AVR8/USBController_AVR8.h **** 		/* Enums: */
 305:LUFA-111009/LUFA/Drivers/USB/Core/AVR8/../AVR8/../AVR8/USBController_AVR8.h **** 			/** Enum for the possible USB controller modes, for initialization via \ref USB_Init() and indic
 306:LUFA-111009/LUFA/Drivers/USB/Core/AVR8/../AVR8/../AVR8/USBController_AVR8.h **** 			 *  user application via \ref USB_CurrentMode.
 307:LUFA-111009/LUFA/Drivers/USB/Core/AVR8/../AVR8/../AVR8/USBController_AVR8.h **** 			 */
 308:LUFA-111009/LUFA/Drivers/USB/Core/AVR8/../AVR8/../AVR8/USBController_AVR8.h **** 			enum USB_Modes_t
 309:LUFA-111009/LUFA/Drivers/USB/Core/AVR8/../AVR8/../AVR8/USBController_AVR8.h **** 			{
 310:LUFA-111009/LUFA/Drivers/USB/Core/AVR8/../AVR8/../AVR8/USBController_AVR8.h **** 				USB_MODE_None   = 0, /**< Indicates that the controller is currently not initialized in any spe
 311:LUFA-111009/LUFA/Drivers/USB/Core/AVR8/../AVR8/../AVR8/USBController_AVR8.h **** 				USB_MODE_Device = 1, /**< Indicates that the controller is currently initialized in USB Device 
 312:LUFA-111009/LUFA/Drivers/USB/Core/AVR8/../AVR8/../AVR8/USBController_AVR8.h **** 				USB_MODE_Host   = 2, /**< Indicates that the controller is currently initialized in USB Host mo
 313:LUFA-111009/LUFA/Drivers/USB/Core/AVR8/../AVR8/../AVR8/USBController_AVR8.h **** 				USB_MODE_UID    = 3, /**< Indicates that the controller should determine the USB mode from the 
 314:LUFA-111009/LUFA/Drivers/USB/Core/AVR8/../AVR8/../AVR8/USBController_AVR8.h **** 				                      *   USB connector.
 315:LUFA-111009/LUFA/Drivers/USB/Core/AVR8/../AVR8/../AVR8/USBController_AVR8.h **** 				                      */
 316:LUFA-111009/LUFA/Drivers/USB/Core/AVR8/../AVR8/../AVR8/USBController_AVR8.h **** 			};
 317:LUFA-111009/LUFA/Drivers/USB/Core/AVR8/../AVR8/../AVR8/USBController_AVR8.h **** 
 318:LUFA-111009/LUFA/Drivers/USB/Core/AVR8/../AVR8/../AVR8/USBController_AVR8.h **** 	/* Private Interface - For use in library only: */
 319:LUFA-111009/LUFA/Drivers/USB/Core/AVR8/../AVR8/../AVR8/USBController_AVR8.h **** 	#if !defined(__DOXYGEN__)
 320:LUFA-111009/LUFA/Drivers/USB/Core/AVR8/../AVR8/../AVR8/USBController_AVR8.h **** 		/* Function Prototypes: */
 321:LUFA-111009/LUFA/Drivers/USB/Core/AVR8/../AVR8/../AVR8/USBController_AVR8.h **** 			#if defined(__INCLUDE_FROM_USB_CONTROLLER_C)
 322:LUFA-111009/LUFA/Drivers/USB/Core/AVR8/../AVR8/../AVR8/USBController_AVR8.h **** 				#if defined(USB_CAN_BE_DEVICE)
 323:LUFA-111009/LUFA/Drivers/USB/Core/AVR8/../AVR8/../AVR8/USBController_AVR8.h **** 				static void USB_Init_Device(void);
 324:LUFA-111009/LUFA/Drivers/USB/Core/AVR8/../AVR8/../AVR8/USBController_AVR8.h **** 				#endif
 325:LUFA-111009/LUFA/Drivers/USB/Core/AVR8/../AVR8/../AVR8/USBController_AVR8.h **** 
 326:LUFA-111009/LUFA/Drivers/USB/Core/AVR8/../AVR8/../AVR8/USBController_AVR8.h **** 				#if defined(USB_CAN_BE_HOST)
 327:LUFA-111009/LUFA/Drivers/USB/Core/AVR8/../AVR8/../AVR8/USBController_AVR8.h **** 				static void USB_Init_Host(void);
 328:LUFA-111009/LUFA/Drivers/USB/Core/AVR8/../AVR8/../AVR8/USBController_AVR8.h **** 				#endif
 329:LUFA-111009/LUFA/Drivers/USB/Core/AVR8/../AVR8/../AVR8/USBController_AVR8.h **** 			#endif
 330:LUFA-111009/LUFA/Drivers/USB/Core/AVR8/../AVR8/../AVR8/USBController_AVR8.h **** 
 331:LUFA-111009/LUFA/Drivers/USB/Core/AVR8/../AVR8/../AVR8/USBController_AVR8.h **** 		/* Inline Functions: */
 332:LUFA-111009/LUFA/Drivers/USB/Core/AVR8/../AVR8/../AVR8/USBController_AVR8.h **** 			static inline void USB_PLL_On(void) ATTR_ALWAYS_INLINE;
 333:LUFA-111009/LUFA/Drivers/USB/Core/AVR8/../AVR8/../AVR8/USBController_AVR8.h **** 			static inline void USB_PLL_On(void)
 334:LUFA-111009/LUFA/Drivers/USB/Core/AVR8/../AVR8/../AVR8/USBController_AVR8.h **** 			{
 335:LUFA-111009/LUFA/Drivers/USB/Core/AVR8/../AVR8/../AVR8/USBController_AVR8.h **** 				PLLCSR = USB_PLL_PSC;
 165               		.loc 3 335 0
 166 0044 80E1      		ldi r24,lo8(16)
 167 0046 89BD      		out 0x29,r24
 336:LUFA-111009/LUFA/Drivers/USB/Core/AVR8/../AVR8/../AVR8/USBController_AVR8.h **** 				PLLCSR = (USB_PLL_PSC | (1 << PLLE));
 168               		.loc 3 336 0
 169 0048 82E1      		ldi r24,lo8(18)
 170 004a 89BD      		out 0x29,r24
 171               	.L6:
 172               	.LBE73:
 173               	.LBE72:
  92:LUFA-111009/LUFA/Drivers/USB/Core/AVR8/USBInterrupt_AVR8.c **** 		{
  93:LUFA-111009/LUFA/Drivers/USB/Core/AVR8/USBInterrupt_AVR8.c **** 			if (!(USB_Options & USB_OPT_MANUAL_PLL))
  94:LUFA-111009/LUFA/Drivers/USB/Core/AVR8/USBInterrupt_AVR8.c **** 			{
  95:LUFA-111009/LUFA/Drivers/USB/Core/AVR8/USBInterrupt_AVR8.c **** 				USB_PLL_On();
  96:LUFA-111009/LUFA/Drivers/USB/Core/AVR8/USBInterrupt_AVR8.c **** 				while (!(USB_PLL_IsReady()));
 174               		.loc 1 96 0 discriminator 1
 175 004c 09B4      		in __tmp_reg__,0x29
 176 004e 00FE      		sbrs __tmp_reg__,0
 177 0050 00C0      		rjmp .L6
  97:LUFA-111009/LUFA/Drivers/USB/Core/AVR8/USBInterrupt_AVR8.c **** 			}
  98:LUFA-111009/LUFA/Drivers/USB/Core/AVR8/USBInterrupt_AVR8.c **** 
  99:LUFA-111009/LUFA/Drivers/USB/Core/AVR8/USBInterrupt_AVR8.c **** 			USB_DeviceState = DEVICE_STATE_Powered;
 178               		.loc 1 99 0
 179 0052 81E0      		ldi r24,lo8(1)
 180 0054 8EBB      		out 0x1e,r24
 100:LUFA-111009/LUFA/Drivers/USB/Core/AVR8/USBInterrupt_AVR8.c **** 			EVENT_USB_Device_Connect();
 181               		.loc 1 100 0
 182 0056 0E94 0000 		call EVENT_USB_Device_Connect
 183               	.LVL3:
 184 005a 00C0      		rjmp .L4
 185               	.L5:
 186               	.LBB74:
 187               	.LBB75:
 337:LUFA-111009/LUFA/Drivers/USB/Core/AVR8/../AVR8/../AVR8/USBController_AVR8.h **** 			}
 338:LUFA-111009/LUFA/Drivers/USB/Core/AVR8/../AVR8/../AVR8/USBController_AVR8.h **** 
 339:LUFA-111009/LUFA/Drivers/USB/Core/AVR8/../AVR8/../AVR8/USBController_AVR8.h **** 			static inline void USB_PLL_Off(void) ATTR_ALWAYS_INLINE;
 340:LUFA-111009/LUFA/Drivers/USB/Core/AVR8/../AVR8/../AVR8/USBController_AVR8.h **** 			static inline void USB_PLL_Off(void)
 341:LUFA-111009/LUFA/Drivers/USB/Core/AVR8/../AVR8/../AVR8/USBController_AVR8.h **** 			{
 342:LUFA-111009/LUFA/Drivers/USB/Core/AVR8/../AVR8/../AVR8/USBController_AVR8.h **** 				PLLCSR = 0;
 188               		.loc 3 342 0
 189 005c 19BC      		out 0x29,__zero_reg__
 190               	.LBE75:
 191               	.LBE74:
 101:LUFA-111009/LUFA/Drivers/USB/Core/AVR8/USBInterrupt_AVR8.c **** 		}
 102:LUFA-111009/LUFA/Drivers/USB/Core/AVR8/USBInterrupt_AVR8.c **** 		else
 103:LUFA-111009/LUFA/Drivers/USB/Core/AVR8/USBInterrupt_AVR8.c **** 		{
 104:LUFA-111009/LUFA/Drivers/USB/Core/AVR8/USBInterrupt_AVR8.c **** 			if (!(USB_Options & USB_OPT_MANUAL_PLL))
 105:LUFA-111009/LUFA/Drivers/USB/Core/AVR8/USBInterrupt_AVR8.c **** 			  USB_PLL_Off();
 106:LUFA-111009/LUFA/Drivers/USB/Core/AVR8/USBInterrupt_AVR8.c **** 
 107:LUFA-111009/LUFA/Drivers/USB/Core/AVR8/USBInterrupt_AVR8.c **** 			USB_DeviceState = DEVICE_STATE_Unattached;
 192               		.loc 1 107 0
 193 005e 1EBA      		out 0x1e,__zero_reg__
 108:LUFA-111009/LUFA/Drivers/USB/Core/AVR8/USBInterrupt_AVR8.c **** 			EVENT_USB_Device_Disconnect();
 194               		.loc 1 108 0
 195 0060 0E94 0000 		call EVENT_USB_Device_Disconnect
 196               	.LVL4:
 197               	.L4:
 198               	.LBB76:
 199               	.LBB77:
 315:LUFA-111009/LUFA/Drivers/USB/Core/AVR8/../AVR8/USBInterrupt_AVR8.h **** 					#endif
 316:LUFA-111009/LUFA/Drivers/USB/Core/AVR8/../AVR8/USBInterrupt_AVR8.h **** 					#if defined(USB_CAN_BE_BOTH)
 317:LUFA-111009/LUFA/Drivers/USB/Core/AVR8/../AVR8/USBInterrupt_AVR8.h **** 					case USB_INT_IDTI:
 318:LUFA-111009/LUFA/Drivers/USB/Core/AVR8/../AVR8/USBInterrupt_AVR8.h **** 						return (USBINT & (1 << IDTI));
 319:LUFA-111009/LUFA/Drivers/USB/Core/AVR8/../AVR8/USBInterrupt_AVR8.h **** 					#endif
 320:LUFA-111009/LUFA/Drivers/USB/Core/AVR8/../AVR8/USBInterrupt_AVR8.h **** 					#if defined(USB_CAN_BE_DEVICE)
 321:LUFA-111009/LUFA/Drivers/USB/Core/AVR8/../AVR8/USBInterrupt_AVR8.h **** 					case USB_INT_WAKEUPI:
 322:LUFA-111009/LUFA/Drivers/USB/Core/AVR8/../AVR8/USBInterrupt_AVR8.h **** 						return (UDINT  & (1 << WAKEUPI));
 323:LUFA-111009/LUFA/Drivers/USB/Core/AVR8/../AVR8/USBInterrupt_AVR8.h **** 					case USB_INT_SUSPI:
 324:LUFA-111009/LUFA/Drivers/USB/Core/AVR8/../AVR8/USBInterrupt_AVR8.h **** 						return (UDINT  & (1 << SUSPI));
 200               		.loc 2 324 0
 201 0064 8091 E100 		lds r24,225
 202               	.LBE77:
 203               	.LBE76:
 109:LUFA-111009/LUFA/Drivers/USB/Core/AVR8/USBInterrupt_AVR8.c **** 		}
 110:LUFA-111009/LUFA/Drivers/USB/Core/AVR8/USBInterrupt_AVR8.c **** 	}
 111:LUFA-111009/LUFA/Drivers/USB/Core/AVR8/USBInterrupt_AVR8.c **** 	#endif
 112:LUFA-111009/LUFA/Drivers/USB/Core/AVR8/USBInterrupt_AVR8.c **** 
 113:LUFA-111009/LUFA/Drivers/USB/Core/AVR8/USBInterrupt_AVR8.c **** 	if (USB_INT_HasOccurred(USB_INT_SUSPI) && USB_INT_IsEnabled(USB_INT_SUSPI))
 204               		.loc 1 113 0
 205 0068 80FF      		sbrs r24,0
 206 006a 00C0      		rjmp .L7
 207               	.LVL5:
 208               	.LBB78:
 209               	.LBB79:
 278:LUFA-111009/LUFA/Drivers/USB/Core/AVR8/../AVR8/USBInterrupt_AVR8.h **** 						return (UDIEN  & (1 << SUSPE));
 210               		.loc 2 278 0
 211 006c 8091 E200 		lds r24,226
 212               	.LBE79:
 213               	.LBE78:
 214               		.loc 1 113 0
 215 0070 80FF      		sbrs r24,0
 216 0072 00C0      		rjmp .L7
 217               	.LVL6:
 218               	.LBB80:
 219               	.LBB81:
 165:LUFA-111009/LUFA/Drivers/USB/Core/AVR8/../AVR8/USBInterrupt_AVR8.h **** 						UDIEN  &= ~(1 << SUSPE);
 220               		.loc 2 165 0
 221 0074 8091 E200 		lds r24,226
 222 0078 8E7F      		andi r24,lo8(-2)
 223 007a 8093 E200 		sts 226,r24
 224               	.LVL7:
 225               	.LBE81:
 226               	.LBE80:
 227               	.LBB82:
 228               	.LBB83:
 104:LUFA-111009/LUFA/Drivers/USB/Core/AVR8/../AVR8/USBInterrupt_AVR8.h **** 						UDIEN  |= (1 << WAKEUPE);
 229               		.loc 2 104 0
 230 007e 8091 E200 		lds r24,226
 231 0082 8061      		ori r24,lo8(16)
 232 0084 8093 E200 		sts 226,r24
 233               	.LBE83:
 234               	.LBE82:
 235               	.LBB84:
 236               	.LBB85:
 343:LUFA-111009/LUFA/Drivers/USB/Core/AVR8/../AVR8/../AVR8/USBController_AVR8.h **** 			}
 344:LUFA-111009/LUFA/Drivers/USB/Core/AVR8/../AVR8/../AVR8/USBController_AVR8.h **** 
 345:LUFA-111009/LUFA/Drivers/USB/Core/AVR8/../AVR8/../AVR8/USBController_AVR8.h **** 			static inline bool USB_PLL_IsReady(void) ATTR_WARN_UNUSED_RESULT ATTR_ALWAYS_INLINE;
 346:LUFA-111009/LUFA/Drivers/USB/Core/AVR8/../AVR8/../AVR8/USBController_AVR8.h **** 			static inline bool USB_PLL_IsReady(void)
 347:LUFA-111009/LUFA/Drivers/USB/Core/AVR8/../AVR8/../AVR8/USBController_AVR8.h **** 			{
 348:LUFA-111009/LUFA/Drivers/USB/Core/AVR8/../AVR8/../AVR8/USBController_AVR8.h **** 				return ((PLLCSR & (1 << PLOCK)) ? true : false);
 349:LUFA-111009/LUFA/Drivers/USB/Core/AVR8/../AVR8/../AVR8/USBController_AVR8.h **** 			}
 350:LUFA-111009/LUFA/Drivers/USB/Core/AVR8/../AVR8/../AVR8/USBController_AVR8.h **** 
 351:LUFA-111009/LUFA/Drivers/USB/Core/AVR8/../AVR8/../AVR8/USBController_AVR8.h **** 			static inline void USB_REG_On(void) ATTR_ALWAYS_INLINE;
 352:LUFA-111009/LUFA/Drivers/USB/Core/AVR8/../AVR8/../AVR8/USBController_AVR8.h **** 			static inline void USB_REG_On(void)
 353:LUFA-111009/LUFA/Drivers/USB/Core/AVR8/../AVR8/../AVR8/USBController_AVR8.h **** 			{
 354:LUFA-111009/LUFA/Drivers/USB/Core/AVR8/../AVR8/../AVR8/USBController_AVR8.h **** 			#if defined(USB_SERIES_4_AVR) || defined(USB_SERIES_6_AVR) || defined(USB_SERIES_7_AVR)
 355:LUFA-111009/LUFA/Drivers/USB/Core/AVR8/../AVR8/../AVR8/USBController_AVR8.h **** 				UHWCON  |=  (1 << UVREGE);
 356:LUFA-111009/LUFA/Drivers/USB/Core/AVR8/../AVR8/../AVR8/USBController_AVR8.h **** 			#else
 357:LUFA-111009/LUFA/Drivers/USB/Core/AVR8/../AVR8/../AVR8/USBController_AVR8.h **** 				REGCR   &= ~(1 << REGDIS);
 358:LUFA-111009/LUFA/Drivers/USB/Core/AVR8/../AVR8/../AVR8/USBController_AVR8.h **** 			#endif
 359:LUFA-111009/LUFA/Drivers/USB/Core/AVR8/../AVR8/../AVR8/USBController_AVR8.h **** 			}
 360:LUFA-111009/LUFA/Drivers/USB/Core/AVR8/../AVR8/../AVR8/USBController_AVR8.h **** 
 361:LUFA-111009/LUFA/Drivers/USB/Core/AVR8/../AVR8/../AVR8/USBController_AVR8.h **** 			static inline void USB_REG_Off(void) ATTR_ALWAYS_INLINE;
 362:LUFA-111009/LUFA/Drivers/USB/Core/AVR8/../AVR8/../AVR8/USBController_AVR8.h **** 			static inline void USB_REG_Off(void)
 363:LUFA-111009/LUFA/Drivers/USB/Core/AVR8/../AVR8/../AVR8/USBController_AVR8.h **** 			{
 364:LUFA-111009/LUFA/Drivers/USB/Core/AVR8/../AVR8/../AVR8/USBController_AVR8.h **** 			#if defined(USB_SERIES_4_AVR) || defined(USB_SERIES_6_AVR) || defined(USB_SERIES_7_AVR)
 365:LUFA-111009/LUFA/Drivers/USB/Core/AVR8/../AVR8/../AVR8/USBController_AVR8.h **** 				UHWCON  &= ~(1 << UVREGE);
 366:LUFA-111009/LUFA/Drivers/USB/Core/AVR8/../AVR8/../AVR8/USBController_AVR8.h **** 			#else
 367:LUFA-111009/LUFA/Drivers/USB/Core/AVR8/../AVR8/../AVR8/USBController_AVR8.h **** 				REGCR   |=  (1 << REGDIS);
 368:LUFA-111009/LUFA/Drivers/USB/Core/AVR8/../AVR8/../AVR8/USBController_AVR8.h **** 			#endif
 369:LUFA-111009/LUFA/Drivers/USB/Core/AVR8/../AVR8/../AVR8/USBController_AVR8.h **** 			}
 370:LUFA-111009/LUFA/Drivers/USB/Core/AVR8/../AVR8/../AVR8/USBController_AVR8.h **** 
 371:LUFA-111009/LUFA/Drivers/USB/Core/AVR8/../AVR8/../AVR8/USBController_AVR8.h **** 			#if defined(USB_SERIES_4_AVR) || defined(USB_SERIES_6_AVR) || defined(USB_SERIES_7_AVR)
 372:LUFA-111009/LUFA/Drivers/USB/Core/AVR8/../AVR8/../AVR8/USBController_AVR8.h **** 			static inline void USB_OTGPAD_On(void) ATTR_ALWAYS_INLINE;
 373:LUFA-111009/LUFA/Drivers/USB/Core/AVR8/../AVR8/../AVR8/USBController_AVR8.h **** 			static inline void USB_OTGPAD_On(void)
 374:LUFA-111009/LUFA/Drivers/USB/Core/AVR8/../AVR8/../AVR8/USBController_AVR8.h **** 			{
 375:LUFA-111009/LUFA/Drivers/USB/Core/AVR8/../AVR8/../AVR8/USBController_AVR8.h **** 				USBCON  |=  (1 << OTGPADE);
 376:LUFA-111009/LUFA/Drivers/USB/Core/AVR8/../AVR8/../AVR8/USBController_AVR8.h **** 			}
 377:LUFA-111009/LUFA/Drivers/USB/Core/AVR8/../AVR8/../AVR8/USBController_AVR8.h **** 
 378:LUFA-111009/LUFA/Drivers/USB/Core/AVR8/../AVR8/../AVR8/USBController_AVR8.h **** 			static inline void USB_OTGPAD_Off(void) ATTR_ALWAYS_INLINE;
 379:LUFA-111009/LUFA/Drivers/USB/Core/AVR8/../AVR8/../AVR8/USBController_AVR8.h **** 			static inline void USB_OTGPAD_Off(void)
 380:LUFA-111009/LUFA/Drivers/USB/Core/AVR8/../AVR8/../AVR8/USBController_AVR8.h **** 			{
 381:LUFA-111009/LUFA/Drivers/USB/Core/AVR8/../AVR8/../AVR8/USBController_AVR8.h **** 				USBCON  &= ~(1 << OTGPADE);
 382:LUFA-111009/LUFA/Drivers/USB/Core/AVR8/../AVR8/../AVR8/USBController_AVR8.h **** 			}
 383:LUFA-111009/LUFA/Drivers/USB/Core/AVR8/../AVR8/../AVR8/USBController_AVR8.h **** 			#endif
 384:LUFA-111009/LUFA/Drivers/USB/Core/AVR8/../AVR8/../AVR8/USBController_AVR8.h **** 
 385:LUFA-111009/LUFA/Drivers/USB/Core/AVR8/../AVR8/../AVR8/USBController_AVR8.h **** 			static inline void USB_CLK_Freeze(void) ATTR_ALWAYS_INLINE;
 386:LUFA-111009/LUFA/Drivers/USB/Core/AVR8/../AVR8/../AVR8/USBController_AVR8.h **** 			static inline void USB_CLK_Freeze(void)
 387:LUFA-111009/LUFA/Drivers/USB/Core/AVR8/../AVR8/../AVR8/USBController_AVR8.h **** 			{
 388:LUFA-111009/LUFA/Drivers/USB/Core/AVR8/../AVR8/../AVR8/USBController_AVR8.h **** 				USBCON  |=  (1 << FRZCLK);
 237               		.loc 3 388 0
 238 0088 8091 D800 		lds r24,216
 239 008c 8062      		ori r24,lo8(32)
 240 008e 8093 D800 		sts 216,r24
 241               	.LBE85:
 242               	.LBE84:
 243               	.LBB86:
 244               	.LBB87:
 342:LUFA-111009/LUFA/Drivers/USB/Core/AVR8/../AVR8/../AVR8/USBController_AVR8.h **** 				PLLCSR = 0;
 245               		.loc 3 342 0
 246 0092 19BC      		out 0x29,__zero_reg__
 247               	.LBE87:
 248               	.LBE86:
 114:LUFA-111009/LUFA/Drivers/USB/Core/AVR8/USBInterrupt_AVR8.c **** 	{
 115:LUFA-111009/LUFA/Drivers/USB/Core/AVR8/USBInterrupt_AVR8.c **** 		USB_INT_Disable(USB_INT_SUSPI);
 116:LUFA-111009/LUFA/Drivers/USB/Core/AVR8/USBInterrupt_AVR8.c **** 		USB_INT_Enable(USB_INT_WAKEUPI);
 117:LUFA-111009/LUFA/Drivers/USB/Core/AVR8/USBInterrupt_AVR8.c **** 
 118:LUFA-111009/LUFA/Drivers/USB/Core/AVR8/USBInterrupt_AVR8.c **** 		USB_CLK_Freeze();
 119:LUFA-111009/LUFA/Drivers/USB/Core/AVR8/USBInterrupt_AVR8.c **** 
 120:LUFA-111009/LUFA/Drivers/USB/Core/AVR8/USBInterrupt_AVR8.c **** 		if (!(USB_Options & USB_OPT_MANUAL_PLL))
 121:LUFA-111009/LUFA/Drivers/USB/Core/AVR8/USBInterrupt_AVR8.c **** 		  USB_PLL_Off();
 122:LUFA-111009/LUFA/Drivers/USB/Core/AVR8/USBInterrupt_AVR8.c **** 
 123:LUFA-111009/LUFA/Drivers/USB/Core/AVR8/USBInterrupt_AVR8.c **** 		#if defined(USB_SERIES_2_AVR) && !defined(NO_LIMITED_CONTROLLER_CONNECT)
 124:LUFA-111009/LUFA/Drivers/USB/Core/AVR8/USBInterrupt_AVR8.c **** 		USB_DeviceState = DEVICE_STATE_Unattached;
 125:LUFA-111009/LUFA/Drivers/USB/Core/AVR8/USBInterrupt_AVR8.c **** 		EVENT_USB_Device_Disconnect();
 126:LUFA-111009/LUFA/Drivers/USB/Core/AVR8/USBInterrupt_AVR8.c **** 		#else
 127:LUFA-111009/LUFA/Drivers/USB/Core/AVR8/USBInterrupt_AVR8.c **** 		USB_DeviceState = DEVICE_STATE_Suspended;
 249               		.loc 1 127 0
 250 0094 85E0      		ldi r24,lo8(5)
 251 0096 8EBB      		out 0x1e,r24
 128:LUFA-111009/LUFA/Drivers/USB/Core/AVR8/USBInterrupt_AVR8.c **** 		EVENT_USB_Device_Suspend();
 252               		.loc 1 128 0
 253 0098 0E94 0000 		call EVENT_USB_Device_Suspend
 254               	.LVL8:
 255               	.L7:
 256               	.LBB88:
 257               	.LBB89:
 322:LUFA-111009/LUFA/Drivers/USB/Core/AVR8/../AVR8/USBInterrupt_AVR8.h **** 						return (UDINT  & (1 << WAKEUPI));
 258               		.loc 2 322 0
 259 009c 8091 E100 		lds r24,225
 260               	.LBE89:
 261               	.LBE88:
 129:LUFA-111009/LUFA/Drivers/USB/Core/AVR8/USBInterrupt_AVR8.c **** 		#endif
 130:LUFA-111009/LUFA/Drivers/USB/Core/AVR8/USBInterrupt_AVR8.c **** 	}
 131:LUFA-111009/LUFA/Drivers/USB/Core/AVR8/USBInterrupt_AVR8.c **** 
 132:LUFA-111009/LUFA/Drivers/USB/Core/AVR8/USBInterrupt_AVR8.c **** 	if (USB_INT_HasOccurred(USB_INT_WAKEUPI) && USB_INT_IsEnabled(USB_INT_WAKEUPI))
 262               		.loc 1 132 0
 263 00a0 84FF      		sbrs r24,4
 264 00a2 00C0      		rjmp .L8
 265               	.LVL9:
 266               	.LBB90:
 267               	.LBB91:
 276:LUFA-111009/LUFA/Drivers/USB/Core/AVR8/../AVR8/USBInterrupt_AVR8.h **** 						return (UDIEN  & (1 << WAKEUPE));
 268               		.loc 2 276 0
 269 00a4 8091 E200 		lds r24,226
 270               	.LBE91:
 271               	.LBE90:
 272               		.loc 1 132 0
 273 00a8 84FF      		sbrs r24,4
 274 00aa 00C0      		rjmp .L8
 275               	.LBB92:
 276               	.LBB93:
 335:LUFA-111009/LUFA/Drivers/USB/Core/AVR8/../AVR8/../AVR8/USBController_AVR8.h **** 				PLLCSR = USB_PLL_PSC;
 277               		.loc 3 335 0
 278 00ac 80E1      		ldi r24,lo8(16)
 279 00ae 89BD      		out 0x29,r24
 336:LUFA-111009/LUFA/Drivers/USB/Core/AVR8/../AVR8/../AVR8/USBController_AVR8.h **** 				PLLCSR = (USB_PLL_PSC | (1 << PLLE));
 280               		.loc 3 336 0
 281 00b0 82E1      		ldi r24,lo8(18)
 282 00b2 89BD      		out 0x29,r24
 283               	.L9:
 284               	.LBE93:
 285               	.LBE92:
 133:LUFA-111009/LUFA/Drivers/USB/Core/AVR8/USBInterrupt_AVR8.c **** 	{
 134:LUFA-111009/LUFA/Drivers/USB/Core/AVR8/USBInterrupt_AVR8.c **** 		if (!(USB_Options & USB_OPT_MANUAL_PLL))
 135:LUFA-111009/LUFA/Drivers/USB/Core/AVR8/USBInterrupt_AVR8.c **** 		{
 136:LUFA-111009/LUFA/Drivers/USB/Core/AVR8/USBInterrupt_AVR8.c **** 			USB_PLL_On();
 137:LUFA-111009/LUFA/Drivers/USB/Core/AVR8/USBInterrupt_AVR8.c **** 			while (!(USB_PLL_IsReady()));
 286               		.loc 1 137 0 discriminator 1
 287 00b4 09B4      		in __tmp_reg__,0x29
 288 00b6 00FE      		sbrs __tmp_reg__,0
 289 00b8 00C0      		rjmp .L9
 290               	.LBB94:
 291               	.LBB95:
 389:LUFA-111009/LUFA/Drivers/USB/Core/AVR8/../AVR8/../AVR8/USBController_AVR8.h **** 			}
 390:LUFA-111009/LUFA/Drivers/USB/Core/AVR8/../AVR8/../AVR8/USBController_AVR8.h **** 
 391:LUFA-111009/LUFA/Drivers/USB/Core/AVR8/../AVR8/../AVR8/USBController_AVR8.h **** 			static inline void USB_CLK_Unfreeze(void) ATTR_ALWAYS_INLINE;
 392:LUFA-111009/LUFA/Drivers/USB/Core/AVR8/../AVR8/../AVR8/USBController_AVR8.h **** 			static inline void USB_CLK_Unfreeze(void)
 393:LUFA-111009/LUFA/Drivers/USB/Core/AVR8/../AVR8/../AVR8/USBController_AVR8.h **** 			{
 394:LUFA-111009/LUFA/Drivers/USB/Core/AVR8/../AVR8/../AVR8/USBController_AVR8.h **** 				USBCON  &= ~(1 << FRZCLK);
 292               		.loc 3 394 0
 293 00ba 8091 D800 		lds r24,216
 294 00be 8F7D      		andi r24,lo8(-33)
 295 00c0 8093 D800 		sts 216,r24
 296               	.LVL10:
 297               	.LBE95:
 298               	.LBE94:
 299               	.LBB96:
 300               	.LBB97:
 220:LUFA-111009/LUFA/Drivers/USB/Core/AVR8/../AVR8/USBInterrupt_AVR8.h **** 						UDINT  &= ~(1 << WAKEUPI);
 301               		.loc 2 220 0
 302 00c4 8091 E100 		lds r24,225
 303 00c8 8F7E      		andi r24,lo8(-17)
 304 00ca 8093 E100 		sts 225,r24
 305               	.LVL11:
 306               	.LBE97:
 307               	.LBE96:
 308               	.LBB98:
 309               	.LBB99:
 162:LUFA-111009/LUFA/Drivers/USB/Core/AVR8/../AVR8/USBInterrupt_AVR8.h **** 						UDIEN  &= ~(1 << WAKEUPE);
 310               		.loc 2 162 0
 311 00ce 8091 E200 		lds r24,226
 312 00d2 8F7E      		andi r24,lo8(-17)
 313 00d4 8093 E200 		sts 226,r24
 314               	.LVL12:
 315               	.LBE99:
 316               	.LBE98:
 317               	.LBB100:
 318               	.LBB101:
 107:LUFA-111009/LUFA/Drivers/USB/Core/AVR8/../AVR8/USBInterrupt_AVR8.h **** 						UDIEN  |= (1 << SUSPE);
 319               		.loc 2 107 0
 320 00d8 8091 E200 		lds r24,226
 321 00dc 8160      		ori r24,lo8(1)
 322 00de 8093 E200 		sts 226,r24
 323               	.LBE101:
 324               	.LBE100:
 138:LUFA-111009/LUFA/Drivers/USB/Core/AVR8/USBInterrupt_AVR8.c **** 		}
 139:LUFA-111009/LUFA/Drivers/USB/Core/AVR8/USBInterrupt_AVR8.c **** 
 140:LUFA-111009/LUFA/Drivers/USB/Core/AVR8/USBInterrupt_AVR8.c **** 		USB_CLK_Unfreeze();
 141:LUFA-111009/LUFA/Drivers/USB/Core/AVR8/USBInterrupt_AVR8.c **** 
 142:LUFA-111009/LUFA/Drivers/USB/Core/AVR8/USBInterrupt_AVR8.c **** 		USB_INT_Clear(USB_INT_WAKEUPI);
 143:LUFA-111009/LUFA/Drivers/USB/Core/AVR8/USBInterrupt_AVR8.c **** 
 144:LUFA-111009/LUFA/Drivers/USB/Core/AVR8/USBInterrupt_AVR8.c **** 		USB_INT_Disable(USB_INT_WAKEUPI);
 145:LUFA-111009/LUFA/Drivers/USB/Core/AVR8/USBInterrupt_AVR8.c **** 		USB_INT_Enable(USB_INT_SUSPI);
 146:LUFA-111009/LUFA/Drivers/USB/Core/AVR8/USBInterrupt_AVR8.c **** 
 147:LUFA-111009/LUFA/Drivers/USB/Core/AVR8/USBInterrupt_AVR8.c **** 		if (USB_Device_ConfigurationNumber)
 325               		.loc 1 147 0
 326 00e2 8091 0000 		lds r24,USB_Device_ConfigurationNumber
 327 00e6 8111      		cpse r24,__zero_reg__
 328 00e8 00C0      		rjmp .L47
 329               	.L10:
 330               	.LBB102:
 331               	.LBB103:
 332               		.file 4 "LUFA-111009/LUFA/Drivers/USB/Core/AVR8/../AVR8/../AVR8/../AVR8/Device_AVR8.h"
   1:LUFA-111009/LUFA/Drivers/USB/Core/AVR8/../AVR8/../AVR8/../AVR8/Device_AVR8.h **** /*
   2:LUFA-111009/LUFA/Drivers/USB/Core/AVR8/../AVR8/../AVR8/../AVR8/Device_AVR8.h ****              LUFA Library
   3:LUFA-111009/LUFA/Drivers/USB/Core/AVR8/../AVR8/../AVR8/../AVR8/Device_AVR8.h ****      Copyright (C) Dean Camera, 2011.
   4:LUFA-111009/LUFA/Drivers/USB/Core/AVR8/../AVR8/../AVR8/../AVR8/Device_AVR8.h **** 
   5:LUFA-111009/LUFA/Drivers/USB/Core/AVR8/../AVR8/../AVR8/../AVR8/Device_AVR8.h ****   dean [at] fourwalledcubicle [dot] com
   6:LUFA-111009/LUFA/Drivers/USB/Core/AVR8/../AVR8/../AVR8/../AVR8/Device_AVR8.h ****            www.lufa-lib.org
   7:LUFA-111009/LUFA/Drivers/USB/Core/AVR8/../AVR8/../AVR8/../AVR8/Device_AVR8.h **** */
   8:LUFA-111009/LUFA/Drivers/USB/Core/AVR8/../AVR8/../AVR8/../AVR8/Device_AVR8.h **** 
   9:LUFA-111009/LUFA/Drivers/USB/Core/AVR8/../AVR8/../AVR8/../AVR8/Device_AVR8.h **** /*
  10:LUFA-111009/LUFA/Drivers/USB/Core/AVR8/../AVR8/../AVR8/../AVR8/Device_AVR8.h ****   Copyright 2011  Dean Camera (dean [at] fourwalledcubicle [dot] com)
  11:LUFA-111009/LUFA/Drivers/USB/Core/AVR8/../AVR8/../AVR8/../AVR8/Device_AVR8.h **** 
  12:LUFA-111009/LUFA/Drivers/USB/Core/AVR8/../AVR8/../AVR8/../AVR8/Device_AVR8.h ****   Permission to use, copy, modify, distribute, and sell this
  13:LUFA-111009/LUFA/Drivers/USB/Core/AVR8/../AVR8/../AVR8/../AVR8/Device_AVR8.h ****   software and its documentation for any purpose is hereby granted
  14:LUFA-111009/LUFA/Drivers/USB/Core/AVR8/../AVR8/../AVR8/../AVR8/Device_AVR8.h ****   without fee, provided that the above copyright notice appear in
  15:LUFA-111009/LUFA/Drivers/USB/Core/AVR8/../AVR8/../AVR8/../AVR8/Device_AVR8.h ****   all copies and that both that the copyright notice and this
  16:LUFA-111009/LUFA/Drivers/USB/Core/AVR8/../AVR8/../AVR8/../AVR8/Device_AVR8.h ****   permission notice and warranty disclaimer appear in supporting
  17:LUFA-111009/LUFA/Drivers/USB/Core/AVR8/../AVR8/../AVR8/../AVR8/Device_AVR8.h ****   documentation, and that the name of the author not be used in
  18:LUFA-111009/LUFA/Drivers/USB/Core/AVR8/../AVR8/../AVR8/../AVR8/Device_AVR8.h ****   advertising or publicity pertaining to distribution of the
  19:LUFA-111009/LUFA/Drivers/USB/Core/AVR8/../AVR8/../AVR8/../AVR8/Device_AVR8.h ****   software without specific, written prior permission.
  20:LUFA-111009/LUFA/Drivers/USB/Core/AVR8/../AVR8/../AVR8/../AVR8/Device_AVR8.h **** 
  21:LUFA-111009/LUFA/Drivers/USB/Core/AVR8/../AVR8/../AVR8/../AVR8/Device_AVR8.h ****   The author disclaim all warranties with regard to this
  22:LUFA-111009/LUFA/Drivers/USB/Core/AVR8/../AVR8/../AVR8/../AVR8/Device_AVR8.h ****   software, including all implied warranties of merchantability
  23:LUFA-111009/LUFA/Drivers/USB/Core/AVR8/../AVR8/../AVR8/../AVR8/Device_AVR8.h ****   and fitness.  In no event shall the author be liable for any
  24:LUFA-111009/LUFA/Drivers/USB/Core/AVR8/../AVR8/../AVR8/../AVR8/Device_AVR8.h ****   special, indirect or consequential damages or any damages
  25:LUFA-111009/LUFA/Drivers/USB/Core/AVR8/../AVR8/../AVR8/../AVR8/Device_AVR8.h ****   whatsoever resulting from loss of use, data or profits, whether
  26:LUFA-111009/LUFA/Drivers/USB/Core/AVR8/../AVR8/../AVR8/../AVR8/Device_AVR8.h ****   in an action of contract, negligence or other tortious action,
  27:LUFA-111009/LUFA/Drivers/USB/Core/AVR8/../AVR8/../AVR8/../AVR8/Device_AVR8.h ****   arising out of or in connection with the use or performance of
  28:LUFA-111009/LUFA/Drivers/USB/Core/AVR8/../AVR8/../AVR8/../AVR8/Device_AVR8.h ****   this software.
  29:LUFA-111009/LUFA/Drivers/USB/Core/AVR8/../AVR8/../AVR8/../AVR8/Device_AVR8.h **** */
  30:LUFA-111009/LUFA/Drivers/USB/Core/AVR8/../AVR8/../AVR8/../AVR8/Device_AVR8.h **** 
  31:LUFA-111009/LUFA/Drivers/USB/Core/AVR8/../AVR8/../AVR8/../AVR8/Device_AVR8.h **** /** \file
  32:LUFA-111009/LUFA/Drivers/USB/Core/AVR8/../AVR8/../AVR8/../AVR8/Device_AVR8.h ****  *  \brief USB Device definitions for the AVR8 microcontrollers.
  33:LUFA-111009/LUFA/Drivers/USB/Core/AVR8/../AVR8/../AVR8/../AVR8/Device_AVR8.h ****  *  \copydetails Group_Device_AVR8
  34:LUFA-111009/LUFA/Drivers/USB/Core/AVR8/../AVR8/../AVR8/../AVR8/Device_AVR8.h ****  *
  35:LUFA-111009/LUFA/Drivers/USB/Core/AVR8/../AVR8/../AVR8/../AVR8/Device_AVR8.h ****  *  \note This file should not be included directly. It is automatically included as needed by the 
  36:LUFA-111009/LUFA/Drivers/USB/Core/AVR8/../AVR8/../AVR8/../AVR8/Device_AVR8.h ****  *        dispatch header located in LUFA/Drivers/USB/USB.h.
  37:LUFA-111009/LUFA/Drivers/USB/Core/AVR8/../AVR8/../AVR8/../AVR8/Device_AVR8.h ****  */
  38:LUFA-111009/LUFA/Drivers/USB/Core/AVR8/../AVR8/../AVR8/../AVR8/Device_AVR8.h **** 
  39:LUFA-111009/LUFA/Drivers/USB/Core/AVR8/../AVR8/../AVR8/../AVR8/Device_AVR8.h **** /** \ingroup Group_Device
  40:LUFA-111009/LUFA/Drivers/USB/Core/AVR8/../AVR8/../AVR8/../AVR8/Device_AVR8.h ****  *  \defgroup Group_Device_AVR8 Device Management (AVR8)
  41:LUFA-111009/LUFA/Drivers/USB/Core/AVR8/../AVR8/../AVR8/../AVR8/Device_AVR8.h ****  *  \brief USB Device definitions for the AVR8 microcontrollers.
  42:LUFA-111009/LUFA/Drivers/USB/Core/AVR8/../AVR8/../AVR8/../AVR8/Device_AVR8.h ****  *
  43:LUFA-111009/LUFA/Drivers/USB/Core/AVR8/../AVR8/../AVR8/../AVR8/Device_AVR8.h ****  *  Architecture specific USB Device definitions for the Atmel 8-bit AVR microcontrollers.
  44:LUFA-111009/LUFA/Drivers/USB/Core/AVR8/../AVR8/../AVR8/../AVR8/Device_AVR8.h ****  *
  45:LUFA-111009/LUFA/Drivers/USB/Core/AVR8/../AVR8/../AVR8/../AVR8/Device_AVR8.h ****  *  @{
  46:LUFA-111009/LUFA/Drivers/USB/Core/AVR8/../AVR8/../AVR8/../AVR8/Device_AVR8.h ****  */
  47:LUFA-111009/LUFA/Drivers/USB/Core/AVR8/../AVR8/../AVR8/../AVR8/Device_AVR8.h **** 
  48:LUFA-111009/LUFA/Drivers/USB/Core/AVR8/../AVR8/../AVR8/../AVR8/Device_AVR8.h **** #ifndef __USBDEVICE_AVR8_H__
  49:LUFA-111009/LUFA/Drivers/USB/Core/AVR8/../AVR8/../AVR8/../AVR8/Device_AVR8.h **** #define __USBDEVICE_AVR8_H__
  50:LUFA-111009/LUFA/Drivers/USB/Core/AVR8/../AVR8/../AVR8/../AVR8/Device_AVR8.h **** 
  51:LUFA-111009/LUFA/Drivers/USB/Core/AVR8/../AVR8/../AVR8/../AVR8/Device_AVR8.h **** 	/* Includes: */
  52:LUFA-111009/LUFA/Drivers/USB/Core/AVR8/../AVR8/../AVR8/../AVR8/Device_AVR8.h **** 		#include "../../../../Common/Common.h"
  53:LUFA-111009/LUFA/Drivers/USB/Core/AVR8/../AVR8/../AVR8/../AVR8/Device_AVR8.h **** 		#include "../USBController.h"
  54:LUFA-111009/LUFA/Drivers/USB/Core/AVR8/../AVR8/../AVR8/../AVR8/Device_AVR8.h **** 		#include "../StdDescriptors.h"
  55:LUFA-111009/LUFA/Drivers/USB/Core/AVR8/../AVR8/../AVR8/../AVR8/Device_AVR8.h **** 		#include "../USBInterrupt.h"
  56:LUFA-111009/LUFA/Drivers/USB/Core/AVR8/../AVR8/../AVR8/../AVR8/Device_AVR8.h **** 		#include "../Endpoint.h"
  57:LUFA-111009/LUFA/Drivers/USB/Core/AVR8/../AVR8/../AVR8/../AVR8/Device_AVR8.h **** 		
  58:LUFA-111009/LUFA/Drivers/USB/Core/AVR8/../AVR8/../AVR8/../AVR8/Device_AVR8.h **** 	/* Enable C linkage for C++ Compilers: */
  59:LUFA-111009/LUFA/Drivers/USB/Core/AVR8/../AVR8/../AVR8/../AVR8/Device_AVR8.h **** 		#if defined(__cplusplus)
  60:LUFA-111009/LUFA/Drivers/USB/Core/AVR8/../AVR8/../AVR8/../AVR8/Device_AVR8.h **** 			extern "C" {
  61:LUFA-111009/LUFA/Drivers/USB/Core/AVR8/../AVR8/../AVR8/../AVR8/Device_AVR8.h **** 		#endif
  62:LUFA-111009/LUFA/Drivers/USB/Core/AVR8/../AVR8/../AVR8/../AVR8/Device_AVR8.h **** 
  63:LUFA-111009/LUFA/Drivers/USB/Core/AVR8/../AVR8/../AVR8/../AVR8/Device_AVR8.h **** 	/* Preprocessor Checks: */
  64:LUFA-111009/LUFA/Drivers/USB/Core/AVR8/../AVR8/../AVR8/../AVR8/Device_AVR8.h **** 		#if !defined(__INCLUDE_FROM_USB_DRIVER)
  65:LUFA-111009/LUFA/Drivers/USB/Core/AVR8/../AVR8/../AVR8/../AVR8/Device_AVR8.h **** 			#error Do not include this file directly. Include LUFA/Drivers/USB/USB.h instead.
  66:LUFA-111009/LUFA/Drivers/USB/Core/AVR8/../AVR8/../AVR8/../AVR8/Device_AVR8.h **** 		#endif
  67:LUFA-111009/LUFA/Drivers/USB/Core/AVR8/../AVR8/../AVR8/../AVR8/Device_AVR8.h **** 
  68:LUFA-111009/LUFA/Drivers/USB/Core/AVR8/../AVR8/../AVR8/../AVR8/Device_AVR8.h **** 		#if (defined(USE_RAM_DESCRIPTORS) && defined(USE_EEPROM_DESCRIPTORS))
  69:LUFA-111009/LUFA/Drivers/USB/Core/AVR8/../AVR8/../AVR8/../AVR8/Device_AVR8.h **** 			#error USE_RAM_DESCRIPTORS and USE_EEPROM_DESCRIPTORS are mutually exclusive.
  70:LUFA-111009/LUFA/Drivers/USB/Core/AVR8/../AVR8/../AVR8/../AVR8/Device_AVR8.h **** 		#endif
  71:LUFA-111009/LUFA/Drivers/USB/Core/AVR8/../AVR8/../AVR8/../AVR8/Device_AVR8.h **** 
  72:LUFA-111009/LUFA/Drivers/USB/Core/AVR8/../AVR8/../AVR8/../AVR8/Device_AVR8.h **** 	/* Public Interface - May be used in end-application: */
  73:LUFA-111009/LUFA/Drivers/USB/Core/AVR8/../AVR8/../AVR8/../AVR8/Device_AVR8.h **** 		/* Macros: */
  74:LUFA-111009/LUFA/Drivers/USB/Core/AVR8/../AVR8/../AVR8/../AVR8/Device_AVR8.h **** 			/** \name USB Device Mode Option Masks */
  75:LUFA-111009/LUFA/Drivers/USB/Core/AVR8/../AVR8/../AVR8/../AVR8/Device_AVR8.h **** 			//@{
  76:LUFA-111009/LUFA/Drivers/USB/Core/AVR8/../AVR8/../AVR8/../AVR8/Device_AVR8.h **** 			#if defined(USB_SERIES_4_AVR) || defined(USB_SERIES_6_AVR) || defined(USB_SERIES_7_AVR) || defin
  77:LUFA-111009/LUFA/Drivers/USB/Core/AVR8/../AVR8/../AVR8/../AVR8/Device_AVR8.h **** 				/** Mask for the Options parameter of the \ref USB_Init() function. This indicates that the
  78:LUFA-111009/LUFA/Drivers/USB/Core/AVR8/../AVR8/../AVR8/../AVR8/Device_AVR8.h **** 				 *  USB interface should be initialized in low speed (1.5Mb/s) mode.
  79:LUFA-111009/LUFA/Drivers/USB/Core/AVR8/../AVR8/../AVR8/../AVR8/Device_AVR8.h **** 				 *
  80:LUFA-111009/LUFA/Drivers/USB/Core/AVR8/../AVR8/../AVR8/../AVR8/Device_AVR8.h **** 				 *  \note Low Speed mode is not available on all USB AVR models.
  81:LUFA-111009/LUFA/Drivers/USB/Core/AVR8/../AVR8/../AVR8/../AVR8/Device_AVR8.h **** 				 *        \n
  82:LUFA-111009/LUFA/Drivers/USB/Core/AVR8/../AVR8/../AVR8/../AVR8/Device_AVR8.h **** 				 *
  83:LUFA-111009/LUFA/Drivers/USB/Core/AVR8/../AVR8/../AVR8/../AVR8/Device_AVR8.h **** 				 *  \note Restrictions apply on the number, size and type of endpoints which can be used
  84:LUFA-111009/LUFA/Drivers/USB/Core/AVR8/../AVR8/../AVR8/../AVR8/Device_AVR8.h **** 				 *        when running in low speed mode - refer to the USB 2.0 specification.
  85:LUFA-111009/LUFA/Drivers/USB/Core/AVR8/../AVR8/../AVR8/../AVR8/Device_AVR8.h **** 				 */
  86:LUFA-111009/LUFA/Drivers/USB/Core/AVR8/../AVR8/../AVR8/../AVR8/Device_AVR8.h **** 				#define USB_DEVICE_OPT_LOWSPEED            (1 << 0)
  87:LUFA-111009/LUFA/Drivers/USB/Core/AVR8/../AVR8/../AVR8/../AVR8/Device_AVR8.h **** 			#endif
  88:LUFA-111009/LUFA/Drivers/USB/Core/AVR8/../AVR8/../AVR8/../AVR8/Device_AVR8.h **** 
  89:LUFA-111009/LUFA/Drivers/USB/Core/AVR8/../AVR8/../AVR8/../AVR8/Device_AVR8.h **** 			/** Mask for the Options parameter of the \ref USB_Init() function. This indicates that the
  90:LUFA-111009/LUFA/Drivers/USB/Core/AVR8/../AVR8/../AVR8/../AVR8/Device_AVR8.h **** 			 *  USB interface should be initialized in full speed (12Mb/s) mode.
  91:LUFA-111009/LUFA/Drivers/USB/Core/AVR8/../AVR8/../AVR8/../AVR8/Device_AVR8.h **** 			 */
  92:LUFA-111009/LUFA/Drivers/USB/Core/AVR8/../AVR8/../AVR8/../AVR8/Device_AVR8.h **** 			#define USB_DEVICE_OPT_FULLSPEED               (0 << 0)
  93:LUFA-111009/LUFA/Drivers/USB/Core/AVR8/../AVR8/../AVR8/../AVR8/Device_AVR8.h **** 			//@}
  94:LUFA-111009/LUFA/Drivers/USB/Core/AVR8/../AVR8/../AVR8/../AVR8/Device_AVR8.h **** 			
  95:LUFA-111009/LUFA/Drivers/USB/Core/AVR8/../AVR8/../AVR8/../AVR8/Device_AVR8.h **** 			#if (!defined(NO_INTERNAL_SERIAL) && \
  96:LUFA-111009/LUFA/Drivers/USB/Core/AVR8/../AVR8/../AVR8/../AVR8/Device_AVR8.h **** 			     (defined(USB_SERIES_7_AVR) || defined(USB_SERIES_6_AVR) || defined(USB_SERIES_4_AVR) || \
  97:LUFA-111009/LUFA/Drivers/USB/Core/AVR8/../AVR8/../AVR8/../AVR8/Device_AVR8.h **** 			      (defined(USB_SERIES_2_AVR) && (!defined(__AVR_AT90USB82__) || defined(__AVR_AT90USB162__))
  98:LUFA-111009/LUFA/Drivers/USB/Core/AVR8/../AVR8/../AVR8/../AVR8/Device_AVR8.h **** 				  defined(__DOXYGEN__)))
  99:LUFA-111009/LUFA/Drivers/USB/Core/AVR8/../AVR8/../AVR8/../AVR8/Device_AVR8.h **** 				/** String descriptor index for the device's unique serial number string descriptor within the 
 100:LUFA-111009/LUFA/Drivers/USB/Core/AVR8/../AVR8/../AVR8/../AVR8/Device_AVR8.h **** 				 *  This unique serial number is used by the host to associate resources to the device (such as
 101:LUFA-111009/LUFA/Drivers/USB/Core/AVR8/../AVR8/../AVR8/../AVR8/Device_AVR8.h **** 				 *  number allocations) to a device regardless of the port it is plugged in to on the host. Som
 102:LUFA-111009/LUFA/Drivers/USB/Core/AVR8/../AVR8/../AVR8/../AVR8/Device_AVR8.h **** 				 *  a unique serial number internally, and setting the device descriptors serial number string 
 103:LUFA-111009/LUFA/Drivers/USB/Core/AVR8/../AVR8/../AVR8/../AVR8/Device_AVR8.h **** 				 *  will cause it to use the internal serial number.
 104:LUFA-111009/LUFA/Drivers/USB/Core/AVR8/../AVR8/../AVR8/../AVR8/Device_AVR8.h **** 				 *
 105:LUFA-111009/LUFA/Drivers/USB/Core/AVR8/../AVR8/../AVR8/../AVR8/Device_AVR8.h **** 				 *  On unsupported devices, this will evaluate to \ref NO_DESCRIPTOR and so will force the host
 106:LUFA-111009/LUFA/Drivers/USB/Core/AVR8/../AVR8/../AVR8/../AVR8/Device_AVR8.h **** 				 *  number for the device.
 107:LUFA-111009/LUFA/Drivers/USB/Core/AVR8/../AVR8/../AVR8/../AVR8/Device_AVR8.h **** 				 */
 108:LUFA-111009/LUFA/Drivers/USB/Core/AVR8/../AVR8/../AVR8/../AVR8/Device_AVR8.h **** 				#define USE_INTERNAL_SERIAL            0xDC
 109:LUFA-111009/LUFA/Drivers/USB/Core/AVR8/../AVR8/../AVR8/../AVR8/Device_AVR8.h **** 
 110:LUFA-111009/LUFA/Drivers/USB/Core/AVR8/../AVR8/../AVR8/../AVR8/Device_AVR8.h **** 				/** Length of the device's unique internal serial number, in bits, if present on the selected m
 111:LUFA-111009/LUFA/Drivers/USB/Core/AVR8/../AVR8/../AVR8/../AVR8/Device_AVR8.h **** 				 *  model.
 112:LUFA-111009/LUFA/Drivers/USB/Core/AVR8/../AVR8/../AVR8/../AVR8/Device_AVR8.h **** 				 */
 113:LUFA-111009/LUFA/Drivers/USB/Core/AVR8/../AVR8/../AVR8/../AVR8/Device_AVR8.h **** 				#define INTERNAL_SERIAL_LENGTH_BITS    80
 114:LUFA-111009/LUFA/Drivers/USB/Core/AVR8/../AVR8/../AVR8/../AVR8/Device_AVR8.h **** 				
 115:LUFA-111009/LUFA/Drivers/USB/Core/AVR8/../AVR8/../AVR8/../AVR8/Device_AVR8.h **** 				/** Start address of the internal serial number, in the appropriate address space, if present o
 116:LUFA-111009/LUFA/Drivers/USB/Core/AVR8/../AVR8/../AVR8/../AVR8/Device_AVR8.h **** 				 *  model.
 117:LUFA-111009/LUFA/Drivers/USB/Core/AVR8/../AVR8/../AVR8/../AVR8/Device_AVR8.h **** 				 */
 118:LUFA-111009/LUFA/Drivers/USB/Core/AVR8/../AVR8/../AVR8/../AVR8/Device_AVR8.h **** 				#define INTERNAL_SERIAL_START_ADDRESS  0x0E
 119:LUFA-111009/LUFA/Drivers/USB/Core/AVR8/../AVR8/../AVR8/../AVR8/Device_AVR8.h **** 			#else
 120:LUFA-111009/LUFA/Drivers/USB/Core/AVR8/../AVR8/../AVR8/../AVR8/Device_AVR8.h **** 				#define USE_INTERNAL_SERIAL            NO_DESCRIPTOR
 121:LUFA-111009/LUFA/Drivers/USB/Core/AVR8/../AVR8/../AVR8/../AVR8/Device_AVR8.h **** 
 122:LUFA-111009/LUFA/Drivers/USB/Core/AVR8/../AVR8/../AVR8/../AVR8/Device_AVR8.h **** 				#define INTERNAL_SERIAL_LENGTH_BITS    0
 123:LUFA-111009/LUFA/Drivers/USB/Core/AVR8/../AVR8/../AVR8/../AVR8/Device_AVR8.h **** 				#define INTERNAL_SERIAL_START_ADDRESS  0
 124:LUFA-111009/LUFA/Drivers/USB/Core/AVR8/../AVR8/../AVR8/../AVR8/Device_AVR8.h **** 			#endif			
 125:LUFA-111009/LUFA/Drivers/USB/Core/AVR8/../AVR8/../AVR8/../AVR8/Device_AVR8.h **** 			
 126:LUFA-111009/LUFA/Drivers/USB/Core/AVR8/../AVR8/../AVR8/../AVR8/Device_AVR8.h **** 		/* Function Prototypes: */
 127:LUFA-111009/LUFA/Drivers/USB/Core/AVR8/../AVR8/../AVR8/../AVR8/Device_AVR8.h **** 			/** Sends a Remote Wakeup request to the host. This signals to the host that the device should
 128:LUFA-111009/LUFA/Drivers/USB/Core/AVR8/../AVR8/../AVR8/../AVR8/Device_AVR8.h **** 			 *  be taken out of suspended mode, and communications should resume.
 129:LUFA-111009/LUFA/Drivers/USB/Core/AVR8/../AVR8/../AVR8/../AVR8/Device_AVR8.h **** 			 *
 130:LUFA-111009/LUFA/Drivers/USB/Core/AVR8/../AVR8/../AVR8/../AVR8/Device_AVR8.h **** 			 *  Typically, this is implemented so that HID devices (mice, keyboards, etc.) can wake up the
 131:LUFA-111009/LUFA/Drivers/USB/Core/AVR8/../AVR8/../AVR8/../AVR8/Device_AVR8.h **** 			 *  host computer when the host has suspended all USB devices to enter a low power state.
 132:LUFA-111009/LUFA/Drivers/USB/Core/AVR8/../AVR8/../AVR8/../AVR8/Device_AVR8.h **** 			 *
 133:LUFA-111009/LUFA/Drivers/USB/Core/AVR8/../AVR8/../AVR8/../AVR8/Device_AVR8.h **** 			 *  \note This macro should only be used if the device has indicated to the host that it
 134:LUFA-111009/LUFA/Drivers/USB/Core/AVR8/../AVR8/../AVR8/../AVR8/Device_AVR8.h **** 			 *        supports the Remote Wakeup feature in the device descriptors, and should only be
 135:LUFA-111009/LUFA/Drivers/USB/Core/AVR8/../AVR8/../AVR8/../AVR8/Device_AVR8.h **** 			 *        issued if the host is currently allowing remote wakeup events from the device (i.e.,
 136:LUFA-111009/LUFA/Drivers/USB/Core/AVR8/../AVR8/../AVR8/../AVR8/Device_AVR8.h **** 			 *        the \ref USB_Device_RemoteWakeupEnabled flag is set). When the \c NO_DEVICE_REMOTE_WAK
 137:LUFA-111009/LUFA/Drivers/USB/Core/AVR8/../AVR8/../AVR8/../AVR8/Device_AVR8.h **** 			 *        compile time option is used, this macro is unavailable.
 138:LUFA-111009/LUFA/Drivers/USB/Core/AVR8/../AVR8/../AVR8/../AVR8/Device_AVR8.h **** 			 *        \n\n
 139:LUFA-111009/LUFA/Drivers/USB/Core/AVR8/../AVR8/../AVR8/../AVR8/Device_AVR8.h **** 			 *
 140:LUFA-111009/LUFA/Drivers/USB/Core/AVR8/../AVR8/../AVR8/../AVR8/Device_AVR8.h **** 			 *  \note The USB clock must be running for this function to operate. If the stack is initialize
 141:LUFA-111009/LUFA/Drivers/USB/Core/AVR8/../AVR8/../AVR8/../AVR8/Device_AVR8.h **** 			 *        the \ref USB_OPT_MANUAL_PLL option enabled, the user must ensure that the PLL is runni
 142:LUFA-111009/LUFA/Drivers/USB/Core/AVR8/../AVR8/../AVR8/../AVR8/Device_AVR8.h **** 			 *        before attempting to call this function.
 143:LUFA-111009/LUFA/Drivers/USB/Core/AVR8/../AVR8/../AVR8/../AVR8/Device_AVR8.h **** 			 *
 144:LUFA-111009/LUFA/Drivers/USB/Core/AVR8/../AVR8/../AVR8/../AVR8/Device_AVR8.h **** 			 *  \see \ref Group_StdDescriptors for more information on the RMWAKEUP feature and device descr
 145:LUFA-111009/LUFA/Drivers/USB/Core/AVR8/../AVR8/../AVR8/../AVR8/Device_AVR8.h **** 			 */
 146:LUFA-111009/LUFA/Drivers/USB/Core/AVR8/../AVR8/../AVR8/../AVR8/Device_AVR8.h **** 			void USB_Device_SendRemoteWakeup(void);
 147:LUFA-111009/LUFA/Drivers/USB/Core/AVR8/../AVR8/../AVR8/../AVR8/Device_AVR8.h **** 
 148:LUFA-111009/LUFA/Drivers/USB/Core/AVR8/../AVR8/../AVR8/../AVR8/Device_AVR8.h **** 		/* Inline Functions: */
 149:LUFA-111009/LUFA/Drivers/USB/Core/AVR8/../AVR8/../AVR8/../AVR8/Device_AVR8.h **** 			/** Returns the current USB frame number, when in device mode. Every millisecond the USB bus is 
 150:LUFA-111009/LUFA/Drivers/USB/Core/AVR8/../AVR8/../AVR8/../AVR8/Device_AVR8.h **** 			 *  the frame number is incremented by one.
 151:LUFA-111009/LUFA/Drivers/USB/Core/AVR8/../AVR8/../AVR8/../AVR8/Device_AVR8.h **** 			 *
 152:LUFA-111009/LUFA/Drivers/USB/Core/AVR8/../AVR8/../AVR8/../AVR8/Device_AVR8.h **** 			 *  \return Current USB frame number from the USB controller.
 153:LUFA-111009/LUFA/Drivers/USB/Core/AVR8/../AVR8/../AVR8/../AVR8/Device_AVR8.h **** 			 */
 154:LUFA-111009/LUFA/Drivers/USB/Core/AVR8/../AVR8/../AVR8/../AVR8/Device_AVR8.h **** 			static inline uint16_t USB_Device_GetFrameNumber(void) ATTR_ALWAYS_INLINE ATTR_WARN_UNUSED_RESUL
 155:LUFA-111009/LUFA/Drivers/USB/Core/AVR8/../AVR8/../AVR8/../AVR8/Device_AVR8.h **** 			static inline uint16_t USB_Device_GetFrameNumber(void)
 156:LUFA-111009/LUFA/Drivers/USB/Core/AVR8/../AVR8/../AVR8/../AVR8/Device_AVR8.h **** 			{
 157:LUFA-111009/LUFA/Drivers/USB/Core/AVR8/../AVR8/../AVR8/../AVR8/Device_AVR8.h **** 				return UDFNUM;
 158:LUFA-111009/LUFA/Drivers/USB/Core/AVR8/../AVR8/../AVR8/../AVR8/Device_AVR8.h **** 			}
 159:LUFA-111009/LUFA/Drivers/USB/Core/AVR8/../AVR8/../AVR8/../AVR8/Device_AVR8.h **** 
 160:LUFA-111009/LUFA/Drivers/USB/Core/AVR8/../AVR8/../AVR8/../AVR8/Device_AVR8.h **** 			#if !defined(NO_SOF_EVENTS)
 161:LUFA-111009/LUFA/Drivers/USB/Core/AVR8/../AVR8/../AVR8/../AVR8/Device_AVR8.h **** 				/** Enables the device mode Start Of Frame events. When enabled, this causes the
 162:LUFA-111009/LUFA/Drivers/USB/Core/AVR8/../AVR8/../AVR8/../AVR8/Device_AVR8.h **** 				 *  \ref EVENT_USB_Device_StartOfFrame() event to fire once per millisecond, synchronized to th
 163:LUFA-111009/LUFA/Drivers/USB/Core/AVR8/../AVR8/../AVR8/../AVR8/Device_AVR8.h **** 				 *  at the start of each USB frame when enumerated in device mode.
 164:LUFA-111009/LUFA/Drivers/USB/Core/AVR8/../AVR8/../AVR8/../AVR8/Device_AVR8.h **** 				 *
 165:LUFA-111009/LUFA/Drivers/USB/Core/AVR8/../AVR8/../AVR8/../AVR8/Device_AVR8.h **** 				 *  \note Not available when the \c NO_SOF_EVENTS compile time token is defined.
 166:LUFA-111009/LUFA/Drivers/USB/Core/AVR8/../AVR8/../AVR8/../AVR8/Device_AVR8.h **** 				 */
 167:LUFA-111009/LUFA/Drivers/USB/Core/AVR8/../AVR8/../AVR8/../AVR8/Device_AVR8.h **** 				static inline void USB_Device_EnableSOFEvents(void) ATTR_ALWAYS_INLINE;
 168:LUFA-111009/LUFA/Drivers/USB/Core/AVR8/../AVR8/../AVR8/../AVR8/Device_AVR8.h **** 				static inline void USB_Device_EnableSOFEvents(void)
 169:LUFA-111009/LUFA/Drivers/USB/Core/AVR8/../AVR8/../AVR8/../AVR8/Device_AVR8.h **** 				{
 170:LUFA-111009/LUFA/Drivers/USB/Core/AVR8/../AVR8/../AVR8/../AVR8/Device_AVR8.h **** 					USB_INT_Enable(USB_INT_SOFI);
 171:LUFA-111009/LUFA/Drivers/USB/Core/AVR8/../AVR8/../AVR8/../AVR8/Device_AVR8.h **** 				}
 172:LUFA-111009/LUFA/Drivers/USB/Core/AVR8/../AVR8/../AVR8/../AVR8/Device_AVR8.h **** 
 173:LUFA-111009/LUFA/Drivers/USB/Core/AVR8/../AVR8/../AVR8/../AVR8/Device_AVR8.h **** 				/** Disables the device mode Start Of Frame events. When disabled, this stops the firing of the
 174:LUFA-111009/LUFA/Drivers/USB/Core/AVR8/../AVR8/../AVR8/../AVR8/Device_AVR8.h **** 				 *  \ref EVENT_USB_Device_StartOfFrame() event when enumerated in device mode.
 175:LUFA-111009/LUFA/Drivers/USB/Core/AVR8/../AVR8/../AVR8/../AVR8/Device_AVR8.h **** 				 *
 176:LUFA-111009/LUFA/Drivers/USB/Core/AVR8/../AVR8/../AVR8/../AVR8/Device_AVR8.h **** 				 *  \note Not available when the \c NO_SOF_EVENTS compile time token is defined.
 177:LUFA-111009/LUFA/Drivers/USB/Core/AVR8/../AVR8/../AVR8/../AVR8/Device_AVR8.h **** 				 */
 178:LUFA-111009/LUFA/Drivers/USB/Core/AVR8/../AVR8/../AVR8/../AVR8/Device_AVR8.h **** 				static inline void USB_Device_DisableSOFEvents(void) ATTR_ALWAYS_INLINE;
 179:LUFA-111009/LUFA/Drivers/USB/Core/AVR8/../AVR8/../AVR8/../AVR8/Device_AVR8.h **** 				static inline void USB_Device_DisableSOFEvents(void)
 180:LUFA-111009/LUFA/Drivers/USB/Core/AVR8/../AVR8/../AVR8/../AVR8/Device_AVR8.h **** 				{
 181:LUFA-111009/LUFA/Drivers/USB/Core/AVR8/../AVR8/../AVR8/../AVR8/Device_AVR8.h **** 					USB_INT_Disable(USB_INT_SOFI);
 182:LUFA-111009/LUFA/Drivers/USB/Core/AVR8/../AVR8/../AVR8/../AVR8/Device_AVR8.h **** 				}
 183:LUFA-111009/LUFA/Drivers/USB/Core/AVR8/../AVR8/../AVR8/../AVR8/Device_AVR8.h **** 			#endif
 184:LUFA-111009/LUFA/Drivers/USB/Core/AVR8/../AVR8/../AVR8/../AVR8/Device_AVR8.h **** 
 185:LUFA-111009/LUFA/Drivers/USB/Core/AVR8/../AVR8/../AVR8/../AVR8/Device_AVR8.h **** 	/* Private Interface - For use in library only: */
 186:LUFA-111009/LUFA/Drivers/USB/Core/AVR8/../AVR8/../AVR8/../AVR8/Device_AVR8.h **** 	#if !defined(__DOXYGEN__)
 187:LUFA-111009/LUFA/Drivers/USB/Core/AVR8/../AVR8/../AVR8/../AVR8/Device_AVR8.h **** 		/* Inline Functions: */
 188:LUFA-111009/LUFA/Drivers/USB/Core/AVR8/../AVR8/../AVR8/../AVR8/Device_AVR8.h **** 			#if defined(USB_DEVICE_OPT_LOWSPEED)
 189:LUFA-111009/LUFA/Drivers/USB/Core/AVR8/../AVR8/../AVR8/../AVR8/Device_AVR8.h **** 			static inline void USB_Device_SetLowSpeed(void) ATTR_ALWAYS_INLINE;
 190:LUFA-111009/LUFA/Drivers/USB/Core/AVR8/../AVR8/../AVR8/../AVR8/Device_AVR8.h **** 			static inline void USB_Device_SetLowSpeed(void)
 191:LUFA-111009/LUFA/Drivers/USB/Core/AVR8/../AVR8/../AVR8/../AVR8/Device_AVR8.h **** 			{
 192:LUFA-111009/LUFA/Drivers/USB/Core/AVR8/../AVR8/../AVR8/../AVR8/Device_AVR8.h **** 				UDCON |=  (1 << LSM);
 193:LUFA-111009/LUFA/Drivers/USB/Core/AVR8/../AVR8/../AVR8/../AVR8/Device_AVR8.h **** 			}
 194:LUFA-111009/LUFA/Drivers/USB/Core/AVR8/../AVR8/../AVR8/../AVR8/Device_AVR8.h **** 
 195:LUFA-111009/LUFA/Drivers/USB/Core/AVR8/../AVR8/../AVR8/../AVR8/Device_AVR8.h **** 			static inline void USB_Device_SetFullSpeed(void) ATTR_ALWAYS_INLINE;
 196:LUFA-111009/LUFA/Drivers/USB/Core/AVR8/../AVR8/../AVR8/../AVR8/Device_AVR8.h **** 			static inline void USB_Device_SetFullSpeed(void)
 197:LUFA-111009/LUFA/Drivers/USB/Core/AVR8/../AVR8/../AVR8/../AVR8/Device_AVR8.h **** 			{
 198:LUFA-111009/LUFA/Drivers/USB/Core/AVR8/../AVR8/../AVR8/../AVR8/Device_AVR8.h **** 				UDCON &= ~(1 << LSM);
 199:LUFA-111009/LUFA/Drivers/USB/Core/AVR8/../AVR8/../AVR8/../AVR8/Device_AVR8.h **** 			}
 200:LUFA-111009/LUFA/Drivers/USB/Core/AVR8/../AVR8/../AVR8/../AVR8/Device_AVR8.h **** 			#endif
 201:LUFA-111009/LUFA/Drivers/USB/Core/AVR8/../AVR8/../AVR8/../AVR8/Device_AVR8.h **** 
 202:LUFA-111009/LUFA/Drivers/USB/Core/AVR8/../AVR8/../AVR8/../AVR8/Device_AVR8.h **** 			static inline void USB_Device_SetDeviceAddress(const uint8_t Address) ATTR_ALWAYS_INLINE;
 203:LUFA-111009/LUFA/Drivers/USB/Core/AVR8/../AVR8/../AVR8/../AVR8/Device_AVR8.h **** 			static inline void USB_Device_SetDeviceAddress(const uint8_t Address)
 204:LUFA-111009/LUFA/Drivers/USB/Core/AVR8/../AVR8/../AVR8/../AVR8/Device_AVR8.h **** 			{
 205:LUFA-111009/LUFA/Drivers/USB/Core/AVR8/../AVR8/../AVR8/../AVR8/Device_AVR8.h **** 				uint8_t Temp = (UDADDR & (1 << ADDEN)) | (Address & 0x7F);
 206:LUFA-111009/LUFA/Drivers/USB/Core/AVR8/../AVR8/../AVR8/../AVR8/Device_AVR8.h **** 
 207:LUFA-111009/LUFA/Drivers/USB/Core/AVR8/../AVR8/../AVR8/../AVR8/Device_AVR8.h **** 				UDADDR = Temp;
 208:LUFA-111009/LUFA/Drivers/USB/Core/AVR8/../AVR8/../AVR8/../AVR8/Device_AVR8.h **** 				UDADDR = Temp | (1 << ADDEN);
 209:LUFA-111009/LUFA/Drivers/USB/Core/AVR8/../AVR8/../AVR8/../AVR8/Device_AVR8.h **** 			}
 210:LUFA-111009/LUFA/Drivers/USB/Core/AVR8/../AVR8/../AVR8/../AVR8/Device_AVR8.h **** 
 211:LUFA-111009/LUFA/Drivers/USB/Core/AVR8/../AVR8/../AVR8/../AVR8/Device_AVR8.h **** 			static inline bool USB_Device_IsAddressSet(void) ATTR_ALWAYS_INLINE ATTR_WARN_UNUSED_RESULT;
 212:LUFA-111009/LUFA/Drivers/USB/Core/AVR8/../AVR8/../AVR8/../AVR8/Device_AVR8.h **** 			static inline bool USB_Device_IsAddressSet(void)
 213:LUFA-111009/LUFA/Drivers/USB/Core/AVR8/../AVR8/../AVR8/../AVR8/Device_AVR8.h **** 			{
 214:LUFA-111009/LUFA/Drivers/USB/Core/AVR8/../AVR8/../AVR8/../AVR8/Device_AVR8.h **** 				return (UDADDR & (1 << ADDEN));
 333               		.loc 4 214 0
 334 00ea 8091 E300 		lds r24,227
 335               	.LBE103:
 336               	.LBE102:
 148:LUFA-111009/LUFA/Drivers/USB/Core/AVR8/USBInterrupt_AVR8.c **** 		  USB_DeviceState = DEVICE_STATE_Configured;
 149:LUFA-111009/LUFA/Drivers/USB/Core/AVR8/USBInterrupt_AVR8.c **** 		else
 150:LUFA-111009/LUFA/Drivers/USB/Core/AVR8/USBInterrupt_AVR8.c **** 		  USB_DeviceState = (USB_Device_IsAddressSet()) ? DEVICE_STATE_Configured : DEVICE_STATE_Powered;
 337               		.loc 1 150 0
 338 00ee 87FF      		sbrs r24,7
 339 00f0 00C0      		rjmp .L14
 340               	.L47:
 341 00f2 84E0      		ldi r24,lo8(4)
 342 00f4 00C0      		rjmp .L12
 343               	.L14:
 344 00f6 81E0      		ldi r24,lo8(1)
 345               	.L12:
 346               		.loc 1 150 0 is_stmt 0 discriminator 3
 347 00f8 8EBB      		out 0x1e,r24
 151:LUFA-111009/LUFA/Drivers/USB/Core/AVR8/USBInterrupt_AVR8.c **** 
 152:LUFA-111009/LUFA/Drivers/USB/Core/AVR8/USBInterrupt_AVR8.c **** 		#if defined(USB_SERIES_2_AVR) && !defined(NO_LIMITED_CONTROLLER_CONNECT)
 153:LUFA-111009/LUFA/Drivers/USB/Core/AVR8/USBInterrupt_AVR8.c **** 		EVENT_USB_Device_Connect();
 154:LUFA-111009/LUFA/Drivers/USB/Core/AVR8/USBInterrupt_AVR8.c **** 		#else
 155:LUFA-111009/LUFA/Drivers/USB/Core/AVR8/USBInterrupt_AVR8.c **** 		EVENT_USB_Device_WakeUp();
 348               		.loc 1 155 0 is_stmt 1 discriminator 3
 349 00fa 0E94 0000 		call EVENT_USB_Device_WakeUp
 350               	.LVL13:
 351               	.L8:
 352               	.LBB104:
 353               	.LBB105:
 325:LUFA-111009/LUFA/Drivers/USB/Core/AVR8/../AVR8/USBInterrupt_AVR8.h **** 					case USB_INT_EORSTI:
 326:LUFA-111009/LUFA/Drivers/USB/Core/AVR8/../AVR8/USBInterrupt_AVR8.h **** 						return (UDINT  & (1 << EORSTI));
 354               		.loc 2 326 0
 355 00fe 8091 E100 		lds r24,225
 356               	.LBE105:
 357               	.LBE104:
 156:LUFA-111009/LUFA/Drivers/USB/Core/AVR8/USBInterrupt_AVR8.c **** 		#endif
 157:LUFA-111009/LUFA/Drivers/USB/Core/AVR8/USBInterrupt_AVR8.c **** 	}
 158:LUFA-111009/LUFA/Drivers/USB/Core/AVR8/USBInterrupt_AVR8.c **** 
 159:LUFA-111009/LUFA/Drivers/USB/Core/AVR8/USBInterrupt_AVR8.c **** 	if (USB_INT_HasOccurred(USB_INT_EORSTI) && USB_INT_IsEnabled(USB_INT_EORSTI))
 358               		.loc 1 159 0
 359 0102 83FF      		sbrs r24,3
 360 0104 00C0      		rjmp .L3
 361               	.LVL14:
 362               	.LBB106:
 363               	.LBB107:
 280:LUFA-111009/LUFA/Drivers/USB/Core/AVR8/../AVR8/USBInterrupt_AVR8.h **** 						return (UDIEN  & (1 << EORSTE));
 364               		.loc 2 280 0
 365 0106 8091 E200 		lds r24,226
 366               	.LBE107:
 367               	.LBE106:
 368               		.loc 1 159 0
 369 010a 83FF      		sbrs r24,3
 370 010c 00C0      		rjmp .L3
 371               	.LVL15:
 372               	.LBB108:
 373               	.LBB109:
 226:LUFA-111009/LUFA/Drivers/USB/Core/AVR8/../AVR8/USBInterrupt_AVR8.h **** 						UDINT  &= ~(1 << EORSTI);
 374               		.loc 2 226 0
 375 010e 8091 E100 		lds r24,225
 376 0112 877F      		andi r24,lo8(-9)
 377 0114 8093 E100 		sts 225,r24
 378               	.LBE109:
 379               	.LBE108:
 160:LUFA-111009/LUFA/Drivers/USB/Core/AVR8/USBInterrupt_AVR8.c **** 	{
 161:LUFA-111009/LUFA/Drivers/USB/Core/AVR8/USBInterrupt_AVR8.c **** 		USB_INT_Clear(USB_INT_EORSTI);
 162:LUFA-111009/LUFA/Drivers/USB/Core/AVR8/USBInterrupt_AVR8.c **** 
 163:LUFA-111009/LUFA/Drivers/USB/Core/AVR8/USBInterrupt_AVR8.c **** 		USB_DeviceState                = DEVICE_STATE_Default;
 380               		.loc 1 163 0
 381 0118 82E0      		ldi r24,lo8(2)
 382 011a 8EBB      		out 0x1e,r24
 164:LUFA-111009/LUFA/Drivers/USB/Core/AVR8/USBInterrupt_AVR8.c **** 		USB_Device_ConfigurationNumber = 0;
 383               		.loc 1 164 0
 384 011c 1092 0000 		sts USB_Device_ConfigurationNumber,__zero_reg__
 385               	.LVL16:
 386               	.LBB110:
 387               	.LBB111:
 223:LUFA-111009/LUFA/Drivers/USB/Core/AVR8/../AVR8/USBInterrupt_AVR8.h **** 						UDINT  &= ~(1 << SUSPI);
 388               		.loc 2 223 0
 389 0120 8091 E100 		lds r24,225
 390 0124 8E7F      		andi r24,lo8(-2)
 391 0126 8093 E100 		sts 225,r24
 392               	.LVL17:
 393               	.LBE111:
 394               	.LBE110:
 395               	.LBB112:
 396               	.LBB113:
 165:LUFA-111009/LUFA/Drivers/USB/Core/AVR8/../AVR8/USBInterrupt_AVR8.h **** 						UDIEN  &= ~(1 << SUSPE);
 397               		.loc 2 165 0
 398 012a 8091 E200 		lds r24,226
 399 012e 8E7F      		andi r24,lo8(-2)
 400 0130 8093 E200 		sts 226,r24
 401               	.LVL18:
 402               	.LBE113:
 403               	.LBE112:
 404               	.LBB114:
 405               	.LBB115:
 104:LUFA-111009/LUFA/Drivers/USB/Core/AVR8/../AVR8/USBInterrupt_AVR8.h **** 						UDIEN  |= (1 << WAKEUPE);
 406               		.loc 2 104 0
 407 0134 8091 E200 		lds r24,226
 408 0138 8061      		ori r24,lo8(16)
 409 013a 8093 E200 		sts 226,r24
 410               	.LVL19:
 411               	.LBE115:
 412               	.LBE114:
 413               	.LBB116:
 414               	.LBB117:
 415               		.file 5 "LUFA-111009/LUFA/Drivers/USB/Core/AVR8/../AVR8/../AVR8/../AVR8/Endpoint_AVR8.h"
   1:LUFA-111009/LUFA/Drivers/USB/Core/AVR8/../AVR8/../AVR8/../AVR8/Endpoint_AVR8.h **** /*
   2:LUFA-111009/LUFA/Drivers/USB/Core/AVR8/../AVR8/../AVR8/../AVR8/Endpoint_AVR8.h ****              LUFA Library
   3:LUFA-111009/LUFA/Drivers/USB/Core/AVR8/../AVR8/../AVR8/../AVR8/Endpoint_AVR8.h ****      Copyright (C) Dean Camera, 2011.
   4:LUFA-111009/LUFA/Drivers/USB/Core/AVR8/../AVR8/../AVR8/../AVR8/Endpoint_AVR8.h **** 
   5:LUFA-111009/LUFA/Drivers/USB/Core/AVR8/../AVR8/../AVR8/../AVR8/Endpoint_AVR8.h ****   dean [at] fourwalledcubicle [dot] com
   6:LUFA-111009/LUFA/Drivers/USB/Core/AVR8/../AVR8/../AVR8/../AVR8/Endpoint_AVR8.h ****            www.lufa-lib.org
   7:LUFA-111009/LUFA/Drivers/USB/Core/AVR8/../AVR8/../AVR8/../AVR8/Endpoint_AVR8.h **** */
   8:LUFA-111009/LUFA/Drivers/USB/Core/AVR8/../AVR8/../AVR8/../AVR8/Endpoint_AVR8.h **** 
   9:LUFA-111009/LUFA/Drivers/USB/Core/AVR8/../AVR8/../AVR8/../AVR8/Endpoint_AVR8.h **** /*
  10:LUFA-111009/LUFA/Drivers/USB/Core/AVR8/../AVR8/../AVR8/../AVR8/Endpoint_AVR8.h ****   Copyright 2011  Dean Camera (dean [at] fourwalledcubicle [dot] com)
  11:LUFA-111009/LUFA/Drivers/USB/Core/AVR8/../AVR8/../AVR8/../AVR8/Endpoint_AVR8.h **** 
  12:LUFA-111009/LUFA/Drivers/USB/Core/AVR8/../AVR8/../AVR8/../AVR8/Endpoint_AVR8.h ****   Permission to use, copy, modify, distribute, and sell this
  13:LUFA-111009/LUFA/Drivers/USB/Core/AVR8/../AVR8/../AVR8/../AVR8/Endpoint_AVR8.h ****   software and its documentation for any purpose is hereby granted
  14:LUFA-111009/LUFA/Drivers/USB/Core/AVR8/../AVR8/../AVR8/../AVR8/Endpoint_AVR8.h ****   without fee, provided that the above copyright notice appear in
  15:LUFA-111009/LUFA/Drivers/USB/Core/AVR8/../AVR8/../AVR8/../AVR8/Endpoint_AVR8.h ****   all copies and that both that the copyright notice and this
  16:LUFA-111009/LUFA/Drivers/USB/Core/AVR8/../AVR8/../AVR8/../AVR8/Endpoint_AVR8.h ****   permission notice and warranty disclaimer appear in supporting
  17:LUFA-111009/LUFA/Drivers/USB/Core/AVR8/../AVR8/../AVR8/../AVR8/Endpoint_AVR8.h ****   documentation, and that the name of the author not be used in
  18:LUFA-111009/LUFA/Drivers/USB/Core/AVR8/../AVR8/../AVR8/../AVR8/Endpoint_AVR8.h ****   advertising or publicity pertaining to distribution of the
  19:LUFA-111009/LUFA/Drivers/USB/Core/AVR8/../AVR8/../AVR8/../AVR8/Endpoint_AVR8.h ****   software without specific, written prior permission.
  20:LUFA-111009/LUFA/Drivers/USB/Core/AVR8/../AVR8/../AVR8/../AVR8/Endpoint_AVR8.h **** 
  21:LUFA-111009/LUFA/Drivers/USB/Core/AVR8/../AVR8/../AVR8/../AVR8/Endpoint_AVR8.h ****   The author disclaim all warranties with regard to this
  22:LUFA-111009/LUFA/Drivers/USB/Core/AVR8/../AVR8/../AVR8/../AVR8/Endpoint_AVR8.h ****   software, including all implied warranties of merchantability
  23:LUFA-111009/LUFA/Drivers/USB/Core/AVR8/../AVR8/../AVR8/../AVR8/Endpoint_AVR8.h ****   and fitness.  In no event shall the author be liable for any
  24:LUFA-111009/LUFA/Drivers/USB/Core/AVR8/../AVR8/../AVR8/../AVR8/Endpoint_AVR8.h ****   special, indirect or consequential damages or any damages
  25:LUFA-111009/LUFA/Drivers/USB/Core/AVR8/../AVR8/../AVR8/../AVR8/Endpoint_AVR8.h ****   whatsoever resulting from loss of use, data or profits, whether
  26:LUFA-111009/LUFA/Drivers/USB/Core/AVR8/../AVR8/../AVR8/../AVR8/Endpoint_AVR8.h ****   in an action of contract, negligence or other tortious action,
  27:LUFA-111009/LUFA/Drivers/USB/Core/AVR8/../AVR8/../AVR8/../AVR8/Endpoint_AVR8.h ****   arising out of or in connection with the use or performance of
  28:LUFA-111009/LUFA/Drivers/USB/Core/AVR8/../AVR8/../AVR8/../AVR8/Endpoint_AVR8.h ****   this software.
  29:LUFA-111009/LUFA/Drivers/USB/Core/AVR8/../AVR8/../AVR8/../AVR8/Endpoint_AVR8.h **** */
  30:LUFA-111009/LUFA/Drivers/USB/Core/AVR8/../AVR8/../AVR8/../AVR8/Endpoint_AVR8.h **** 
  31:LUFA-111009/LUFA/Drivers/USB/Core/AVR8/../AVR8/../AVR8/../AVR8/Endpoint_AVR8.h **** /** \file
  32:LUFA-111009/LUFA/Drivers/USB/Core/AVR8/../AVR8/../AVR8/../AVR8/Endpoint_AVR8.h ****  *  \brief USB Endpoint definitions for the AVR8 microcontrollers.
  33:LUFA-111009/LUFA/Drivers/USB/Core/AVR8/../AVR8/../AVR8/../AVR8/Endpoint_AVR8.h ****  *  \copydetails Group_EndpointManagement_AVR8
  34:LUFA-111009/LUFA/Drivers/USB/Core/AVR8/../AVR8/../AVR8/../AVR8/Endpoint_AVR8.h ****  *
  35:LUFA-111009/LUFA/Drivers/USB/Core/AVR8/../AVR8/../AVR8/../AVR8/Endpoint_AVR8.h ****  *  \note This file should not be included directly. It is automatically included as needed by the 
  36:LUFA-111009/LUFA/Drivers/USB/Core/AVR8/../AVR8/../AVR8/../AVR8/Endpoint_AVR8.h ****  *        dispatch header located in LUFA/Drivers/USB/USB.h.
  37:LUFA-111009/LUFA/Drivers/USB/Core/AVR8/../AVR8/../AVR8/../AVR8/Endpoint_AVR8.h ****  */
  38:LUFA-111009/LUFA/Drivers/USB/Core/AVR8/../AVR8/../AVR8/../AVR8/Endpoint_AVR8.h **** 
  39:LUFA-111009/LUFA/Drivers/USB/Core/AVR8/../AVR8/../AVR8/../AVR8/Endpoint_AVR8.h **** /** \ingroup Group_EndpointRW
  40:LUFA-111009/LUFA/Drivers/USB/Core/AVR8/../AVR8/../AVR8/../AVR8/Endpoint_AVR8.h ****  *  \defgroup Group_EndpointRW_AVR8 Endpoint Data Reading and Writing (AVR8)
  41:LUFA-111009/LUFA/Drivers/USB/Core/AVR8/../AVR8/../AVR8/../AVR8/Endpoint_AVR8.h ****  *  \brief Endpoint data read/write definitions for the Atmel AVR8 architecture.
  42:LUFA-111009/LUFA/Drivers/USB/Core/AVR8/../AVR8/../AVR8/../AVR8/Endpoint_AVR8.h ****  *
  43:LUFA-111009/LUFA/Drivers/USB/Core/AVR8/../AVR8/../AVR8/../AVR8/Endpoint_AVR8.h ****  *  Functions, macros, variables, enums and types related to data reading and writing from and to e
  44:LUFA-111009/LUFA/Drivers/USB/Core/AVR8/../AVR8/../AVR8/../AVR8/Endpoint_AVR8.h ****  */
  45:LUFA-111009/LUFA/Drivers/USB/Core/AVR8/../AVR8/../AVR8/../AVR8/Endpoint_AVR8.h **** 
  46:LUFA-111009/LUFA/Drivers/USB/Core/AVR8/../AVR8/../AVR8/../AVR8/Endpoint_AVR8.h **** /** \ingroup Group_EndpointPrimitiveRW
  47:LUFA-111009/LUFA/Drivers/USB/Core/AVR8/../AVR8/../AVR8/../AVR8/Endpoint_AVR8.h ****  *  \defgroup Group_EndpointPrimitiveRW_AVR8 Read/Write of Primitive Data Types (AVR8)
  48:LUFA-111009/LUFA/Drivers/USB/Core/AVR8/../AVR8/../AVR8/../AVR8/Endpoint_AVR8.h ****  *  \brief Endpoint primitive read/write definitions for the Atmel AVR8 architecture.
  49:LUFA-111009/LUFA/Drivers/USB/Core/AVR8/../AVR8/../AVR8/../AVR8/Endpoint_AVR8.h ****  *
  50:LUFA-111009/LUFA/Drivers/USB/Core/AVR8/../AVR8/../AVR8/../AVR8/Endpoint_AVR8.h ****  *  Functions, macros, variables, enums and types related to data reading and writing of primitive 
  51:LUFA-111009/LUFA/Drivers/USB/Core/AVR8/../AVR8/../AVR8/../AVR8/Endpoint_AVR8.h ****  *  from and to endpoints.
  52:LUFA-111009/LUFA/Drivers/USB/Core/AVR8/../AVR8/../AVR8/../AVR8/Endpoint_AVR8.h ****  */
  53:LUFA-111009/LUFA/Drivers/USB/Core/AVR8/../AVR8/../AVR8/../AVR8/Endpoint_AVR8.h **** 
  54:LUFA-111009/LUFA/Drivers/USB/Core/AVR8/../AVR8/../AVR8/../AVR8/Endpoint_AVR8.h **** /** \ingroup Group_EndpointPacketManagement
  55:LUFA-111009/LUFA/Drivers/USB/Core/AVR8/../AVR8/../AVR8/../AVR8/Endpoint_AVR8.h ****  *  \defgroup Group_EndpointPacketManagement_AVR8 Endpoint Packet Management (AVR8)
  56:LUFA-111009/LUFA/Drivers/USB/Core/AVR8/../AVR8/../AVR8/../AVR8/Endpoint_AVR8.h ****  *  \brief Endpoint packet management definitions for the Atmel AVR8 architecture.
  57:LUFA-111009/LUFA/Drivers/USB/Core/AVR8/../AVR8/../AVR8/../AVR8/Endpoint_AVR8.h ****  *
  58:LUFA-111009/LUFA/Drivers/USB/Core/AVR8/../AVR8/../AVR8/../AVR8/Endpoint_AVR8.h ****  *  Functions, macros, variables, enums and types related to packet management of endpoints.
  59:LUFA-111009/LUFA/Drivers/USB/Core/AVR8/../AVR8/../AVR8/../AVR8/Endpoint_AVR8.h ****  */
  60:LUFA-111009/LUFA/Drivers/USB/Core/AVR8/../AVR8/../AVR8/../AVR8/Endpoint_AVR8.h **** 
  61:LUFA-111009/LUFA/Drivers/USB/Core/AVR8/../AVR8/../AVR8/../AVR8/Endpoint_AVR8.h **** /** \ingroup Group_EndpointManagement
  62:LUFA-111009/LUFA/Drivers/USB/Core/AVR8/../AVR8/../AVR8/../AVR8/Endpoint_AVR8.h ****  *  \defgroup Group_EndpointManagement_AVR8 Endpoint Management (AVR8)
  63:LUFA-111009/LUFA/Drivers/USB/Core/AVR8/../AVR8/../AVR8/../AVR8/Endpoint_AVR8.h ****  *  \brief Endpoint management definitions for the Atmel AVR8 architecture.
  64:LUFA-111009/LUFA/Drivers/USB/Core/AVR8/../AVR8/../AVR8/../AVR8/Endpoint_AVR8.h ****  *
  65:LUFA-111009/LUFA/Drivers/USB/Core/AVR8/../AVR8/../AVR8/../AVR8/Endpoint_AVR8.h ****  *  Functions, macros and enums related to endpoint management when in USB Device mode. This
  66:LUFA-111009/LUFA/Drivers/USB/Core/AVR8/../AVR8/../AVR8/../AVR8/Endpoint_AVR8.h ****  *  module contains the endpoint management macros, as well as endpoint interrupt and data
  67:LUFA-111009/LUFA/Drivers/USB/Core/AVR8/../AVR8/../AVR8/../AVR8/Endpoint_AVR8.h ****  *  send/receive functions for various data types.
  68:LUFA-111009/LUFA/Drivers/USB/Core/AVR8/../AVR8/../AVR8/../AVR8/Endpoint_AVR8.h ****  *
  69:LUFA-111009/LUFA/Drivers/USB/Core/AVR8/../AVR8/../AVR8/../AVR8/Endpoint_AVR8.h ****  *  @{
  70:LUFA-111009/LUFA/Drivers/USB/Core/AVR8/../AVR8/../AVR8/../AVR8/Endpoint_AVR8.h ****  */
  71:LUFA-111009/LUFA/Drivers/USB/Core/AVR8/../AVR8/../AVR8/../AVR8/Endpoint_AVR8.h **** 
  72:LUFA-111009/LUFA/Drivers/USB/Core/AVR8/../AVR8/../AVR8/../AVR8/Endpoint_AVR8.h **** #ifndef __ENDPOINT_AVR8_H__
  73:LUFA-111009/LUFA/Drivers/USB/Core/AVR8/../AVR8/../AVR8/../AVR8/Endpoint_AVR8.h **** #define __ENDPOINT_AVR8_H__
  74:LUFA-111009/LUFA/Drivers/USB/Core/AVR8/../AVR8/../AVR8/../AVR8/Endpoint_AVR8.h **** 
  75:LUFA-111009/LUFA/Drivers/USB/Core/AVR8/../AVR8/../AVR8/../AVR8/Endpoint_AVR8.h **** 	/* Includes: */
  76:LUFA-111009/LUFA/Drivers/USB/Core/AVR8/../AVR8/../AVR8/../AVR8/Endpoint_AVR8.h **** 		#include "../../../../Common/Common.h"
  77:LUFA-111009/LUFA/Drivers/USB/Core/AVR8/../AVR8/../AVR8/../AVR8/Endpoint_AVR8.h **** 		#include "../USBTask.h"
  78:LUFA-111009/LUFA/Drivers/USB/Core/AVR8/../AVR8/../AVR8/../AVR8/Endpoint_AVR8.h **** 		#include "../USBInterrupt.h"
  79:LUFA-111009/LUFA/Drivers/USB/Core/AVR8/../AVR8/../AVR8/../AVR8/Endpoint_AVR8.h **** 
  80:LUFA-111009/LUFA/Drivers/USB/Core/AVR8/../AVR8/../AVR8/../AVR8/Endpoint_AVR8.h **** 	/* Enable C linkage for C++ Compilers: */
  81:LUFA-111009/LUFA/Drivers/USB/Core/AVR8/../AVR8/../AVR8/../AVR8/Endpoint_AVR8.h **** 		#if defined(__cplusplus)
  82:LUFA-111009/LUFA/Drivers/USB/Core/AVR8/../AVR8/../AVR8/../AVR8/Endpoint_AVR8.h **** 			extern "C" {
  83:LUFA-111009/LUFA/Drivers/USB/Core/AVR8/../AVR8/../AVR8/../AVR8/Endpoint_AVR8.h **** 		#endif
  84:LUFA-111009/LUFA/Drivers/USB/Core/AVR8/../AVR8/../AVR8/../AVR8/Endpoint_AVR8.h **** 
  85:LUFA-111009/LUFA/Drivers/USB/Core/AVR8/../AVR8/../AVR8/../AVR8/Endpoint_AVR8.h **** 	/* Preprocessor Checks: */
  86:LUFA-111009/LUFA/Drivers/USB/Core/AVR8/../AVR8/../AVR8/../AVR8/Endpoint_AVR8.h **** 		#if !defined(__INCLUDE_FROM_USB_DRIVER)
  87:LUFA-111009/LUFA/Drivers/USB/Core/AVR8/../AVR8/../AVR8/../AVR8/Endpoint_AVR8.h **** 			#error Do not include this file directly. Include LUFA/Drivers/USB/USB.h instead.
  88:LUFA-111009/LUFA/Drivers/USB/Core/AVR8/../AVR8/../AVR8/../AVR8/Endpoint_AVR8.h **** 		#endif
  89:LUFA-111009/LUFA/Drivers/USB/Core/AVR8/../AVR8/../AVR8/../AVR8/Endpoint_AVR8.h **** 
  90:LUFA-111009/LUFA/Drivers/USB/Core/AVR8/../AVR8/../AVR8/../AVR8/Endpoint_AVR8.h **** 	/* Private Interface - For use in library only: */
  91:LUFA-111009/LUFA/Drivers/USB/Core/AVR8/../AVR8/../AVR8/../AVR8/Endpoint_AVR8.h **** 	#if !defined(__DOXYGEN__)
  92:LUFA-111009/LUFA/Drivers/USB/Core/AVR8/../AVR8/../AVR8/../AVR8/Endpoint_AVR8.h **** 		/* Macros: */
  93:LUFA-111009/LUFA/Drivers/USB/Core/AVR8/../AVR8/../AVR8/../AVR8/Endpoint_AVR8.h **** 			#define _ENDPOINT_GET_MAXSIZE(EPIndex)         _ENDPOINT_GET_MAXSIZE2(ENDPOINT_DETAILS_EP ## EPI
  94:LUFA-111009/LUFA/Drivers/USB/Core/AVR8/../AVR8/../AVR8/../AVR8/Endpoint_AVR8.h **** 			#define _ENDPOINT_GET_MAXSIZE2(EPDetails)      _ENDPOINT_GET_MAXSIZE3(EPDetails)
  95:LUFA-111009/LUFA/Drivers/USB/Core/AVR8/../AVR8/../AVR8/../AVR8/Endpoint_AVR8.h **** 			#define _ENDPOINT_GET_MAXSIZE3(MaxSize, Banks) (MaxSize)
  96:LUFA-111009/LUFA/Drivers/USB/Core/AVR8/../AVR8/../AVR8/../AVR8/Endpoint_AVR8.h **** 
  97:LUFA-111009/LUFA/Drivers/USB/Core/AVR8/../AVR8/../AVR8/../AVR8/Endpoint_AVR8.h **** 			#define _ENDPOINT_GET_BANKS(EPIndex)           _ENDPOINT_GET_BANKS2(ENDPOINT_DETAILS_EP ## EPInd
  98:LUFA-111009/LUFA/Drivers/USB/Core/AVR8/../AVR8/../AVR8/../AVR8/Endpoint_AVR8.h **** 			#define _ENDPOINT_GET_BANKS2(EPDetails)        _ENDPOINT_GET_BANKS3(EPDetails)
  99:LUFA-111009/LUFA/Drivers/USB/Core/AVR8/../AVR8/../AVR8/../AVR8/Endpoint_AVR8.h **** 			#define _ENDPOINT_GET_BANKS3(MaxSize, Banks)   (Banks)
 100:LUFA-111009/LUFA/Drivers/USB/Core/AVR8/../AVR8/../AVR8/../AVR8/Endpoint_AVR8.h **** 
 101:LUFA-111009/LUFA/Drivers/USB/Core/AVR8/../AVR8/../AVR8/../AVR8/Endpoint_AVR8.h **** 			#if defined(USB_SERIES_4_AVR) || defined(USB_SERIES_6_AVR) || defined(USB_SERIES_7_AVR)
 102:LUFA-111009/LUFA/Drivers/USB/Core/AVR8/../AVR8/../AVR8/../AVR8/Endpoint_AVR8.h **** 				#define ENDPOINT_DETAILS_MAXEP             7
 103:LUFA-111009/LUFA/Drivers/USB/Core/AVR8/../AVR8/../AVR8/../AVR8/Endpoint_AVR8.h **** 
 104:LUFA-111009/LUFA/Drivers/USB/Core/AVR8/../AVR8/../AVR8/../AVR8/Endpoint_AVR8.h **** 				#define ENDPOINT_DETAILS_EP0               64,  1
 105:LUFA-111009/LUFA/Drivers/USB/Core/AVR8/../AVR8/../AVR8/../AVR8/Endpoint_AVR8.h **** 				#define ENDPOINT_DETAILS_EP1               256, 2
 106:LUFA-111009/LUFA/Drivers/USB/Core/AVR8/../AVR8/../AVR8/../AVR8/Endpoint_AVR8.h **** 				#define ENDPOINT_DETAILS_EP2               64,  2
 107:LUFA-111009/LUFA/Drivers/USB/Core/AVR8/../AVR8/../AVR8/../AVR8/Endpoint_AVR8.h **** 				#define ENDPOINT_DETAILS_EP3               64,  2
 108:LUFA-111009/LUFA/Drivers/USB/Core/AVR8/../AVR8/../AVR8/../AVR8/Endpoint_AVR8.h **** 				#define ENDPOINT_DETAILS_EP4               64,  2
 109:LUFA-111009/LUFA/Drivers/USB/Core/AVR8/../AVR8/../AVR8/../AVR8/Endpoint_AVR8.h **** 				#define ENDPOINT_DETAILS_EP5               64,  2
 110:LUFA-111009/LUFA/Drivers/USB/Core/AVR8/../AVR8/../AVR8/../AVR8/Endpoint_AVR8.h **** 				#define ENDPOINT_DETAILS_EP6               64,  2
 111:LUFA-111009/LUFA/Drivers/USB/Core/AVR8/../AVR8/../AVR8/../AVR8/Endpoint_AVR8.h **** 			#else
 112:LUFA-111009/LUFA/Drivers/USB/Core/AVR8/../AVR8/../AVR8/../AVR8/Endpoint_AVR8.h **** 				#define ENDPOINT_DETAILS_MAXEP             5
 113:LUFA-111009/LUFA/Drivers/USB/Core/AVR8/../AVR8/../AVR8/../AVR8/Endpoint_AVR8.h **** 
 114:LUFA-111009/LUFA/Drivers/USB/Core/AVR8/../AVR8/../AVR8/../AVR8/Endpoint_AVR8.h **** 				#define ENDPOINT_DETAILS_EP0               64,  1
 115:LUFA-111009/LUFA/Drivers/USB/Core/AVR8/../AVR8/../AVR8/../AVR8/Endpoint_AVR8.h **** 				#define ENDPOINT_DETAILS_EP1               64,  1
 116:LUFA-111009/LUFA/Drivers/USB/Core/AVR8/../AVR8/../AVR8/../AVR8/Endpoint_AVR8.h **** 				#define ENDPOINT_DETAILS_EP2               64,  1
 117:LUFA-111009/LUFA/Drivers/USB/Core/AVR8/../AVR8/../AVR8/../AVR8/Endpoint_AVR8.h **** 				#define ENDPOINT_DETAILS_EP3               64,  2
 118:LUFA-111009/LUFA/Drivers/USB/Core/AVR8/../AVR8/../AVR8/../AVR8/Endpoint_AVR8.h **** 				#define ENDPOINT_DETAILS_EP4               64,  2
 119:LUFA-111009/LUFA/Drivers/USB/Core/AVR8/../AVR8/../AVR8/../AVR8/Endpoint_AVR8.h **** 			#endif
 120:LUFA-111009/LUFA/Drivers/USB/Core/AVR8/../AVR8/../AVR8/../AVR8/Endpoint_AVR8.h **** 
 121:LUFA-111009/LUFA/Drivers/USB/Core/AVR8/../AVR8/../AVR8/../AVR8/Endpoint_AVR8.h **** 		/* Inline Functions: */
 122:LUFA-111009/LUFA/Drivers/USB/Core/AVR8/../AVR8/../AVR8/../AVR8/Endpoint_AVR8.h **** 			static inline uint8_t Endpoint_BytesToEPSizeMask(const uint16_t Bytes) ATTR_WARN_UNUSED_RESULT A
 123:LUFA-111009/LUFA/Drivers/USB/Core/AVR8/../AVR8/../AVR8/../AVR8/Endpoint_AVR8.h **** 			                                                                       ATTR_ALWAYS_INLINE;
 124:LUFA-111009/LUFA/Drivers/USB/Core/AVR8/../AVR8/../AVR8/../AVR8/Endpoint_AVR8.h **** 			static inline uint8_t Endpoint_BytesToEPSizeMask(const uint16_t Bytes)
 125:LUFA-111009/LUFA/Drivers/USB/Core/AVR8/../AVR8/../AVR8/../AVR8/Endpoint_AVR8.h **** 			{
 126:LUFA-111009/LUFA/Drivers/USB/Core/AVR8/../AVR8/../AVR8/../AVR8/Endpoint_AVR8.h **** 				uint8_t  MaskVal    = 0;
 127:LUFA-111009/LUFA/Drivers/USB/Core/AVR8/../AVR8/../AVR8/../AVR8/Endpoint_AVR8.h **** 				uint16_t CheckBytes = 8;
 128:LUFA-111009/LUFA/Drivers/USB/Core/AVR8/../AVR8/../AVR8/../AVR8/Endpoint_AVR8.h **** 
 129:LUFA-111009/LUFA/Drivers/USB/Core/AVR8/../AVR8/../AVR8/../AVR8/Endpoint_AVR8.h **** 				while (CheckBytes < Bytes)
 130:LUFA-111009/LUFA/Drivers/USB/Core/AVR8/../AVR8/../AVR8/../AVR8/Endpoint_AVR8.h **** 				{
 131:LUFA-111009/LUFA/Drivers/USB/Core/AVR8/../AVR8/../AVR8/../AVR8/Endpoint_AVR8.h **** 					MaskVal++;
 132:LUFA-111009/LUFA/Drivers/USB/Core/AVR8/../AVR8/../AVR8/../AVR8/Endpoint_AVR8.h **** 					CheckBytes <<= 1;
 133:LUFA-111009/LUFA/Drivers/USB/Core/AVR8/../AVR8/../AVR8/../AVR8/Endpoint_AVR8.h **** 				}
 134:LUFA-111009/LUFA/Drivers/USB/Core/AVR8/../AVR8/../AVR8/../AVR8/Endpoint_AVR8.h **** 
 135:LUFA-111009/LUFA/Drivers/USB/Core/AVR8/../AVR8/../AVR8/../AVR8/Endpoint_AVR8.h **** 				return (MaskVal << EPSIZE0);
 136:LUFA-111009/LUFA/Drivers/USB/Core/AVR8/../AVR8/../AVR8/../AVR8/Endpoint_AVR8.h **** 			}
 137:LUFA-111009/LUFA/Drivers/USB/Core/AVR8/../AVR8/../AVR8/../AVR8/Endpoint_AVR8.h **** 
 138:LUFA-111009/LUFA/Drivers/USB/Core/AVR8/../AVR8/../AVR8/../AVR8/Endpoint_AVR8.h **** 		/* Function Prototypes: */
 139:LUFA-111009/LUFA/Drivers/USB/Core/AVR8/../AVR8/../AVR8/../AVR8/Endpoint_AVR8.h **** 			void Endpoint_ClearEndpoints(void);
 140:LUFA-111009/LUFA/Drivers/USB/Core/AVR8/../AVR8/../AVR8/../AVR8/Endpoint_AVR8.h **** 			bool Endpoint_ConfigureEndpoint_Prv(const uint8_t Number,
 141:LUFA-111009/LUFA/Drivers/USB/Core/AVR8/../AVR8/../AVR8/../AVR8/Endpoint_AVR8.h **** 			                                    const uint8_t UECFG0XData,
 142:LUFA-111009/LUFA/Drivers/USB/Core/AVR8/../AVR8/../AVR8/../AVR8/Endpoint_AVR8.h **** 			                                    const uint8_t UECFG1XData);
 143:LUFA-111009/LUFA/Drivers/USB/Core/AVR8/../AVR8/../AVR8/../AVR8/Endpoint_AVR8.h **** 
 144:LUFA-111009/LUFA/Drivers/USB/Core/AVR8/../AVR8/../AVR8/../AVR8/Endpoint_AVR8.h **** 	#endif
 145:LUFA-111009/LUFA/Drivers/USB/Core/AVR8/../AVR8/../AVR8/../AVR8/Endpoint_AVR8.h **** 
 146:LUFA-111009/LUFA/Drivers/USB/Core/AVR8/../AVR8/../AVR8/../AVR8/Endpoint_AVR8.h **** 	/* Public Interface - May be used in end-application: */
 147:LUFA-111009/LUFA/Drivers/USB/Core/AVR8/../AVR8/../AVR8/../AVR8/Endpoint_AVR8.h **** 		/* Macros: */			
 148:LUFA-111009/LUFA/Drivers/USB/Core/AVR8/../AVR8/../AVR8/../AVR8/Endpoint_AVR8.h **** 			/** \name Endpoint Bank Mode Masks */
 149:LUFA-111009/LUFA/Drivers/USB/Core/AVR8/../AVR8/../AVR8/../AVR8/Endpoint_AVR8.h **** 			//@{
 150:LUFA-111009/LUFA/Drivers/USB/Core/AVR8/../AVR8/../AVR8/../AVR8/Endpoint_AVR8.h **** 			/** Mask for the bank mode selection for the \ref Endpoint_ConfigureEndpoint() macro. This indic
 151:LUFA-111009/LUFA/Drivers/USB/Core/AVR8/../AVR8/../AVR8/../AVR8/Endpoint_AVR8.h **** 			 *  that the endpoint should have one single bank, which requires less USB FIFO memory but resul
 152:LUFA-111009/LUFA/Drivers/USB/Core/AVR8/../AVR8/../AVR8/../AVR8/Endpoint_AVR8.h **** 			 *  in slower transfers as only one USB device (the AVR or the host) can access the endpoint's
 153:LUFA-111009/LUFA/Drivers/USB/Core/AVR8/../AVR8/../AVR8/../AVR8/Endpoint_AVR8.h **** 			 *  bank at the one time.
 154:LUFA-111009/LUFA/Drivers/USB/Core/AVR8/../AVR8/../AVR8/../AVR8/Endpoint_AVR8.h **** 			 */
 155:LUFA-111009/LUFA/Drivers/USB/Core/AVR8/../AVR8/../AVR8/../AVR8/Endpoint_AVR8.h **** 			#define ENDPOINT_BANK_SINGLE                    (0 << EPBK0)
 156:LUFA-111009/LUFA/Drivers/USB/Core/AVR8/../AVR8/../AVR8/../AVR8/Endpoint_AVR8.h **** 
 157:LUFA-111009/LUFA/Drivers/USB/Core/AVR8/../AVR8/../AVR8/../AVR8/Endpoint_AVR8.h **** 			/** Mask for the bank mode selection for the \ref Endpoint_ConfigureEndpoint() macro. This indic
 158:LUFA-111009/LUFA/Drivers/USB/Core/AVR8/../AVR8/../AVR8/../AVR8/Endpoint_AVR8.h **** 			 *  that the endpoint should have two banks, which requires more USB FIFO memory but results
 159:LUFA-111009/LUFA/Drivers/USB/Core/AVR8/../AVR8/../AVR8/../AVR8/Endpoint_AVR8.h **** 			 *  in faster transfers as one USB device (the AVR or the host) can access one bank while the ot
 160:LUFA-111009/LUFA/Drivers/USB/Core/AVR8/../AVR8/../AVR8/../AVR8/Endpoint_AVR8.h **** 			 *  accesses the second bank.
 161:LUFA-111009/LUFA/Drivers/USB/Core/AVR8/../AVR8/../AVR8/../AVR8/Endpoint_AVR8.h **** 			 */
 162:LUFA-111009/LUFA/Drivers/USB/Core/AVR8/../AVR8/../AVR8/../AVR8/Endpoint_AVR8.h **** 			#define ENDPOINT_BANK_DOUBLE                    (1 << EPBK0)
 163:LUFA-111009/LUFA/Drivers/USB/Core/AVR8/../AVR8/../AVR8/../AVR8/Endpoint_AVR8.h **** 			//@}
 164:LUFA-111009/LUFA/Drivers/USB/Core/AVR8/../AVR8/../AVR8/../AVR8/Endpoint_AVR8.h **** 
 165:LUFA-111009/LUFA/Drivers/USB/Core/AVR8/../AVR8/../AVR8/../AVR8/Endpoint_AVR8.h **** 			#if (!defined(FIXED_CONTROL_ENDPOINT_SIZE) || defined(__DOXYGEN__))
 166:LUFA-111009/LUFA/Drivers/USB/Core/AVR8/../AVR8/../AVR8/../AVR8/Endpoint_AVR8.h **** 				/** Default size of the default control endpoint's bank, until altered by the control endpoint 
 167:LUFA-111009/LUFA/Drivers/USB/Core/AVR8/../AVR8/../AVR8/../AVR8/Endpoint_AVR8.h **** 				 *  value in the device descriptor. Not available if the \c FIXED_CONTROL_ENDPOINT_SIZE token i
 168:LUFA-111009/LUFA/Drivers/USB/Core/AVR8/../AVR8/../AVR8/../AVR8/Endpoint_AVR8.h **** 				 */
 169:LUFA-111009/LUFA/Drivers/USB/Core/AVR8/../AVR8/../AVR8/../AVR8/Endpoint_AVR8.h **** 				#define ENDPOINT_CONTROLEP_DEFAULT_SIZE     8
 170:LUFA-111009/LUFA/Drivers/USB/Core/AVR8/../AVR8/../AVR8/../AVR8/Endpoint_AVR8.h **** 			#endif
 171:LUFA-111009/LUFA/Drivers/USB/Core/AVR8/../AVR8/../AVR8/../AVR8/Endpoint_AVR8.h **** 
 172:LUFA-111009/LUFA/Drivers/USB/Core/AVR8/../AVR8/../AVR8/../AVR8/Endpoint_AVR8.h **** 			/** Retrieves the maximum bank size in bytes of a given endpoint.
 173:LUFA-111009/LUFA/Drivers/USB/Core/AVR8/../AVR8/../AVR8/../AVR8/Endpoint_AVR8.h **** 			 *
 174:LUFA-111009/LUFA/Drivers/USB/Core/AVR8/../AVR8/../AVR8/../AVR8/Endpoint_AVR8.h **** 			 *  \note This macro will only work correctly on endpoint indexes that are compile-time constant
 175:LUFA-111009/LUFA/Drivers/USB/Core/AVR8/../AVR8/../AVR8/../AVR8/Endpoint_AVR8.h **** 			 *        defined by the preprocessor.
 176:LUFA-111009/LUFA/Drivers/USB/Core/AVR8/../AVR8/../AVR8/../AVR8/Endpoint_AVR8.h **** 			 *
 177:LUFA-111009/LUFA/Drivers/USB/Core/AVR8/../AVR8/../AVR8/../AVR8/Endpoint_AVR8.h **** 			 *  \param[in] EPIndex  Endpoint number, a value between 0 and (\ref ENDPOINT_TOTAL_ENDPOINTS - 
 178:LUFA-111009/LUFA/Drivers/USB/Core/AVR8/../AVR8/../AVR8/../AVR8/Endpoint_AVR8.h **** 			 */
 179:LUFA-111009/LUFA/Drivers/USB/Core/AVR8/../AVR8/../AVR8/../AVR8/Endpoint_AVR8.h **** 			#define ENDPOINT_MAX_SIZE(EPIndex)              _ENDPOINT_GET_MAXSIZE(EPIndex)
 180:LUFA-111009/LUFA/Drivers/USB/Core/AVR8/../AVR8/../AVR8/../AVR8/Endpoint_AVR8.h **** 
 181:LUFA-111009/LUFA/Drivers/USB/Core/AVR8/../AVR8/../AVR8/../AVR8/Endpoint_AVR8.h **** 			/** Retrieves the total number of banks supported by the given endpoint.
 182:LUFA-111009/LUFA/Drivers/USB/Core/AVR8/../AVR8/../AVR8/../AVR8/Endpoint_AVR8.h **** 			 *
 183:LUFA-111009/LUFA/Drivers/USB/Core/AVR8/../AVR8/../AVR8/../AVR8/Endpoint_AVR8.h **** 			 *  \note This macro will only work correctly on endpoint indexes that are compile-time constant
 184:LUFA-111009/LUFA/Drivers/USB/Core/AVR8/../AVR8/../AVR8/../AVR8/Endpoint_AVR8.h **** 			 *        defined by the preprocessor.
 185:LUFA-111009/LUFA/Drivers/USB/Core/AVR8/../AVR8/../AVR8/../AVR8/Endpoint_AVR8.h **** 			 *
 186:LUFA-111009/LUFA/Drivers/USB/Core/AVR8/../AVR8/../AVR8/../AVR8/Endpoint_AVR8.h **** 			 *  \param[in] EPIndex  Endpoint number, a value between 0 and (\ref ENDPOINT_TOTAL_ENDPOINTS - 
 187:LUFA-111009/LUFA/Drivers/USB/Core/AVR8/../AVR8/../AVR8/../AVR8/Endpoint_AVR8.h **** 			 */
 188:LUFA-111009/LUFA/Drivers/USB/Core/AVR8/../AVR8/../AVR8/../AVR8/Endpoint_AVR8.h **** 			#define ENDPOINT_BANKS_SUPPORTED(EPIndex)       _ENDPOINT_GET_BANKS(EPIndex)
 189:LUFA-111009/LUFA/Drivers/USB/Core/AVR8/../AVR8/../AVR8/../AVR8/Endpoint_AVR8.h **** 
 190:LUFA-111009/LUFA/Drivers/USB/Core/AVR8/../AVR8/../AVR8/../AVR8/Endpoint_AVR8.h **** 			#if !defined(CONTROL_ONLY_DEVICE) || defined(__DOXYGEN__)
 191:LUFA-111009/LUFA/Drivers/USB/Core/AVR8/../AVR8/../AVR8/../AVR8/Endpoint_AVR8.h **** 				/** Total number of endpoints (including the default control endpoint at address 0) which may
 192:LUFA-111009/LUFA/Drivers/USB/Core/AVR8/../AVR8/../AVR8/../AVR8/Endpoint_AVR8.h **** 				 *  be used in the device. Different USB AVR models support different amounts of endpoints,
 193:LUFA-111009/LUFA/Drivers/USB/Core/AVR8/../AVR8/../AVR8/../AVR8/Endpoint_AVR8.h **** 				 *  this value reflects the maximum number of endpoints for the currently selected AVR model.
 194:LUFA-111009/LUFA/Drivers/USB/Core/AVR8/../AVR8/../AVR8/../AVR8/Endpoint_AVR8.h **** 				 */
 195:LUFA-111009/LUFA/Drivers/USB/Core/AVR8/../AVR8/../AVR8/../AVR8/Endpoint_AVR8.h **** 				#define ENDPOINT_TOTAL_ENDPOINTS            ENDPOINT_DETAILS_MAXEP
 196:LUFA-111009/LUFA/Drivers/USB/Core/AVR8/../AVR8/../AVR8/../AVR8/Endpoint_AVR8.h **** 			#else
 197:LUFA-111009/LUFA/Drivers/USB/Core/AVR8/../AVR8/../AVR8/../AVR8/Endpoint_AVR8.h **** 				#define ENDPOINT_TOTAL_ENDPOINTS            1
 198:LUFA-111009/LUFA/Drivers/USB/Core/AVR8/../AVR8/../AVR8/../AVR8/Endpoint_AVR8.h **** 			#endif
 199:LUFA-111009/LUFA/Drivers/USB/Core/AVR8/../AVR8/../AVR8/../AVR8/Endpoint_AVR8.h **** 
 200:LUFA-111009/LUFA/Drivers/USB/Core/AVR8/../AVR8/../AVR8/../AVR8/Endpoint_AVR8.h **** 		/* Enums: */
 201:LUFA-111009/LUFA/Drivers/USB/Core/AVR8/../AVR8/../AVR8/../AVR8/Endpoint_AVR8.h **** 			/** Enum for the possible error return codes of the \ref Endpoint_WaitUntilReady() function.
 202:LUFA-111009/LUFA/Drivers/USB/Core/AVR8/../AVR8/../AVR8/../AVR8/Endpoint_AVR8.h **** 			 *
 203:LUFA-111009/LUFA/Drivers/USB/Core/AVR8/../AVR8/../AVR8/../AVR8/Endpoint_AVR8.h **** 			 *  \ingroup Group_EndpointRW_AVR8
 204:LUFA-111009/LUFA/Drivers/USB/Core/AVR8/../AVR8/../AVR8/../AVR8/Endpoint_AVR8.h **** 			 */
 205:LUFA-111009/LUFA/Drivers/USB/Core/AVR8/../AVR8/../AVR8/../AVR8/Endpoint_AVR8.h **** 			enum Endpoint_WaitUntilReady_ErrorCodes_t
 206:LUFA-111009/LUFA/Drivers/USB/Core/AVR8/../AVR8/../AVR8/../AVR8/Endpoint_AVR8.h **** 			{
 207:LUFA-111009/LUFA/Drivers/USB/Core/AVR8/../AVR8/../AVR8/../AVR8/Endpoint_AVR8.h **** 				ENDPOINT_READYWAIT_NoError                 = 0, /**< Endpoint is ready for next packet, no erro
 208:LUFA-111009/LUFA/Drivers/USB/Core/AVR8/../AVR8/../AVR8/../AVR8/Endpoint_AVR8.h **** 				ENDPOINT_READYWAIT_EndpointStalled         = 1, /**< The endpoint was stalled during the stream
 209:LUFA-111009/LUFA/Drivers/USB/Core/AVR8/../AVR8/../AVR8/../AVR8/Endpoint_AVR8.h **** 				                                                 *   transfer by the host or device.
 210:LUFA-111009/LUFA/Drivers/USB/Core/AVR8/../AVR8/../AVR8/../AVR8/Endpoint_AVR8.h **** 				                                                 */
 211:LUFA-111009/LUFA/Drivers/USB/Core/AVR8/../AVR8/../AVR8/../AVR8/Endpoint_AVR8.h **** 				ENDPOINT_READYWAIT_DeviceDisconnected      = 2,	/**< Device was disconnected from the host whil
 212:LUFA-111009/LUFA/Drivers/USB/Core/AVR8/../AVR8/../AVR8/../AVR8/Endpoint_AVR8.h **** 				                                                 *   waiting for the endpoint to become ready.
 213:LUFA-111009/LUFA/Drivers/USB/Core/AVR8/../AVR8/../AVR8/../AVR8/Endpoint_AVR8.h **** 				                                                 */
 214:LUFA-111009/LUFA/Drivers/USB/Core/AVR8/../AVR8/../AVR8/../AVR8/Endpoint_AVR8.h **** 				ENDPOINT_READYWAIT_BusSuspended            = 3, /**< The USB bus has been suspended by the host
 215:LUFA-111009/LUFA/Drivers/USB/Core/AVR8/../AVR8/../AVR8/../AVR8/Endpoint_AVR8.h **** 				                                                 *   no USB endpoint traffic can occur until th
 216:LUFA-111009/LUFA/Drivers/USB/Core/AVR8/../AVR8/../AVR8/../AVR8/Endpoint_AVR8.h **** 				                                                 *   has resumed.
 217:LUFA-111009/LUFA/Drivers/USB/Core/AVR8/../AVR8/../AVR8/../AVR8/Endpoint_AVR8.h **** 				                                                 */
 218:LUFA-111009/LUFA/Drivers/USB/Core/AVR8/../AVR8/../AVR8/../AVR8/Endpoint_AVR8.h **** 				ENDPOINT_READYWAIT_Timeout                 = 4, /**< The host failed to accept or send the next
 219:LUFA-111009/LUFA/Drivers/USB/Core/AVR8/../AVR8/../AVR8/../AVR8/Endpoint_AVR8.h **** 				                                                 *   within the software timeout period set by 
 220:LUFA-111009/LUFA/Drivers/USB/Core/AVR8/../AVR8/../AVR8/../AVR8/Endpoint_AVR8.h **** 				                                                 *   \ref USB_STREAM_TIMEOUT_MS macro.
 221:LUFA-111009/LUFA/Drivers/USB/Core/AVR8/../AVR8/../AVR8/../AVR8/Endpoint_AVR8.h **** 				                                                 */
 222:LUFA-111009/LUFA/Drivers/USB/Core/AVR8/../AVR8/../AVR8/../AVR8/Endpoint_AVR8.h **** 			};
 223:LUFA-111009/LUFA/Drivers/USB/Core/AVR8/../AVR8/../AVR8/../AVR8/Endpoint_AVR8.h **** 
 224:LUFA-111009/LUFA/Drivers/USB/Core/AVR8/../AVR8/../AVR8/../AVR8/Endpoint_AVR8.h **** 		/* Inline Functions: */
 225:LUFA-111009/LUFA/Drivers/USB/Core/AVR8/../AVR8/../AVR8/../AVR8/Endpoint_AVR8.h **** 			/** Configures the specified endpoint number with the given endpoint type, direction, bank size
 226:LUFA-111009/LUFA/Drivers/USB/Core/AVR8/../AVR8/../AVR8/../AVR8/Endpoint_AVR8.h **** 			 *  and banking mode. Once configured, the endpoint may be read from or written to, depending
 227:LUFA-111009/LUFA/Drivers/USB/Core/AVR8/../AVR8/../AVR8/../AVR8/Endpoint_AVR8.h **** 			 *  on its direction.
 228:LUFA-111009/LUFA/Drivers/USB/Core/AVR8/../AVR8/../AVR8/../AVR8/Endpoint_AVR8.h **** 			 *
 229:LUFA-111009/LUFA/Drivers/USB/Core/AVR8/../AVR8/../AVR8/../AVR8/Endpoint_AVR8.h **** 			 *  \param[in] Number     Endpoint number to configure. This must be more than 0 and less than
 230:LUFA-111009/LUFA/Drivers/USB/Core/AVR8/../AVR8/../AVR8/../AVR8/Endpoint_AVR8.h **** 			 *                        \ref ENDPOINT_TOTAL_ENDPOINTS.
 231:LUFA-111009/LUFA/Drivers/USB/Core/AVR8/../AVR8/../AVR8/../AVR8/Endpoint_AVR8.h **** 			 *
 232:LUFA-111009/LUFA/Drivers/USB/Core/AVR8/../AVR8/../AVR8/../AVR8/Endpoint_AVR8.h **** 			 *  \param[in] Type       Type of endpoint to configure, a \c EP_TYPE_* mask. Not all endpoint t
 233:LUFA-111009/LUFA/Drivers/USB/Core/AVR8/../AVR8/../AVR8/../AVR8/Endpoint_AVR8.h **** 			 *                        are available on Low Speed USB devices - refer to the USB 2.0 specific
 234:LUFA-111009/LUFA/Drivers/USB/Core/AVR8/../AVR8/../AVR8/../AVR8/Endpoint_AVR8.h **** 			 *
 235:LUFA-111009/LUFA/Drivers/USB/Core/AVR8/../AVR8/../AVR8/../AVR8/Endpoint_AVR8.h **** 			 *  \param[in] Direction  Endpoint data direction, either \ref ENDPOINT_DIR_OUT or \ref ENDPOINT
 236:LUFA-111009/LUFA/Drivers/USB/Core/AVR8/../AVR8/../AVR8/../AVR8/Endpoint_AVR8.h **** 			 *                        All endpoints (except Control type) are unidirectional - data may only
 237:LUFA-111009/LUFA/Drivers/USB/Core/AVR8/../AVR8/../AVR8/../AVR8/Endpoint_AVR8.h **** 			 *                        from or written to the endpoint bank based on its direction, not both.
 238:LUFA-111009/LUFA/Drivers/USB/Core/AVR8/../AVR8/../AVR8/../AVR8/Endpoint_AVR8.h **** 			 *
 239:LUFA-111009/LUFA/Drivers/USB/Core/AVR8/../AVR8/../AVR8/../AVR8/Endpoint_AVR8.h **** 			 *  \param[in] Size       Size of the endpoint's bank, where packets are stored before they are 
 240:LUFA-111009/LUFA/Drivers/USB/Core/AVR8/../AVR8/../AVR8/../AVR8/Endpoint_AVR8.h **** 			 *                        to the USB host, or after they have been received from the USB host (d
 241:LUFA-111009/LUFA/Drivers/USB/Core/AVR8/../AVR8/../AVR8/../AVR8/Endpoint_AVR8.h **** 			 *                        the endpoint's data direction). The bank size must indicate the maximu
 242:LUFA-111009/LUFA/Drivers/USB/Core/AVR8/../AVR8/../AVR8/../AVR8/Endpoint_AVR8.h **** 			 *                        that the endpoint can handle.
 243:LUFA-111009/LUFA/Drivers/USB/Core/AVR8/../AVR8/../AVR8/../AVR8/Endpoint_AVR8.h **** 			 *
 244:LUFA-111009/LUFA/Drivers/USB/Core/AVR8/../AVR8/../AVR8/../AVR8/Endpoint_AVR8.h **** 			 *  \param[in] Banks      Number of banks to use for the endpoint being configured, an \c ENDPOI
 245:LUFA-111009/LUFA/Drivers/USB/Core/AVR8/../AVR8/../AVR8/../AVR8/Endpoint_AVR8.h **** 			 *                        More banks uses more USB DPRAM, but offers better performance. Isochro
 246:LUFA-111009/LUFA/Drivers/USB/Core/AVR8/../AVR8/../AVR8/../AVR8/Endpoint_AVR8.h **** 			 *                        endpoints <b>must</b> have at least two banks.
 247:LUFA-111009/LUFA/Drivers/USB/Core/AVR8/../AVR8/../AVR8/../AVR8/Endpoint_AVR8.h **** 			 *
 248:LUFA-111009/LUFA/Drivers/USB/Core/AVR8/../AVR8/../AVR8/../AVR8/Endpoint_AVR8.h **** 			 *  \note When the \c ORDERED_EP_CONFIG compile time option is used, Endpoints <b>must</b> be co
 249:LUFA-111009/LUFA/Drivers/USB/Core/AVR8/../AVR8/../AVR8/../AVR8/Endpoint_AVR8.h **** 			 *        ascending order, or bank corruption will occur.
 250:LUFA-111009/LUFA/Drivers/USB/Core/AVR8/../AVR8/../AVR8/../AVR8/Endpoint_AVR8.h **** 			 *        \n\n
 251:LUFA-111009/LUFA/Drivers/USB/Core/AVR8/../AVR8/../AVR8/../AVR8/Endpoint_AVR8.h **** 			 *
 252:LUFA-111009/LUFA/Drivers/USB/Core/AVR8/../AVR8/../AVR8/../AVR8/Endpoint_AVR8.h **** 			 *  \note Different endpoints may have different maximum packet sizes based on the endpoint's in
 253:LUFA-111009/LUFA/Drivers/USB/Core/AVR8/../AVR8/../AVR8/../AVR8/Endpoint_AVR8.h **** 			 *        the chosen microcontroller model's datasheet to determine the maximum bank size for ea
 254:LUFA-111009/LUFA/Drivers/USB/Core/AVR8/../AVR8/../AVR8/../AVR8/Endpoint_AVR8.h **** 			 *        \n\n
 255:LUFA-111009/LUFA/Drivers/USB/Core/AVR8/../AVR8/../AVR8/../AVR8/Endpoint_AVR8.h **** 			 *
 256:LUFA-111009/LUFA/Drivers/USB/Core/AVR8/../AVR8/../AVR8/../AVR8/Endpoint_AVR8.h **** 			 *  \note The default control endpoint should not be manually configured by the user application
 257:LUFA-111009/LUFA/Drivers/USB/Core/AVR8/../AVR8/../AVR8/../AVR8/Endpoint_AVR8.h **** 			 *        it is automatically configured by the library internally.
 258:LUFA-111009/LUFA/Drivers/USB/Core/AVR8/../AVR8/../AVR8/../AVR8/Endpoint_AVR8.h **** 			 *        \n\n
 259:LUFA-111009/LUFA/Drivers/USB/Core/AVR8/../AVR8/../AVR8/../AVR8/Endpoint_AVR8.h **** 			 *
 260:LUFA-111009/LUFA/Drivers/USB/Core/AVR8/../AVR8/../AVR8/../AVR8/Endpoint_AVR8.h **** 			 *  \note This routine will automatically select the specified endpoint upon success. Upon failu
 261:LUFA-111009/LUFA/Drivers/USB/Core/AVR8/../AVR8/../AVR8/../AVR8/Endpoint_AVR8.h **** 			 *        which failed to reconfigure correctly will be selected.
 262:LUFA-111009/LUFA/Drivers/USB/Core/AVR8/../AVR8/../AVR8/../AVR8/Endpoint_AVR8.h **** 			 *
 263:LUFA-111009/LUFA/Drivers/USB/Core/AVR8/../AVR8/../AVR8/../AVR8/Endpoint_AVR8.h **** 			 *  \return Boolean \c true if the configuration succeeded, \c false otherwise.
 264:LUFA-111009/LUFA/Drivers/USB/Core/AVR8/../AVR8/../AVR8/../AVR8/Endpoint_AVR8.h **** 			 */
 265:LUFA-111009/LUFA/Drivers/USB/Core/AVR8/../AVR8/../AVR8/../AVR8/Endpoint_AVR8.h **** 			static inline bool Endpoint_ConfigureEndpoint(const uint8_t Number,
 266:LUFA-111009/LUFA/Drivers/USB/Core/AVR8/../AVR8/../AVR8/../AVR8/Endpoint_AVR8.h **** 			                                              const uint8_t Type,
 267:LUFA-111009/LUFA/Drivers/USB/Core/AVR8/../AVR8/../AVR8/../AVR8/Endpoint_AVR8.h **** 			                                              const uint8_t Direction,
 268:LUFA-111009/LUFA/Drivers/USB/Core/AVR8/../AVR8/../AVR8/../AVR8/Endpoint_AVR8.h **** 			                                              const uint16_t Size,
 269:LUFA-111009/LUFA/Drivers/USB/Core/AVR8/../AVR8/../AVR8/../AVR8/Endpoint_AVR8.h **** 			                                              const uint8_t Banks) ATTR_ALWAYS_INLINE;
 270:LUFA-111009/LUFA/Drivers/USB/Core/AVR8/../AVR8/../AVR8/../AVR8/Endpoint_AVR8.h **** 			static inline bool Endpoint_ConfigureEndpoint(const uint8_t Number,
 271:LUFA-111009/LUFA/Drivers/USB/Core/AVR8/../AVR8/../AVR8/../AVR8/Endpoint_AVR8.h **** 			                                              const uint8_t Type,
 272:LUFA-111009/LUFA/Drivers/USB/Core/AVR8/../AVR8/../AVR8/../AVR8/Endpoint_AVR8.h **** 			                                              const uint8_t Direction,
 273:LUFA-111009/LUFA/Drivers/USB/Core/AVR8/../AVR8/../AVR8/../AVR8/Endpoint_AVR8.h **** 			                                              const uint16_t Size,
 274:LUFA-111009/LUFA/Drivers/USB/Core/AVR8/../AVR8/../AVR8/../AVR8/Endpoint_AVR8.h **** 			                                              const uint8_t Banks)
 275:LUFA-111009/LUFA/Drivers/USB/Core/AVR8/../AVR8/../AVR8/../AVR8/Endpoint_AVR8.h **** 			{
 276:LUFA-111009/LUFA/Drivers/USB/Core/AVR8/../AVR8/../AVR8/../AVR8/Endpoint_AVR8.h **** 				return Endpoint_ConfigureEndpoint_Prv(Number, ((Type << EPTYPE0) | (Direction ? (1 << EPDIR) : 
 416               		.loc 5 276 0
 417 013e 42E0      		ldi r20,lo8(2)
 418 0140 60E0      		ldi r22,0
 419 0142 80E0      		ldi r24,0
 420 0144 0E94 0000 		call Endpoint_ConfigureEndpoint_Prv
 421               	.LVL20:
 422               	.LBE117:
 423               	.LBE116:
 165:LUFA-111009/LUFA/Drivers/USB/Core/AVR8/USBInterrupt_AVR8.c **** 
 166:LUFA-111009/LUFA/Drivers/USB/Core/AVR8/USBInterrupt_AVR8.c **** 		USB_INT_Clear(USB_INT_SUSPI);
 167:LUFA-111009/LUFA/Drivers/USB/Core/AVR8/USBInterrupt_AVR8.c **** 		USB_INT_Disable(USB_INT_SUSPI);
 168:LUFA-111009/LUFA/Drivers/USB/Core/AVR8/USBInterrupt_AVR8.c **** 		USB_INT_Enable(USB_INT_WAKEUPI);
 169:LUFA-111009/LUFA/Drivers/USB/Core/AVR8/USBInterrupt_AVR8.c **** 
 170:LUFA-111009/LUFA/Drivers/USB/Core/AVR8/USBInterrupt_AVR8.c **** 		Endpoint_ConfigureEndpoint(ENDPOINT_CONTROLEP, EP_TYPE_CONTROL,
 171:LUFA-111009/LUFA/Drivers/USB/Core/AVR8/USBInterrupt_AVR8.c **** 		                           ENDPOINT_DIR_OUT, USB_Device_ControlEndpointSize,
 172:LUFA-111009/LUFA/Drivers/USB/Core/AVR8/USBInterrupt_AVR8.c **** 		                           ENDPOINT_BANK_SINGLE);
 173:LUFA-111009/LUFA/Drivers/USB/Core/AVR8/USBInterrupt_AVR8.c **** 
 174:LUFA-111009/LUFA/Drivers/USB/Core/AVR8/USBInterrupt_AVR8.c **** 		#if defined(INTERRUPT_CONTROL_ENDPOINT)
 175:LUFA-111009/LUFA/Drivers/USB/Core/AVR8/USBInterrupt_AVR8.c **** 		USB_INT_Enable(USB_INT_RXSTPI);
 176:LUFA-111009/LUFA/Drivers/USB/Core/AVR8/USBInterrupt_AVR8.c **** 		#endif
 177:LUFA-111009/LUFA/Drivers/USB/Core/AVR8/USBInterrupt_AVR8.c **** 
 178:LUFA-111009/LUFA/Drivers/USB/Core/AVR8/USBInterrupt_AVR8.c **** 		EVENT_USB_Device_Reset();
 424               		.loc 1 178 0
 425 0148 0E94 0000 		call EVENT_USB_Device_Reset
 426               	.LVL21:
 427               	.L3:
 428               	/* epilogue start */
 179:LUFA-111009/LUFA/Drivers/USB/Core/AVR8/USBInterrupt_AVR8.c **** 	}
 180:LUFA-111009/LUFA/Drivers/USB/Core/AVR8/USBInterrupt_AVR8.c **** 	#endif
 181:LUFA-111009/LUFA/Drivers/USB/Core/AVR8/USBInterrupt_AVR8.c **** 
 182:LUFA-111009/LUFA/Drivers/USB/Core/AVR8/USBInterrupt_AVR8.c **** 	#if defined(USB_CAN_BE_HOST)
 183:LUFA-111009/LUFA/Drivers/USB/Core/AVR8/USBInterrupt_AVR8.c **** 	#if !defined(NO_SOF_EVENTS)
 184:LUFA-111009/LUFA/Drivers/USB/Core/AVR8/USBInterrupt_AVR8.c **** 	if (USB_INT_HasOccurred(USB_INT_HSOFI) && USB_INT_IsEnabled(USB_INT_HSOFI))
 185:LUFA-111009/LUFA/Drivers/USB/Core/AVR8/USBInterrupt_AVR8.c **** 	{
 186:LUFA-111009/LUFA/Drivers/USB/Core/AVR8/USBInterrupt_AVR8.c **** 		USB_INT_Clear(USB_INT_HSOFI);
 187:LUFA-111009/LUFA/Drivers/USB/Core/AVR8/USBInterrupt_AVR8.c **** 
 188:LUFA-111009/LUFA/Drivers/USB/Core/AVR8/USBInterrupt_AVR8.c **** 		EVENT_USB_Host_StartOfFrame();
 189:LUFA-111009/LUFA/Drivers/USB/Core/AVR8/USBInterrupt_AVR8.c **** 	}
 190:LUFA-111009/LUFA/Drivers/USB/Core/AVR8/USBInterrupt_AVR8.c **** 	#endif
 191:LUFA-111009/LUFA/Drivers/USB/Core/AVR8/USBInterrupt_AVR8.c **** 
 192:LUFA-111009/LUFA/Drivers/USB/Core/AVR8/USBInterrupt_AVR8.c **** 	if (USB_INT_HasOccurred(USB_INT_DDISCI) && USB_INT_IsEnabled(USB_INT_DDISCI))
 193:LUFA-111009/LUFA/Drivers/USB/Core/AVR8/USBInterrupt_AVR8.c **** 	{
 194:LUFA-111009/LUFA/Drivers/USB/Core/AVR8/USBInterrupt_AVR8.c **** 		USB_INT_Clear(USB_INT_DDISCI);
 195:LUFA-111009/LUFA/Drivers/USB/Core/AVR8/USBInterrupt_AVR8.c **** 		USB_INT_Clear(USB_INT_DCONNI);
 196:LUFA-111009/LUFA/Drivers/USB/Core/AVR8/USBInterrupt_AVR8.c **** 		USB_INT_Disable(USB_INT_DDISCI);
 197:LUFA-111009/LUFA/Drivers/USB/Core/AVR8/USBInterrupt_AVR8.c **** 
 198:LUFA-111009/LUFA/Drivers/USB/Core/AVR8/USBInterrupt_AVR8.c **** 		EVENT_USB_Host_DeviceUnattached();
 199:LUFA-111009/LUFA/Drivers/USB/Core/AVR8/USBInterrupt_AVR8.c **** 
 200:LUFA-111009/LUFA/Drivers/USB/Core/AVR8/USBInterrupt_AVR8.c **** 		USB_ResetInterface();
 201:LUFA-111009/LUFA/Drivers/USB/Core/AVR8/USBInterrupt_AVR8.c **** 	}
 202:LUFA-111009/LUFA/Drivers/USB/Core/AVR8/USBInterrupt_AVR8.c **** 
 203:LUFA-111009/LUFA/Drivers/USB/Core/AVR8/USBInterrupt_AVR8.c **** 	if (USB_INT_HasOccurred(USB_INT_VBERRI) && USB_INT_IsEnabled(USB_INT_VBERRI))
 204:LUFA-111009/LUFA/Drivers/USB/Core/AVR8/USBInterrupt_AVR8.c **** 	{
 205:LUFA-111009/LUFA/Drivers/USB/Core/AVR8/USBInterrupt_AVR8.c **** 		USB_INT_Clear(USB_INT_VBERRI);
 206:LUFA-111009/LUFA/Drivers/USB/Core/AVR8/USBInterrupt_AVR8.c **** 
 207:LUFA-111009/LUFA/Drivers/USB/Core/AVR8/USBInterrupt_AVR8.c **** 		USB_Host_VBUS_Manual_Off();
 208:LUFA-111009/LUFA/Drivers/USB/Core/AVR8/USBInterrupt_AVR8.c **** 		USB_Host_VBUS_Auto_Off();
 209:LUFA-111009/LUFA/Drivers/USB/Core/AVR8/USBInterrupt_AVR8.c **** 
 210:LUFA-111009/LUFA/Drivers/USB/Core/AVR8/USBInterrupt_AVR8.c **** 		EVENT_USB_Host_HostError(HOST_ERROR_VBusVoltageDip);
 211:LUFA-111009/LUFA/Drivers/USB/Core/AVR8/USBInterrupt_AVR8.c **** 		EVENT_USB_Host_DeviceUnattached();
 212:LUFA-111009/LUFA/Drivers/USB/Core/AVR8/USBInterrupt_AVR8.c **** 
 213:LUFA-111009/LUFA/Drivers/USB/Core/AVR8/USBInterrupt_AVR8.c **** 		USB_HostState = HOST_STATE_Unattached;
 214:LUFA-111009/LUFA/Drivers/USB/Core/AVR8/USBInterrupt_AVR8.c **** 	}
 215:LUFA-111009/LUFA/Drivers/USB/Core/AVR8/USBInterrupt_AVR8.c **** 
 216:LUFA-111009/LUFA/Drivers/USB/Core/AVR8/USBInterrupt_AVR8.c **** 	if (USB_INT_HasOccurred(USB_INT_SRPI) && USB_INT_IsEnabled(USB_INT_SRPI))
 217:LUFA-111009/LUFA/Drivers/USB/Core/AVR8/USBInterrupt_AVR8.c **** 	{
 218:LUFA-111009/LUFA/Drivers/USB/Core/AVR8/USBInterrupt_AVR8.c **** 		USB_INT_Clear(USB_INT_SRPI);
 219:LUFA-111009/LUFA/Drivers/USB/Core/AVR8/USBInterrupt_AVR8.c **** 		USB_INT_Disable(USB_INT_SRPI);
 220:LUFA-111009/LUFA/Drivers/USB/Core/AVR8/USBInterrupt_AVR8.c **** 
 221:LUFA-111009/LUFA/Drivers/USB/Core/AVR8/USBInterrupt_AVR8.c **** 		EVENT_USB_Host_DeviceAttached();
 222:LUFA-111009/LUFA/Drivers/USB/Core/AVR8/USBInterrupt_AVR8.c **** 
 223:LUFA-111009/LUFA/Drivers/USB/Core/AVR8/USBInterrupt_AVR8.c **** 		USB_INT_Enable(USB_INT_DDISCI);
 224:LUFA-111009/LUFA/Drivers/USB/Core/AVR8/USBInterrupt_AVR8.c **** 
 225:LUFA-111009/LUFA/Drivers/USB/Core/AVR8/USBInterrupt_AVR8.c **** 		USB_HostState = HOST_STATE_Powered;
 226:LUFA-111009/LUFA/Drivers/USB/Core/AVR8/USBInterrupt_AVR8.c **** 	}
 227:LUFA-111009/LUFA/Drivers/USB/Core/AVR8/USBInterrupt_AVR8.c **** 
 228:LUFA-111009/LUFA/Drivers/USB/Core/AVR8/USBInterrupt_AVR8.c **** 	if (USB_INT_HasOccurred(USB_INT_BCERRI) && USB_INT_IsEnabled(USB_INT_BCERRI))
 229:LUFA-111009/LUFA/Drivers/USB/Core/AVR8/USBInterrupt_AVR8.c **** 	{
 230:LUFA-111009/LUFA/Drivers/USB/Core/AVR8/USBInterrupt_AVR8.c **** 		USB_INT_Clear(USB_INT_BCERRI);
 231:LUFA-111009/LUFA/Drivers/USB/Core/AVR8/USBInterrupt_AVR8.c **** 
 232:LUFA-111009/LUFA/Drivers/USB/Core/AVR8/USBInterrupt_AVR8.c **** 		EVENT_USB_Host_DeviceEnumerationFailed(HOST_ENUMERROR_NoDeviceDetected, 0);
 233:LUFA-111009/LUFA/Drivers/USB/Core/AVR8/USBInterrupt_AVR8.c **** 		EVENT_USB_Host_DeviceUnattached();
 234:LUFA-111009/LUFA/Drivers/USB/Core/AVR8/USBInterrupt_AVR8.c **** 
 235:LUFA-111009/LUFA/Drivers/USB/Core/AVR8/USBInterrupt_AVR8.c **** 		USB_ResetInterface();
 236:LUFA-111009/LUFA/Drivers/USB/Core/AVR8/USBInterrupt_AVR8.c **** 	}
 237:LUFA-111009/LUFA/Drivers/USB/Core/AVR8/USBInterrupt_AVR8.c **** 	#endif
 238:LUFA-111009/LUFA/Drivers/USB/Core/AVR8/USBInterrupt_AVR8.c **** 
 239:LUFA-111009/LUFA/Drivers/USB/Core/AVR8/USBInterrupt_AVR8.c **** 	#if defined(USB_CAN_BE_BOTH)
 240:LUFA-111009/LUFA/Drivers/USB/Core/AVR8/USBInterrupt_AVR8.c **** 	if (USB_INT_HasOccurred(USB_INT_IDTI) && USB_INT_IsEnabled(USB_INT_IDTI))
 241:LUFA-111009/LUFA/Drivers/USB/Core/AVR8/USBInterrupt_AVR8.c **** 	{
 242:LUFA-111009/LUFA/Drivers/USB/Core/AVR8/USBInterrupt_AVR8.c **** 		USB_INT_Clear(USB_INT_IDTI);
 243:LUFA-111009/LUFA/Drivers/USB/Core/AVR8/USBInterrupt_AVR8.c **** 
 244:LUFA-111009/LUFA/Drivers/USB/Core/AVR8/USBInterrupt_AVR8.c **** 		if (USB_DeviceState != DEVICE_STATE_Unattached)
 245:LUFA-111009/LUFA/Drivers/USB/Core/AVR8/USBInterrupt_AVR8.c **** 		  EVENT_USB_Device_Disconnect();
 246:LUFA-111009/LUFA/Drivers/USB/Core/AVR8/USBInterrupt_AVR8.c **** 
 247:LUFA-111009/LUFA/Drivers/USB/Core/AVR8/USBInterrupt_AVR8.c **** 		if (USB_HostState != HOST_STATE_Unattached)
 248:LUFA-111009/LUFA/Drivers/USB/Core/AVR8/USBInterrupt_AVR8.c **** 		  EVENT_USB_Host_DeviceUnattached();
 249:LUFA-111009/LUFA/Drivers/USB/Core/AVR8/USBInterrupt_AVR8.c **** 
 250:LUFA-111009/LUFA/Drivers/USB/Core/AVR8/USBInterrupt_AVR8.c **** 		USB_CurrentMode = USB_GetUSBModeFromUID();
 251:LUFA-111009/LUFA/Drivers/USB/Core/AVR8/USBInterrupt_AVR8.c **** 		USB_ResetInterface();
 252:LUFA-111009/LUFA/Drivers/USB/Core/AVR8/USBInterrupt_AVR8.c **** 
 253:LUFA-111009/LUFA/Drivers/USB/Core/AVR8/USBInterrupt_AVR8.c **** 		EVENT_USB_UIDChange();
 254:LUFA-111009/LUFA/Drivers/USB/Core/AVR8/USBInterrupt_AVR8.c **** 	}
 255:LUFA-111009/LUFA/Drivers/USB/Core/AVR8/USBInterrupt_AVR8.c **** 	#endif
 256:LUFA-111009/LUFA/Drivers/USB/Core/AVR8/USBInterrupt_AVR8.c **** }
 429               		.loc 1 256 0
 430 014c FF91      		pop r31
 431 014e EF91      		pop r30
 432 0150 BF91      		pop r27
 433 0152 AF91      		pop r26
 434 0154 9F91      		pop r25
 435 0156 8F91      		pop r24
 436 0158 7F91      		pop r23
 437 015a 6F91      		pop r22
 438 015c 5F91      		pop r21
 439 015e 4F91      		pop r20
 440 0160 3F91      		pop r19
 441 0162 2F91      		pop r18
 442 0164 0F90      		pop r0
 443 0166 0FBE      		out __SREG__,r0
 444 0168 0F90      		pop r0
 445 016a 1F90      		pop r1
 446 016c 1895      		reti
 447               		.cfi_endproc
 448               	.LFE83:
 450               		.text
 451               	.Letext0:
 452               		.file 6 "c:\\program files (x86)\\atmel\\avr tools\\avr toolchain\\bin\\../lib/gcc/avr/4.7.2/../..
 453               		.file 7 "LUFA-111009/LUFA/Drivers/USB/Core/AVR8/../AVR8/../AVR8/../Device.h"
 454               		.file 8 "LUFA-111009/LUFA/Drivers/USB/Core/AVR8/../AVR8/../Events.h"
 455               		.file 9 "LUFA-111009/LUFA/Drivers/USB/Core/AVR8/../AVR8/../AVR8/../DeviceStandardReq.h"